
uip_test.elf:     file format elf64-littleriscv


Disassembly of section .text:

0000000080000000 <_start>:
    80000000:	00100117          	auipc	sp,0x100
    80000004:	00010113          	mv	sp,sp
    80000008:	06100913          	li	s2,97
    8000000c:	00001337          	lui	t1,0x1
    80000010:	01230023          	sb	s2,0(t1) # 1000 <_start-0x7ffff000>
    80000014:	06200913          	li	s2,98
    80000018:	00001337          	lui	t1,0x1
    8000001c:	01230023          	sb	s2,0(t1) # 1000 <_start-0x7ffff000>
    80000020:	00a00913          	li	s2,10
    80000024:	00001337          	lui	t1,0x1
    80000028:	01230023          	sb	s2,0(t1) # 1000 <_start-0x7ffff000>
    8000002c:	0040006f          	j	80000030 <reset_vector>

0000000080000030 <reset_vector>:
    80000030:	07200913          	li	s2,114
    80000034:	00001337          	lui	t1,0x1
    80000038:	01230023          	sb	s2,0(t1) # 1000 <_start-0x7ffff000>
    8000003c:	00a00913          	li	s2,10
    80000040:	00001337          	lui	t1,0x1
    80000044:	01230023          	sb	s2,0(t1) # 1000 <_start-0x7ffff000>
    80000048:	00009517          	auipc	a0,0x9
    8000004c:	34850513          	addi	a0,a0,840 # 80009390 <_impure_ptr>
    80000050:	0000a597          	auipc	a1,0xa
    80000054:	36058593          	addi	a1,a1,864 # 8000a3b0 <global_clock_time>
    80000058:	00b57663          	bgeu	a0,a1,80000064 <reset_vector+0x34>
    8000005c:	00450513          	addi	a0,a0,4
    80000060:	feb56ee3          	bltu	a0,a1,8000005c <reset_vector+0x2c>
    80000064:	068000ef          	jal	ra,800000cc <main>
    80000068:	c0001073          	unimp
    8000006c:	0000                	unimp
    8000006e:	0000                	unimp
    80000070:	0000                	unimp
    80000072:	0000                	unimp

0000000080000074 <uip_log>:
    80000074:	00008067          	ret

0000000080000078 <uip_appcall>:
    80000078:	00008067          	ret

000000008000007c <_putchar>:
    8000007c:	000017b7          	lui	a5,0x1
    80000080:	00a78023          	sb	a0,0(a5) # 1000 <_start-0x7ffff000>
    80000084:	00008067          	ret

0000000080000088 <juice_netcrard_send>:
    80000088:	00000793          	li	a5,0
    8000008c:	0000d6b7          	lui	a3,0xd
    80000090:	0007871b          	sext.w	a4,a5
    80000094:	02b74063          	blt	a4,a1,800000b4 <juice_netcrard_send+0x2c>
    80000098:	0000d7b7          	lui	a5,0xd
    8000009c:	4085d71b          	sraiw	a4,a1,0x8
    800000a0:	5ee78223          	sb	a4,1508(a5) # d5e4 <_start-0x7fff2a1c>
    800000a4:	00100713          	li	a4,1
    800000a8:	5eb78323          	sb	a1,1510(a5)
    800000ac:	5ee78423          	sb	a4,1512(a5)
    800000b0:	00008067          	ret
    800000b4:	00f50733          	add	a4,a0,a5
    800000b8:	00074603          	lbu	a2,0(a4)
    800000bc:	00f68733          	add	a4,a3,a5
    800000c0:	00178793          	addi	a5,a5,1
    800000c4:	00c703a3          	sb	a2,7(a4)
    800000c8:	fc9ff06f          	j	80000090 <juice_netcrard_send+0x8>

00000000800000cc <main>:
    800000cc:	fa010113          	addi	sp,sp,-96 # 800fffa0 <heap_end.0+0xf5b60>
    800000d0:	00009517          	auipc	a0,0x9
    800000d4:	de050513          	addi	a0,a0,-544 # 80008eb0 <__malloc_av_+0x810>
    800000d8:	04113c23          	sd	ra,88(sp)
    800000dc:	04813823          	sd	s0,80(sp)
    800000e0:	04913423          	sd	s1,72(sp)
    800000e4:	03413823          	sd	s4,48(sp)
    800000e8:	03513423          	sd	s5,40(sp)
    800000ec:	05213023          	sd	s2,64(sp)
    800000f0:	03313c23          	sd	s3,56(sp)
    800000f4:	03613023          	sd	s6,32(sp)
    800000f8:	01713c23          	sd	s7,24(sp)
    800000fc:	209010ef          	jal	ra,80001b04 <printf>
    80000100:	1f400593          	li	a1,500
    80000104:	00010513          	mv	a0,sp
    80000108:	0d4020ef          	jal	ra,800021dc <timer_set>
    8000010c:	000025b7          	lui	a1,0x2
    80000110:	71058593          	addi	a1,a1,1808 # 2710 <_start-0x7fffd8f0>
    80000114:	00810513          	addi	a0,sp,8
    80000118:	0c4020ef          	jal	ra,800021dc <timer_set>
    8000011c:	35c020ef          	jal	ra,80002478 <uip_arp_init>
    80000120:	569020ef          	jal	ra,80002e88 <uip_init>
    80000124:	00009517          	auipc	a0,0x9
    80000128:	da450513          	addi	a0,a0,-604 # 80008ec8 <__malloc_av_+0x828>
    8000012c:	1d9010ef          	jal	ra,80001b04 <printf>
    80000130:	00009417          	auipc	s0,0x9
    80000134:	26040413          	addi	s0,s0,608 # 80009390 <_impure_ptr>
    80000138:	00043783          	ld	a5,0(s0)
    8000013c:	00001a37          	lui	s4,0x1
    80000140:	0000a497          	auipc	s1,0xa
    80000144:	2bc48493          	addi	s1,s1,700 # 8000a3fc <uip_len>
    80000148:	0107b503          	ld	a0,16(a5)
    8000014c:	800a0a93          	addi	s5,s4,-2048 # 800 <_start-0x7ffff800>
    80000150:	0cc060ef          	jal	ra,8000621c <fflush>
    80000154:	0000a517          	auipc	a0,0xa
    80000158:	29c50513          	addi	a0,a0,668 # 8000a3f0 <uip_ethaddr>
    8000015c:	01200793          	li	a5,18
    80000160:	00f50023          	sb	a5,0(a0)
    80000164:	03400793          	li	a5,52
    80000168:	00f500a3          	sb	a5,1(a0)
    8000016c:	05600793          	li	a5,86
    80000170:	00f50123          	sb	a5,2(a0)
    80000174:	07800793          	li	a5,120
    80000178:	00f501a3          	sb	a5,3(a0)
    8000017c:	f9000793          	li	a5,-112
    80000180:	00f50223          	sb	a5,4(a0)
    80000184:	fac00793          	li	a5,-84
    80000188:	00600593          	li	a1,6
    8000018c:	00f502a3          	sb	a5,5(a0)
    80000190:	69c040ef          	jal	ra,8000482c <dhcpc_init>
    80000194:	00009517          	auipc	a0,0x9
    80000198:	d4450513          	addi	a0,a0,-700 # 80008ed8 <__malloc_av_+0x838>
    8000019c:	169010ef          	jal	ra,80001b04 <printf>
    800001a0:	00043783          	ld	a5,0(s0)
    800001a4:	0107b503          	ld	a0,16(a5)
    800001a8:	074060ef          	jal	ra,8000621c <fflush>
    800001ac:	161040ef          	jal	ra,80004b0c <dhcpc_request>
    800001b0:	00009517          	auipc	a0,0x9
    800001b4:	d3850513          	addi	a0,a0,-712 # 80008ee8 <__malloc_av_+0x848>
    800001b8:	14d010ef          	jal	ra,80001b04 <printf>
    800001bc:	00043783          	ld	a5,0(s0)
    800001c0:	00009417          	auipc	s0,0x9
    800001c4:	2a840413          	addi	s0,s0,680 # 80009468 <uip_buf>
    800001c8:	0107b503          	ld	a0,16(a5)
    800001cc:	050060ef          	jal	ra,8000621c <fflush>
    800001d0:	0000db37          	lui	s6,0xd
    800001d4:	0000e9b7          	lui	s3,0xe
    800001d8:	bc99c703          	lbu	a4,-1079(s3) # dbc9 <_start-0x7fff2437>
    800001dc:	00100793          	li	a5,1
    800001e0:	10f71663          	bne	a4,a5,800002ec <main+0x220>
    800001e4:	bc69c703          	lbu	a4,-1082(s3)
    800001e8:	bc79c783          	lbu	a5,-1081(s3)
    800001ec:	00871713          	slli	a4,a4,0x8
    800001f0:	00e787bb          	addw	a5,a5,a4
    800001f4:	03079793          	slli	a5,a5,0x30
    800001f8:	0307d793          	srli	a5,a5,0x30
    800001fc:	00000713          	li	a4,0
    80000200:	0007861b          	sext.w	a2,a5
    80000204:	03071693          	slli	a3,a4,0x30
    80000208:	0306d693          	srli	a3,a3,0x30
    8000020c:	0cc6e463          	bltu	a3,a2,800002d4 <main+0x208>
    80000210:	bc0984a3          	sb	zero,-1079(s3)
    80000214:	00f49023          	sh	a5,0(s1)
    80000218:	0e079063          	bnez	a5,800002f8 <main+0x22c>
    8000021c:	00010513          	mv	a0,sp
    80000220:	024020ef          	jal	ra,80002244 <timer_expired>
    80000224:	fa050ae3          	beqz	a0,800001d8 <main+0x10c>
    80000228:	00010513          	mv	a0,sp
    8000022c:	7dd010ef          	jal	ra,80002208 <timer_reset>
    80000230:	0000a917          	auipc	s2,0xa
    80000234:	81890913          	addi	s2,s2,-2024 # 80009a48 <uip_conns>
    80000238:	0000a997          	auipc	s3,0xa
    8000023c:	d1098993          	addi	s3,s3,-752 # 80009f48 <uip_listenports>
    80000240:	0000ab97          	auipc	s7,0xa
    80000244:	1a0b8b93          	addi	s7,s7,416 # 8000a3e0 <uip_conn>
    80000248:	00200513          	li	a0,2
    8000024c:	012bb023          	sd	s2,0(s7)
    80000250:	028030ef          	jal	ra,80003278 <uip_process>
    80000254:	0004d783          	lhu	a5,0(s1)
    80000258:	00078a63          	beqz	a5,8000026c <main+0x1a0>
    8000025c:	538020ef          	jal	ra,80002794 <uip_arp_out>
    80000260:	0004d583          	lhu	a1,0(s1)
    80000264:	00040513          	mv	a0,s0
    80000268:	e21ff0ef          	jal	ra,80000088 <juice_netcrard_send>
    8000026c:	02090913          	addi	s2,s2,32
    80000270:	fd391ce3          	bne	s2,s3,80000248 <main+0x17c>
    80000274:	0000a917          	auipc	s2,0xa
    80000278:	d5c90913          	addi	s2,s2,-676 # 80009fd0 <uip_udp_conns>
    8000027c:	0000a997          	auipc	s3,0xa
    80000280:	0c498993          	addi	s3,s3,196 # 8000a340 <s>
    80000284:	0000ab97          	auipc	s7,0xa
    80000288:	194b8b93          	addi	s7,s7,404 # 8000a418 <uip_udp_conn>
    8000028c:	00500513          	li	a0,5
    80000290:	012bb023          	sd	s2,0(s7)
    80000294:	7e5020ef          	jal	ra,80003278 <uip_process>
    80000298:	0004d783          	lhu	a5,0(s1)
    8000029c:	00078a63          	beqz	a5,800002b0 <main+0x1e4>
    800002a0:	4f4020ef          	jal	ra,80002794 <uip_arp_out>
    800002a4:	0004d583          	lhu	a1,0(s1)
    800002a8:	00040513          	mv	a0,s0
    800002ac:	dddff0ef          	jal	ra,80000088 <juice_netcrard_send>
    800002b0:	05890913          	addi	s2,s2,88
    800002b4:	fd391ce3          	bne	s2,s3,8000028c <main+0x1c0>
    800002b8:	00810513          	addi	a0,sp,8
    800002bc:	789010ef          	jal	ra,80002244 <timer_expired>
    800002c0:	f0050ae3          	beqz	a0,800001d4 <main+0x108>
    800002c4:	00810513          	addi	a0,sp,8
    800002c8:	741010ef          	jal	ra,80002208 <timer_reset>
    800002cc:	228020ef          	jal	ra,800024f4 <uip_arp_timer>
    800002d0:	f01ff06f          	j	800001d0 <main+0x104>
    800002d4:	00eb06b3          	add	a3,s6,a4
    800002d8:	5e96c583          	lbu	a1,1513(a3) # d5e9 <_start-0x7fff2a17>
    800002dc:	008706b3          	add	a3,a4,s0
    800002e0:	00170713          	addi	a4,a4,1
    800002e4:	00b68023          	sb	a1,0(a3)
    800002e8:	f1dff06f          	j	80000204 <main+0x138>
    800002ec:	0000a797          	auipc	a5,0xa
    800002f0:	10079823          	sh	zero,272(a5) # 8000a3fc <uip_len>
    800002f4:	f29ff06f          	j	8000021c <main+0x150>
    800002f8:	00d44903          	lbu	s2,13(s0)
    800002fc:	00c44783          	lbu	a5,12(s0)
    80000300:	000a8513          	mv	a0,s5
    80000304:	00891913          	slli	s2,s2,0x8
    80000308:	00f96933          	or	s2,s2,a5
    8000030c:	1a4040ef          	jal	ra,800044b0 <htons>
    80000310:	0005051b          	sext.w	a0,a0
    80000314:	02a91463          	bne	s2,a0,8000033c <main+0x270>
    80000318:	00100513          	li	a0,1
    8000031c:	75d020ef          	jal	ra,80003278 <uip_process>
    80000320:	0004d783          	lhu	a5,0(s1)
    80000324:	ee078ce3          	beqz	a5,8000021c <main+0x150>
    80000328:	46c020ef          	jal	ra,80002794 <uip_arp_out>
    8000032c:	0004d583          	lhu	a1,0(s1)
    80000330:	00040513          	mv	a0,s0
    80000334:	d55ff0ef          	jal	ra,80000088 <juice_netcrard_send>
    80000338:	ee5ff06f          	j	8000021c <main+0x150>
    8000033c:	00d44903          	lbu	s2,13(s0)
    80000340:	00c44783          	lbu	a5,12(s0)
    80000344:	806a0513          	addi	a0,s4,-2042
    80000348:	00891913          	slli	s2,s2,0x8
    8000034c:	00f96933          	or	s2,s2,a5
    80000350:	160040ef          	jal	ra,800044b0 <htons>
    80000354:	0005051b          	sext.w	a0,a0
    80000358:	eca912e3          	bne	s2,a0,8000021c <main+0x150>
    8000035c:	264020ef          	jal	ra,800025c0 <uip_arp_arpin>
    80000360:	0004d583          	lhu	a1,0(s1)
    80000364:	ea058ce3          	beqz	a1,8000021c <main+0x150>
    80000368:	fc9ff06f          	j	80000330 <main+0x264>

000000008000036c <dhcpc_configured>:
    8000036c:	fd010113          	addi	sp,sp,-48
    80000370:	02813023          	sd	s0,32(sp)
    80000374:	00050413          	mv	s0,a0
    80000378:	03455503          	lhu	a0,52(a0)
    8000037c:	02113423          	sd	ra,40(sp)
    80000380:	00913c23          	sd	s1,24(sp)
    80000384:	01213823          	sd	s2,16(sp)
    80000388:	01313423          	sd	s3,8(sp)
    8000038c:	124040ef          	jal	ra,800044b0 <htons>
    80000390:	00050493          	mv	s1,a0
    80000394:	03445503          	lhu	a0,52(s0)
    80000398:	118040ef          	jal	ra,800044b0 <htons>
    8000039c:	00050993          	mv	s3,a0
    800003a0:	03645503          	lhu	a0,54(s0)
    800003a4:	10c040ef          	jal	ra,800044b0 <htons>
    800003a8:	00050913          	mv	s2,a0
    800003ac:	03645503          	lhu	a0,54(s0)
    800003b0:	100040ef          	jal	ra,800044b0 <htons>
    800003b4:	0089569b          	srliw	a3,s2,0x8
    800003b8:	0084d59b          	srliw	a1,s1,0x8
    800003bc:	03069693          	slli	a3,a3,0x30
    800003c0:	03059593          	slli	a1,a1,0x30
    800003c4:	0ff57713          	zext.b	a4,a0
    800003c8:	0ff9f613          	zext.b	a2,s3
    800003cc:	0306d693          	srli	a3,a3,0x30
    800003d0:	0305d593          	srli	a1,a1,0x30
    800003d4:	00009517          	auipc	a0,0x9
    800003d8:	b2450513          	addi	a0,a0,-1244 # 80008ef8 <__malloc_av_+0x858>
    800003dc:	728010ef          	jal	ra,80001b04 <printf>
    800003e0:	03845503          	lhu	a0,56(s0)
    800003e4:	0cc040ef          	jal	ra,800044b0 <htons>
    800003e8:	00050493          	mv	s1,a0
    800003ec:	03845503          	lhu	a0,56(s0)
    800003f0:	0c0040ef          	jal	ra,800044b0 <htons>
    800003f4:	00050993          	mv	s3,a0
    800003f8:	03a45503          	lhu	a0,58(s0)
    800003fc:	0b4040ef          	jal	ra,800044b0 <htons>
    80000400:	00050913          	mv	s2,a0
    80000404:	03a45503          	lhu	a0,58(s0)
    80000408:	0a8040ef          	jal	ra,800044b0 <htons>
    8000040c:	0089569b          	srliw	a3,s2,0x8
    80000410:	0084d59b          	srliw	a1,s1,0x8
    80000414:	03069693          	slli	a3,a3,0x30
    80000418:	03059593          	slli	a1,a1,0x30
    8000041c:	0ff57713          	zext.b	a4,a0
    80000420:	0ff9f613          	zext.b	a2,s3
    80000424:	0306d693          	srli	a3,a3,0x30
    80000428:	0305d593          	srli	a1,a1,0x30
    8000042c:	00009517          	auipc	a0,0x9
    80000430:	aec50513          	addi	a0,a0,-1300 # 80008f18 <__malloc_av_+0x878>
    80000434:	6d0010ef          	jal	ra,80001b04 <printf>
    80000438:	03c45503          	lhu	a0,60(s0)
    8000043c:	074040ef          	jal	ra,800044b0 <htons>
    80000440:	00050493          	mv	s1,a0
    80000444:	03c45503          	lhu	a0,60(s0)
    80000448:	068040ef          	jal	ra,800044b0 <htons>
    8000044c:	00050993          	mv	s3,a0
    80000450:	03e45503          	lhu	a0,62(s0)
    80000454:	05c040ef          	jal	ra,800044b0 <htons>
    80000458:	00050913          	mv	s2,a0
    8000045c:	03e45503          	lhu	a0,62(s0)
    80000460:	050040ef          	jal	ra,800044b0 <htons>
    80000464:	0089569b          	srliw	a3,s2,0x8
    80000468:	0084d59b          	srliw	a1,s1,0x8
    8000046c:	03069693          	slli	a3,a3,0x30
    80000470:	03059593          	slli	a1,a1,0x30
    80000474:	0ff57713          	zext.b	a4,a0
    80000478:	0ff9f613          	zext.b	a2,s3
    8000047c:	0306d693          	srli	a3,a3,0x30
    80000480:	0305d593          	srli	a1,a1,0x30
    80000484:	00009517          	auipc	a0,0x9
    80000488:	ab450513          	addi	a0,a0,-1356 # 80008f38 <__malloc_av_+0x898>
    8000048c:	678010ef          	jal	ra,80001b04 <printf>
    80000490:	04045503          	lhu	a0,64(s0)
    80000494:	01c040ef          	jal	ra,800044b0 <htons>
    80000498:	00050493          	mv	s1,a0
    8000049c:	04045503          	lhu	a0,64(s0)
    800004a0:	010040ef          	jal	ra,800044b0 <htons>
    800004a4:	00050993          	mv	s3,a0
    800004a8:	04245503          	lhu	a0,66(s0)
    800004ac:	004040ef          	jal	ra,800044b0 <htons>
    800004b0:	00050913          	mv	s2,a0
    800004b4:	04245503          	lhu	a0,66(s0)
    800004b8:	7f9030ef          	jal	ra,800044b0 <htons>
    800004bc:	0084d59b          	srliw	a1,s1,0x8
    800004c0:	0089569b          	srliw	a3,s2,0x8
    800004c4:	03069693          	slli	a3,a3,0x30
    800004c8:	03059593          	slli	a1,a1,0x30
    800004cc:	0ff57713          	zext.b	a4,a0
    800004d0:	0306d693          	srli	a3,a3,0x30
    800004d4:	0ff9f613          	zext.b	a2,s3
    800004d8:	0305d593          	srli	a1,a1,0x30
    800004dc:	00009517          	auipc	a0,0x9
    800004e0:	a7c50513          	addi	a0,a0,-1412 # 80008f58 <__malloc_av_+0x8b8>
    800004e4:	620010ef          	jal	ra,80001b04 <printf>
    800004e8:	03045503          	lhu	a0,48(s0)
    800004ec:	7c5030ef          	jal	ra,800044b0 <htons>
    800004f0:	00050493          	mv	s1,a0
    800004f4:	03245503          	lhu	a0,50(s0)
    800004f8:	01049493          	slli	s1,s1,0x10
    800004fc:	7b5030ef          	jal	ra,800044b0 <htons>
    80000500:	00a485b3          	add	a1,s1,a0
    80000504:	00009517          	auipc	a0,0x9
    80000508:	a7450513          	addi	a0,a0,-1420 # 80008f78 <__malloc_av_+0x8d8>
    8000050c:	5f8010ef          	jal	ra,80001b04 <printf>
    80000510:	03445703          	lhu	a4,52(s0)
    80000514:	0000a797          	auipc	a5,0xa
    80000518:	ee478793          	addi	a5,a5,-284 # 8000a3f8 <uip_hostaddr>
    8000051c:	00e79023          	sh	a4,0(a5)
    80000520:	03645703          	lhu	a4,54(s0)
    80000524:	00e79123          	sh	a4,2(a5)
    80000528:	03845703          	lhu	a4,56(s0)
    8000052c:	0000a797          	auipc	a5,0xa
    80000530:	ed478793          	addi	a5,a5,-300 # 8000a400 <uip_netmask>
    80000534:	00e79023          	sh	a4,0(a5)
    80000538:	03a45703          	lhu	a4,58(s0)
    8000053c:	00e79123          	sh	a4,2(a5)
    80000540:	04045703          	lhu	a4,64(s0)
    80000544:	0000a797          	auipc	a5,0xa
    80000548:	ea478793          	addi	a5,a5,-348 # 8000a3e8 <uip_draddr>
    8000054c:	00e79023          	sh	a4,0(a5)
    80000550:	04245703          	lhu	a4,66(s0)
    80000554:	00e79123          	sh	a4,2(a5)
    80000558:	0000006f          	j	80000558 <dhcpc_configured+0x1ec>

000000008000055c <_out_buffer>:
    8000055c:	00d67663          	bgeu	a2,a3,80000568 <_out_buffer+0xc>
    80000560:	00c585b3          	add	a1,a1,a2
    80000564:	00a58023          	sb	a0,0(a1)
    80000568:	00008067          	ret

000000008000056c <_out_null>:
    8000056c:	00008067          	ret

0000000080000570 <_out_rev>:
    80000570:	fa010113          	addi	sp,sp,-96
    80000574:	04913423          	sd	s1,72(sp)
    80000578:	05213023          	sd	s2,64(sp)
    8000057c:	03313c23          	sd	s3,56(sp)
    80000580:	03413823          	sd	s4,48(sp)
    80000584:	03513423          	sd	s5,40(sp)
    80000588:	03613023          	sd	s6,32(sp)
    8000058c:	01713c23          	sd	s7,24(sp)
    80000590:	01813823          	sd	s8,16(sp)
    80000594:	00078493          	mv	s1,a5
    80000598:	04113c23          	sd	ra,88(sp)
    8000059c:	04813823          	sd	s0,80(sp)
    800005a0:	01913423          	sd	s9,8(sp)
    800005a4:	01a13023          	sd	s10,0(sp)
    800005a8:	0038f793          	andi	a5,a7,3
    800005ac:	00050a93          	mv	s5,a0
    800005b0:	00058b13          	mv	s6,a1
    800005b4:	00060913          	mv	s2,a2
    800005b8:	00068b93          	mv	s7,a3
    800005bc:	00070c13          	mv	s8,a4
    800005c0:	00080993          	mv	s3,a6
    800005c4:	00088a13          	mv	s4,a7
    800005c8:	08078663          	beqz	a5,80000654 <_out_rev+0xe4>
    800005cc:	00c48433          	add	s0,s1,a2
    800005d0:	00040513          	mv	a0,s0
    800005d4:	40940633          	sub	a2,s0,s1
    800005d8:	08049663          	bnez	s1,80000664 <_out_rev+0xf4>
    800005dc:	002a7a13          	andi	s4,s4,2
    800005e0:	000a0c63          	beqz	s4,800005f8 <_out_rev+0x88>
    800005e4:	02099993          	slli	s3,s3,0x20
    800005e8:	41240433          	sub	s0,s0,s2
    800005ec:	0209d993          	srli	s3,s3,0x20
    800005f0:	00890533          	add	a0,s2,s0
    800005f4:	09346663          	bltu	s0,s3,80000680 <_out_rev+0x110>
    800005f8:	05813083          	ld	ra,88(sp)
    800005fc:	05013403          	ld	s0,80(sp)
    80000600:	04813483          	ld	s1,72(sp)
    80000604:	04013903          	ld	s2,64(sp)
    80000608:	03813983          	ld	s3,56(sp)
    8000060c:	03013a03          	ld	s4,48(sp)
    80000610:	02813a83          	ld	s5,40(sp)
    80000614:	02013b03          	ld	s6,32(sp)
    80000618:	01813b83          	ld	s7,24(sp)
    8000061c:	01013c03          	ld	s8,16(sp)
    80000620:	00813c83          	ld	s9,8(sp)
    80000624:	00013d03          	ld	s10,0(sp)
    80000628:	06010113          	addi	sp,sp,96
    8000062c:	00008067          	ret
    80000630:	000b8693          	mv	a3,s7
    80000634:	000b0593          	mv	a1,s6
    80000638:	02000513          	li	a0,32
    8000063c:	00160d13          	addi	s10,a2,1
    80000640:	000a80e7          	jalr	s5
    80000644:	000d0613          	mv	a2,s10
    80000648:	00cc87b3          	add	a5,s9,a2
    8000064c:	fe87e2e3          	bltu	a5,s0,80000630 <_out_rev+0xc0>
    80000650:	f7dff06f          	j	800005cc <_out_rev+0x5c>
    80000654:	02081413          	slli	s0,a6,0x20
    80000658:	02045413          	srli	s0,s0,0x20
    8000065c:	40c48cb3          	sub	s9,s1,a2
    80000660:	fe9ff06f          	j	80000648 <_out_rev+0xd8>
    80000664:	fff48493          	addi	s1,s1,-1
    80000668:	009c07b3          	add	a5,s8,s1
    8000066c:	0007c503          	lbu	a0,0(a5)
    80000670:	000b8693          	mv	a3,s7
    80000674:	000b0593          	mv	a1,s6
    80000678:	000a80e7          	jalr	s5
    8000067c:	f55ff06f          	j	800005d0 <_out_rev+0x60>
    80000680:	00050613          	mv	a2,a0
    80000684:	000b8693          	mv	a3,s7
    80000688:	000b0593          	mv	a1,s6
    8000068c:	02000513          	li	a0,32
    80000690:	000a80e7          	jalr	s5
    80000694:	00140413          	addi	s0,s0,1
    80000698:	f59ff06f          	j	800005f0 <_out_rev+0x80>

000000008000069c <_ntoa_long>:
    8000069c:	fc010113          	addi	sp,sp,-64
    800006a0:	02113c23          	sd	ra,56(sp)
    800006a4:	02813823          	sd	s0,48(sp)
    800006a8:	02913423          	sd	s1,40(sp)
    800006ac:	00080e13          	mv	t3,a6
    800006b0:	00088e93          	mv	t4,a7
    800006b4:	04012803          	lw	a6,64(sp)
    800006b8:	04812883          	lw	a7,72(sp)
    800006bc:	00071463          	bnez	a4,800006c4 <_ntoa_long+0x28>
    800006c0:	fef8f893          	andi	a7,a7,-17
    800006c4:	4008f393          	andi	t2,a7,1024
    800006c8:	00038463          	beqz	t2,800006d0 <_ntoa_long+0x34>
    800006cc:	04070c63          	beqz	a4,80000724 <_ntoa_long+0x88>
    800006d0:	0208ff13          	andi	t5,a7,32
    800006d4:	06100313          	li	t1,97
    800006d8:	000f0463          	beqz	t5,800006e0 <_ntoa_long+0x44>
    800006dc:	04100313          	li	t1,65
    800006e0:	00070f93          	mv	t6,a4
    800006e4:	00010293          	mv	t0,sp
    800006e8:	00000713          	li	a4,0
    800006ec:	00900493          	li	s1,9
    800006f0:	ff630f1b          	addiw	t5,t1,-10
    800006f4:	02000413          	li	s0,32
    800006f8:	03cff0b3          	remu	ra,t6,t3
    800006fc:	0ff0f313          	zext.b	t1,ra
    80000700:	0614e463          	bltu	s1,ra,80000768 <_ntoa_long+0xcc>
    80000704:	0303031b          	addiw	t1,t1,48
    80000708:	0ff37313          	zext.b	t1,t1
    8000070c:	00628023          	sb	t1,0(t0)
    80000710:	00170713          	addi	a4,a4,1
    80000714:	03cfd333          	divu	t1,t6,t3
    80000718:	01cfe663          	bltu	t6,t3,80000724 <_ntoa_long+0x88>
    8000071c:	00128293          	addi	t0,t0,1
    80000720:	04871063          	bne	a4,s0,80000760 <_ntoa_long+0xc4>
    80000724:	0028ff13          	andi	t5,a7,2
    80000728:	00088313          	mv	t1,a7
    8000072c:	060f1a63          	bnez	t5,800007a0 <_ntoa_long+0x104>
    80000730:	0018ff13          	andi	t5,a7,1
    80000734:	00080c63          	beqz	a6,8000074c <_ntoa_long+0xb0>
    80000738:	000f0a63          	beqz	t5,8000074c <_ntoa_long+0xb0>
    8000073c:	00079663          	bnez	a5,80000748 <_ntoa_long+0xac>
    80000740:	00c37313          	andi	t1,t1,12
    80000744:	00030463          	beqz	t1,8000074c <_ntoa_long+0xb0>
    80000748:	fff8081b          	addiw	a6,a6,-1
    8000074c:	020e9f93          	slli	t6,t4,0x20
    80000750:	020fdf93          	srli	t6,t6,0x20
    80000754:	02000313          	li	t1,32
    80000758:	03000293          	li	t0,48
    8000075c:	0200006f          	j	8000077c <_ntoa_long+0xe0>
    80000760:	00030f93          	mv	t6,t1
    80000764:	f95ff06f          	j	800006f8 <_ntoa_long+0x5c>
    80000768:	006f033b          	addw	t1,t5,t1
    8000076c:	f9dff06f          	j	80000708 <_ntoa_long+0x6c>
    80000770:	00e100b3          	add	ra,sp,a4
    80000774:	00508023          	sb	t0,0(ra)
    80000778:	00170713          	addi	a4,a4,1
    8000077c:	01f77463          	bgeu	a4,t6,80000784 <_ntoa_long+0xe8>
    80000780:	fe6718e3          	bne	a4,t1,80000770 <_ntoa_long+0xd4>
    80000784:	02081f93          	slli	t6,a6,0x20
    80000788:	020fdf93          	srli	t6,t6,0x20
    8000078c:	01f00313          	li	t1,31
    80000790:	03000293          	li	t0,48
    80000794:	000f0663          	beqz	t5,800007a0 <_ntoa_long+0x104>
    80000798:	01f77463          	bgeu	a4,t6,800007a0 <_ntoa_long+0x104>
    8000079c:	06e37263          	bgeu	t1,a4,80000800 <_ntoa_long+0x164>
    800007a0:	0108f313          	andi	t1,a7,16
    800007a4:	0a030c63          	beqz	t1,8000085c <_ntoa_long+0x1c0>
    800007a8:	06039663          	bnez	t2,80000814 <_ntoa_long+0x178>
    800007ac:	06070463          	beqz	a4,80000814 <_ntoa_long+0x178>
    800007b0:	020e9e93          	slli	t4,t4,0x20
    800007b4:	020ede93          	srli	t4,t4,0x20
    800007b8:	01d70863          	beq	a4,t4,800007c8 <_ntoa_long+0x12c>
    800007bc:	02081313          	slli	t1,a6,0x20
    800007c0:	02035313          	srli	t1,t1,0x20
    800007c4:	04671863          	bne	a4,t1,80000814 <_ntoa_long+0x178>
    800007c8:	fff70313          	addi	t1,a4,-1
    800007cc:	04030263          	beqz	t1,80000810 <_ntoa_long+0x174>
    800007d0:	01000e93          	li	t4,16
    800007d4:	ffe70713          	addi	a4,a4,-2
    800007d8:	05de0263          	beq	t3,t4,8000081c <_ntoa_long+0x180>
    800007dc:	00030713          	mv	a4,t1
    800007e0:	00200313          	li	t1,2
    800007e4:	046e1e63          	bne	t3,t1,80000840 <_ntoa_long+0x1a4>
    800007e8:	01f00313          	li	t1,31
    800007ec:	08e36863          	bltu	t1,a4,8000087c <_ntoa_long+0x1e0>
    800007f0:	02070313          	addi	t1,a4,32
    800007f4:	00230333          	add	t1,t1,sp
    800007f8:	06200e13          	li	t3,98
    800007fc:	03c0006f          	j	80000838 <_ntoa_long+0x19c>
    80000800:	00e100b3          	add	ra,sp,a4
    80000804:	00508023          	sb	t0,0(ra)
    80000808:	00170713          	addi	a4,a4,1
    8000080c:	f89ff06f          	j	80000794 <_ntoa_long+0xf8>
    80000810:	00000713          	li	a4,0
    80000814:	01000313          	li	t1,16
    80000818:	fc6e14e3          	bne	t3,t1,800007e0 <_ntoa_long+0x144>
    8000081c:	0208f313          	andi	t1,a7,32
    80000820:	06031e63          	bnez	t1,8000089c <_ntoa_long+0x200>
    80000824:	01f00313          	li	t1,31
    80000828:	04e36a63          	bltu	t1,a4,8000087c <_ntoa_long+0x1e0>
    8000082c:	02070313          	addi	t1,a4,32
    80000830:	00230333          	add	t1,t1,sp
    80000834:	07800e13          	li	t3,120
    80000838:	ffc30023          	sb	t3,-32(t1)
    8000083c:	00170713          	addi	a4,a4,1
    80000840:	01f00313          	li	t1,31
    80000844:	02e36c63          	bltu	t1,a4,8000087c <_ntoa_long+0x1e0>
    80000848:	02070313          	addi	t1,a4,32
    8000084c:	00230333          	add	t1,t1,sp
    80000850:	03000e13          	li	t3,48
    80000854:	ffc30023          	sb	t3,-32(t1)
    80000858:	00170713          	addi	a4,a4,1
    8000085c:	01f00313          	li	t1,31
    80000860:	00e36e63          	bltu	t1,a4,8000087c <_ntoa_long+0x1e0>
    80000864:	04078863          	beqz	a5,800008b4 <_ntoa_long+0x218>
    80000868:	02070793          	addi	a5,a4,32
    8000086c:	002787b3          	add	a5,a5,sp
    80000870:	02d00313          	li	t1,45
    80000874:	fe678023          	sb	t1,-32(a5)
    80000878:	00170713          	addi	a4,a4,1
    8000087c:	00070793          	mv	a5,a4
    80000880:	00010713          	mv	a4,sp
    80000884:	cedff0ef          	jal	ra,80000570 <_out_rev>
    80000888:	03813083          	ld	ra,56(sp)
    8000088c:	03013403          	ld	s0,48(sp)
    80000890:	02813483          	ld	s1,40(sp)
    80000894:	04010113          	addi	sp,sp,64
    80000898:	00008067          	ret
    8000089c:	01f00313          	li	t1,31
    800008a0:	fce36ee3          	bltu	t1,a4,8000087c <_ntoa_long+0x1e0>
    800008a4:	02070313          	addi	t1,a4,32
    800008a8:	00230333          	add	t1,t1,sp
    800008ac:	05800e13          	li	t3,88
    800008b0:	f89ff06f          	j	80000838 <_ntoa_long+0x19c>
    800008b4:	0048f793          	andi	a5,a7,4
    800008b8:	00078a63          	beqz	a5,800008cc <_ntoa_long+0x230>
    800008bc:	02070793          	addi	a5,a4,32
    800008c0:	002787b3          	add	a5,a5,sp
    800008c4:	02b00313          	li	t1,43
    800008c8:	fadff06f          	j	80000874 <_ntoa_long+0x1d8>
    800008cc:	0088f793          	andi	a5,a7,8
    800008d0:	fa0786e3          	beqz	a5,8000087c <_ntoa_long+0x1e0>
    800008d4:	02070793          	addi	a5,a4,32
    800008d8:	002787b3          	add	a5,a5,sp
    800008dc:	02000313          	li	t1,32
    800008e0:	f95ff06f          	j	80000874 <_ntoa_long+0x1d8>

00000000800008e4 <_etoa>:
    800008e4:	f6010113          	addi	sp,sp,-160
    800008e8:	05713c23          	sd	s7,88(sp)
    800008ec:	05813823          	sd	s8,80(sp)
    800008f0:	00050b93          	mv	s7,a0
    800008f4:	00058c13          	mv	s8,a1
    800008f8:	00070513          	mv	a0,a4
    800008fc:	00070593          	mv	a1,a4
    80000900:	08913423          	sd	s1,136(sp)
    80000904:	09213023          	sd	s2,128(sp)
    80000908:	07313c23          	sd	s3,120(sp)
    8000090c:	07613023          	sd	s6,96(sp)
    80000910:	05913423          	sd	s9,72(sp)
    80000914:	08113c23          	sd	ra,152(sp)
    80000918:	08813823          	sd	s0,144(sp)
    8000091c:	07413823          	sd	s4,112(sp)
    80000920:	07513423          	sd	s5,104(sp)
    80000924:	05a13023          	sd	s10,64(sp)
    80000928:	03b13c23          	sd	s11,56(sp)
    8000092c:	00c13823          	sd	a2,16(sp)
    80000930:	00068c93          	mv	s9,a3
    80000934:	00070993          	mv	s3,a4
    80000938:	00078913          	mv	s2,a5
    8000093c:	00080b13          	mv	s6,a6
    80000940:	00088493          	mv	s1,a7
    80000944:	1b5040ef          	jal	ra,800052f8 <__eqdf2>
    80000948:	02051663          	bnez	a0,80000974 <_etoa+0x90>
    8000094c:	00007597          	auipc	a1,0x7
    80000950:	54c5b583          	ld	a1,1356(a1) # 80007e98 <__errno+0x10>
    80000954:	00098513          	mv	a0,s3
    80000958:	225040ef          	jal	ra,8000537c <__gedf2>
    8000095c:	00a04c63          	bgtz	a0,80000974 <_etoa+0x90>
    80000960:	00007597          	auipc	a1,0x7
    80000964:	5405b583          	ld	a1,1344(a1) # 80007ea0 <__errno+0x18>
    80000968:	00098513          	mv	a0,s3
    8000096c:	2c9040ef          	jal	ra,80005434 <__ledf2>
    80000970:	06055063          	bgez	a0,800009d0 <_etoa+0xec>
    80000974:	09013403          	ld	s0,144(sp)
    80000978:	01013603          	ld	a2,16(sp)
    8000097c:	09813083          	ld	ra,152(sp)
    80000980:	07013a03          	ld	s4,112(sp)
    80000984:	06813a83          	ld	s5,104(sp)
    80000988:	04013d03          	ld	s10,64(sp)
    8000098c:	03813d83          	ld	s11,56(sp)
    80000990:	00048893          	mv	a7,s1
    80000994:	000b0813          	mv	a6,s6
    80000998:	08813483          	ld	s1,136(sp)
    8000099c:	06013b03          	ld	s6,96(sp)
    800009a0:	00090793          	mv	a5,s2
    800009a4:	00098713          	mv	a4,s3
    800009a8:	08013903          	ld	s2,128(sp)
    800009ac:	07813983          	ld	s3,120(sp)
    800009b0:	000c8693          	mv	a3,s9
    800009b4:	000c0593          	mv	a1,s8
    800009b8:	04813c83          	ld	s9,72(sp)
    800009bc:	05013c03          	ld	s8,80(sp)
    800009c0:	000b8513          	mv	a0,s7
    800009c4:	05813b83          	ld	s7,88(sp)
    800009c8:	0a010113          	addi	sp,sp,160
    800009cc:	3c00006f          	j	80000d8c <_ftoa>
    800009d0:	00000593          	li	a1,0
    800009d4:	00098513          	mv	a0,s3
    800009d8:	25d040ef          	jal	ra,80005434 <__ledf2>
    800009dc:	00098d13          	mv	s10,s3
    800009e0:	00055863          	bgez	a0,800009f0 <_etoa+0x10c>
    800009e4:	fff00713          	li	a4,-1
    800009e8:	03f71713          	slli	a4,a4,0x3f
    800009ec:	00e9cd33          	xor	s10,s3,a4
    800009f0:	4004fd93          	andi	s11,s1,1024
    800009f4:	000d9463          	bnez	s11,800009fc <_etoa+0x118>
    800009f8:	00600913          	li	s2,6
    800009fc:	034d5513          	srli	a0,s10,0x34
    80000a00:	7ff57513          	andi	a0,a0,2047
    80000a04:	c015051b          	addiw	a0,a0,-1023
    80000a08:	34c050ef          	jal	ra,80005d54 <__floatsidf>
    80000a0c:	00007597          	auipc	a1,0x7
    80000a10:	49c5b583          	ld	a1,1180(a1) # 80007ea8 <__errno+0x20>
    80000a14:	2d9040ef          	jal	ra,800054ec <__muldf3>
    80000a18:	00007597          	auipc	a1,0x7
    80000a1c:	4985b583          	ld	a1,1176(a1) # 80007eb0 <__errno+0x28>
    80000a20:	10c040ef          	jal	ra,80004b2c <__adddf3>
    80000a24:	00050413          	mv	s0,a0
    80000a28:	3ff00793          	li	a5,1023
    80000a2c:	00cd1513          	slli	a0,s10,0xc
    80000a30:	03479793          	slli	a5,a5,0x34
    80000a34:	00c55513          	srli	a0,a0,0xc
    80000a38:	00f56533          	or	a0,a0,a5
    80000a3c:	00007597          	auipc	a1,0x7
    80000a40:	47c5b583          	ld	a1,1148(a1) # 80007eb8 <__errno+0x30>
    80000a44:	61d040ef          	jal	ra,80005860 <__subdf3>
    80000a48:	00007597          	auipc	a1,0x7
    80000a4c:	4785b583          	ld	a1,1144(a1) # 80007ec0 <__errno+0x38>
    80000a50:	29d040ef          	jal	ra,800054ec <__muldf3>
    80000a54:	00050593          	mv	a1,a0
    80000a58:	00040513          	mv	a0,s0
    80000a5c:	0d0040ef          	jal	ra,80004b2c <__adddf3>
    80000a60:	290050ef          	jal	ra,80005cf0 <__fixdfsi>
    80000a64:	00050a1b          	sext.w	s4,a0
    80000a68:	000a0513          	mv	a0,s4
    80000a6c:	03412623          	sw	s4,44(sp)
    80000a70:	2e4050ef          	jal	ra,80005d54 <__floatsidf>
    80000a74:	00007597          	auipc	a1,0x7
    80000a78:	4545b583          	ld	a1,1108(a1) # 80007ec8 <__errno+0x40>
    80000a7c:	00050413          	mv	s0,a0
    80000a80:	26d040ef          	jal	ra,800054ec <__muldf3>
    80000a84:	00007597          	auipc	a1,0x7
    80000a88:	44c5b583          	ld	a1,1100(a1) # 80007ed0 <__errno+0x48>
    80000a8c:	0a0040ef          	jal	ra,80004b2c <__adddf3>
    80000a90:	260050ef          	jal	ra,80005cf0 <__fixdfsi>
    80000a94:	0005079b          	sext.w	a5,a0
    80000a98:	00007597          	auipc	a1,0x7
    80000a9c:	4405b583          	ld	a1,1088(a1) # 80007ed8 <__errno+0x50>
    80000aa0:	00040513          	mv	a0,s0
    80000aa4:	00078a93          	mv	s5,a5
    80000aa8:	00f13c23          	sd	a5,24(sp)
    80000aac:	241040ef          	jal	ra,800054ec <__muldf3>
    80000ab0:	01813783          	ld	a5,24(sp)
    80000ab4:	00050413          	mv	s0,a0
    80000ab8:	00078513          	mv	a0,a5
    80000abc:	298050ef          	jal	ra,80005d54 <__floatsidf>
    80000ac0:	00007597          	auipc	a1,0x7
    80000ac4:	4205b583          	ld	a1,1056(a1) # 80007ee0 <__errno+0x58>
    80000ac8:	225040ef          	jal	ra,800054ec <__muldf3>
    80000acc:	00050593          	mv	a1,a0
    80000ad0:	00040513          	mv	a0,s0
    80000ad4:	58d040ef          	jal	ra,80005860 <__subdf3>
    80000ad8:	00050593          	mv	a1,a0
    80000adc:	00a13c23          	sd	a0,24(sp)
    80000ae0:	20d040ef          	jal	ra,800054ec <__muldf3>
    80000ae4:	01813783          	ld	a5,24(sp)
    80000ae8:	00050413          	mv	s0,a0
    80000aec:	00078593          	mv	a1,a5
    80000af0:	00078513          	mv	a0,a5
    80000af4:	02f13023          	sd	a5,32(sp)
    80000af8:	034040ef          	jal	ra,80004b2c <__adddf3>
    80000afc:	00007597          	auipc	a1,0x7
    80000b00:	3ec5b583          	ld	a1,1004(a1) # 80007ee8 <__errno+0x60>
    80000b04:	00a13c23          	sd	a0,24(sp)
    80000b08:	00040513          	mv	a0,s0
    80000b0c:	498040ef          	jal	ra,80004fa4 <__divdf3>
    80000b10:	00007597          	auipc	a1,0x7
    80000b14:	3e05b583          	ld	a1,992(a1) # 80007ef0 <__errno+0x68>
    80000b18:	014040ef          	jal	ra,80004b2c <__adddf3>
    80000b1c:	00050593          	mv	a1,a0
    80000b20:	00040513          	mv	a0,s0
    80000b24:	480040ef          	jal	ra,80004fa4 <__divdf3>
    80000b28:	00007597          	auipc	a1,0x7
    80000b2c:	3d05b583          	ld	a1,976(a1) # 80007ef8 <__errno+0x70>
    80000b30:	7fd030ef          	jal	ra,80004b2c <__adddf3>
    80000b34:	00050593          	mv	a1,a0
    80000b38:	00040513          	mv	a0,s0
    80000b3c:	468040ef          	jal	ra,80004fa4 <__divdf3>
    80000b40:	02013783          	ld	a5,32(sp)
    80000b44:	00050413          	mv	s0,a0
    80000b48:	00007517          	auipc	a0,0x7
    80000b4c:	3b853503          	ld	a0,952(a0) # 80007f00 <__errno+0x78>
    80000b50:	00078593          	mv	a1,a5
    80000b54:	50d040ef          	jal	ra,80005860 <__subdf3>
    80000b58:	00050593          	mv	a1,a0
    80000b5c:	00040513          	mv	a0,s0
    80000b60:	7cd030ef          	jal	ra,80004b2c <__adddf3>
    80000b64:	01813603          	ld	a2,24(sp)
    80000b68:	00050593          	mv	a1,a0
    80000b6c:	00060513          	mv	a0,a2
    80000b70:	434040ef          	jal	ra,80004fa4 <__divdf3>
    80000b74:	00007597          	auipc	a1,0x7
    80000b78:	3945b583          	ld	a1,916(a1) # 80007f08 <__errno+0x80>
    80000b7c:	7b1030ef          	jal	ra,80004b2c <__adddf3>
    80000b80:	3ffa859b          	addiw	a1,s5,1023
    80000b84:	03459593          	slli	a1,a1,0x34
    80000b88:	165040ef          	jal	ra,800054ec <__muldf3>
    80000b8c:	000d0593          	mv	a1,s10
    80000b90:	00050a93          	mv	s5,a0
    80000b94:	7e8040ef          	jal	ra,8000537c <__gedf2>
    80000b98:	00a05e63          	blez	a0,80000bb4 <_etoa+0x2d0>
    80000b9c:	000a8513          	mv	a0,s5
    80000ba0:	00007597          	auipc	a1,0x7
    80000ba4:	3505b583          	ld	a1,848(a1) # 80007ef0 <__errno+0x68>
    80000ba8:	3fc040ef          	jal	ra,80004fa4 <__divdf3>
    80000bac:	fffa0a1b          	addiw	s4,s4,-1
    80000bb0:	00050a93          	mv	s5,a0
    80000bb4:	0c600793          	li	a5,198
    80000bb8:	063a041b          	addiw	s0,s4,99
    80000bbc:	0087b433          	sltu	s0,a5,s0
    80000bc0:	00b4d793          	srli	a5,s1,0xb
    80000bc4:	0017f793          	andi	a5,a5,1
    80000bc8:	00440413          	addi	s0,s0,4
    80000bcc:	04078663          	beqz	a5,80000c18 <_etoa+0x334>
    80000bd0:	00007597          	auipc	a1,0x7
    80000bd4:	3405b583          	ld	a1,832(a1) # 80007f10 <__errno+0x88>
    80000bd8:	000d0513          	mv	a0,s10
    80000bdc:	7a0040ef          	jal	ra,8000537c <__gedf2>
    80000be0:	18054263          	bltz	a0,80000d64 <_etoa+0x480>
    80000be4:	00007597          	auipc	a1,0x7
    80000be8:	3345b583          	ld	a1,820(a1) # 80007f18 <__errno+0x90>
    80000bec:	000d0513          	mv	a0,s10
    80000bf0:	045040ef          	jal	ra,80005434 <__ledf2>
    80000bf4:	16055863          	bgez	a0,80000d64 <_etoa+0x480>
    80000bf8:	0009079b          	sext.w	a5,s2
    80000bfc:	00000913          	li	s2,0
    80000c00:	00fa5663          	bge	s4,a5,80000c0c <_etoa+0x328>
    80000c04:	414787bb          	subw	a5,a5,s4
    80000c08:	fff7891b          	addiw	s2,a5,-1
    80000c0c:	4004e493          	ori	s1,s1,1024
    80000c10:	00000413          	li	s0,0
    80000c14:	00000a13          	li	s4,0
    80000c18:	00000813          	li	a6,0
    80000c1c:	01647463          	bgeu	s0,s6,80000c24 <_etoa+0x340>
    80000c20:	408b083b          	subw	a6,s6,s0
    80000c24:	0024fd93          	andi	s11,s1,2
    80000c28:	000d8663          	beqz	s11,80000c34 <_etoa+0x350>
    80000c2c:	00040463          	beqz	s0,80000c34 <_etoa+0x350>
    80000c30:	00000813          	li	a6,0
    80000c34:	000a0e63          	beqz	s4,80000c50 <_etoa+0x36c>
    80000c38:	000d0513          	mv	a0,s10
    80000c3c:	000a8593          	mv	a1,s5
    80000c40:	01013c23          	sd	a6,24(sp)
    80000c44:	360040ef          	jal	ra,80004fa4 <__divdf3>
    80000c48:	01813803          	ld	a6,24(sp)
    80000c4c:	00050d13          	mv	s10,a0
    80000c50:	00000593          	li	a1,0
    80000c54:	00098513          	mv	a0,s3
    80000c58:	01013c23          	sd	a6,24(sp)
    80000c5c:	7d8040ef          	jal	ra,80005434 <__ledf2>
    80000c60:	01813803          	ld	a6,24(sp)
    80000c64:	00055863          	bgez	a0,80000c74 <_etoa+0x390>
    80000c68:	fff00793          	li	a5,-1
    80000c6c:	03f79793          	slli	a5,a5,0x3f
    80000c70:	01a7cd33          	xor	s10,a5,s10
    80000c74:	01013603          	ld	a2,16(sp)
    80000c78:	fffff8b7          	lui	a7,0xfffff
    80000c7c:	7ff88893          	addi	a7,a7,2047 # fffffffffffff7ff <__stack_end+0xffffffff7feff7ff>
    80000c80:	0114f8b3          	and	a7,s1,a7
    80000c84:	00090793          	mv	a5,s2
    80000c88:	000d0713          	mv	a4,s10
    80000c8c:	000c8693          	mv	a3,s9
    80000c90:	000c0593          	mv	a1,s8
    80000c94:	000b8513          	mv	a0,s7
    80000c98:	0f4000ef          	jal	ra,80000d8c <_ftoa>
    80000c9c:	00050613          	mv	a2,a0
    80000ca0:	08040263          	beqz	s0,80000d24 <_etoa+0x440>
    80000ca4:	0204f493          	andi	s1,s1,32
    80000ca8:	04500513          	li	a0,69
    80000cac:	00049463          	bnez	s1,80000cb4 <_etoa+0x3d0>
    80000cb0:	06500513          	li	a0,101
    80000cb4:	000c8693          	mv	a3,s9
    80000cb8:	000c0593          	mv	a1,s8
    80000cbc:	00160493          	addi	s1,a2,1
    80000cc0:	000b80e7          	jalr	s7
    80000cc4:	41fa571b          	sraiw	a4,s4,0x1f
    80000cc8:	00ea46b3          	xor	a3,s4,a4
    80000ccc:	00500793          	li	a5,5
    80000cd0:	fff4041b          	addiw	s0,s0,-1
    80000cd4:	00f13423          	sd	a5,8(sp)
    80000cd8:	40e6873b          	subw	a4,a3,a4
    80000cdc:	00048613          	mv	a2,s1
    80000ce0:	00813023          	sd	s0,0(sp)
    80000ce4:	00000893          	li	a7,0
    80000ce8:	00a00813          	li	a6,10
    80000cec:	01fa579b          	srliw	a5,s4,0x1f
    80000cf0:	000c8693          	mv	a3,s9
    80000cf4:	000c0593          	mv	a1,s8
    80000cf8:	000b8513          	mv	a0,s7
    80000cfc:	9a1ff0ef          	jal	ra,8000069c <_ntoa_long>
    80000d00:	00050613          	mv	a2,a0
    80000d04:	020d8063          	beqz	s11,80000d24 <_etoa+0x440>
    80000d08:	01013783          	ld	a5,16(sp)
    80000d0c:	020b1b13          	slli	s6,s6,0x20
    80000d10:	020b5b13          	srli	s6,s6,0x20
    80000d14:	40f50433          	sub	s0,a0,a5
    80000d18:	01013783          	ld	a5,16(sp)
    80000d1c:	00878633          	add	a2,a5,s0
    80000d20:	05646a63          	bltu	s0,s6,80000d74 <_etoa+0x490>
    80000d24:	09813083          	ld	ra,152(sp)
    80000d28:	09013403          	ld	s0,144(sp)
    80000d2c:	08813483          	ld	s1,136(sp)
    80000d30:	08013903          	ld	s2,128(sp)
    80000d34:	07813983          	ld	s3,120(sp)
    80000d38:	07013a03          	ld	s4,112(sp)
    80000d3c:	06813a83          	ld	s5,104(sp)
    80000d40:	06013b03          	ld	s6,96(sp)
    80000d44:	05813b83          	ld	s7,88(sp)
    80000d48:	05013c03          	ld	s8,80(sp)
    80000d4c:	04813c83          	ld	s9,72(sp)
    80000d50:	04013d03          	ld	s10,64(sp)
    80000d54:	03813d83          	ld	s11,56(sp)
    80000d58:	00060513          	mv	a0,a2
    80000d5c:	0a010113          	addi	sp,sp,160
    80000d60:	00008067          	ret
    80000d64:	ea090ae3          	beqz	s2,80000c18 <_etoa+0x334>
    80000d68:	ea0d88e3          	beqz	s11,80000c18 <_etoa+0x334>
    80000d6c:	fff9091b          	addiw	s2,s2,-1
    80000d70:	ea9ff06f          	j	80000c18 <_etoa+0x334>
    80000d74:	000c8693          	mv	a3,s9
    80000d78:	000c0593          	mv	a1,s8
    80000d7c:	02000513          	li	a0,32
    80000d80:	000b80e7          	jalr	s7
    80000d84:	00140413          	addi	s0,s0,1
    80000d88:	f91ff06f          	j	80000d18 <_etoa+0x434>

0000000080000d8c <_ftoa>:
    80000d8c:	f5010113          	addi	sp,sp,-176
    80000d90:	09413023          	sd	s4,128(sp)
    80000d94:	07513c23          	sd	s5,120(sp)
    80000d98:	00050a13          	mv	s4,a0
    80000d9c:	00058a93          	mv	s5,a1
    80000da0:	00070513          	mv	a0,a4
    80000da4:	00070593          	mv	a1,a4
    80000da8:	0a813023          	sd	s0,160(sp)
    80000dac:	08913c23          	sd	s1,152(sp)
    80000db0:	09213823          	sd	s2,144(sp)
    80000db4:	09313423          	sd	s3,136(sp)
    80000db8:	07613823          	sd	s6,112(sp)
    80000dbc:	07713423          	sd	s7,104(sp)
    80000dc0:	0a113423          	sd	ra,168(sp)
    80000dc4:	07813023          	sd	s8,96(sp)
    80000dc8:	05913c23          	sd	s9,88(sp)
    80000dcc:	05a13823          	sd	s10,80(sp)
    80000dd0:	05b13423          	sd	s11,72(sp)
    80000dd4:	00060b13          	mv	s6,a2
    80000dd8:	00068b93          	mv	s7,a3
    80000ddc:	00070413          	mv	s0,a4
    80000de0:	00078493          	mv	s1,a5
    80000de4:	00080993          	mv	s3,a6
    80000de8:	00088913          	mv	s2,a7
    80000dec:	50c040ef          	jal	ra,800052f8 <__eqdf2>
    80000df0:	06050263          	beqz	a0,80000e54 <_ftoa+0xc8>
    80000df4:	00090893          	mv	a7,s2
    80000df8:	00098813          	mv	a6,s3
    80000dfc:	00300793          	li	a5,3
    80000e00:	00008717          	auipc	a4,0x8
    80000e04:	1a870713          	addi	a4,a4,424 # 80008fa8 <__malloc_av_+0x908>
    80000e08:	0a013403          	ld	s0,160(sp)
    80000e0c:	0a813083          	ld	ra,168(sp)
    80000e10:	09813483          	ld	s1,152(sp)
    80000e14:	09013903          	ld	s2,144(sp)
    80000e18:	08813983          	ld	s3,136(sp)
    80000e1c:	06013c03          	ld	s8,96(sp)
    80000e20:	05813c83          	ld	s9,88(sp)
    80000e24:	05013d03          	ld	s10,80(sp)
    80000e28:	04813d83          	ld	s11,72(sp)
    80000e2c:	000b8693          	mv	a3,s7
    80000e30:	000b0613          	mv	a2,s6
    80000e34:	06813b83          	ld	s7,104(sp)
    80000e38:	07013b03          	ld	s6,112(sp)
    80000e3c:	000a8593          	mv	a1,s5
    80000e40:	000a0513          	mv	a0,s4
    80000e44:	07813a83          	ld	s5,120(sp)
    80000e48:	08013a03          	ld	s4,128(sp)
    80000e4c:	0b010113          	addi	sp,sp,176
    80000e50:	f20ff06f          	j	80000570 <_out_rev>
    80000e54:	00007597          	auipc	a1,0x7
    80000e58:	04c5b583          	ld	a1,76(a1) # 80007ea0 <__errno+0x18>
    80000e5c:	00040513          	mv	a0,s0
    80000e60:	5d4040ef          	jal	ra,80005434 <__ledf2>
    80000e64:	00055e63          	bgez	a0,80000e80 <_ftoa+0xf4>
    80000e68:	00090893          	mv	a7,s2
    80000e6c:	00098813          	mv	a6,s3
    80000e70:	00400793          	li	a5,4
    80000e74:	00008717          	auipc	a4,0x8
    80000e78:	13c70713          	addi	a4,a4,316 # 80008fb0 <__malloc_av_+0x910>
    80000e7c:	f8dff06f          	j	80000e08 <_ftoa+0x7c>
    80000e80:	00007597          	auipc	a1,0x7
    80000e84:	0185b583          	ld	a1,24(a1) # 80007e98 <__errno+0x10>
    80000e88:	00040513          	mv	a0,s0
    80000e8c:	4f0040ef          	jal	ra,8000537c <__gedf2>
    80000e90:	02a05a63          	blez	a0,80000ec4 <_ftoa+0x138>
    80000e94:	00497793          	andi	a5,s2,4
    80000e98:	00078e63          	beqz	a5,80000eb4 <_ftoa+0x128>
    80000e9c:	00008717          	auipc	a4,0x8
    80000ea0:	0fc70713          	addi	a4,a4,252 # 80008f98 <__malloc_av_+0x8f8>
    80000ea4:	00400793          	li	a5,4
    80000ea8:	00090893          	mv	a7,s2
    80000eac:	00098813          	mv	a6,s3
    80000eb0:	f59ff06f          	j	80000e08 <_ftoa+0x7c>
    80000eb4:	00008717          	auipc	a4,0x8
    80000eb8:	0ec70713          	addi	a4,a4,236 # 80008fa0 <__malloc_av_+0x900>
    80000ebc:	00300793          	li	a5,3
    80000ec0:	fe9ff06f          	j	80000ea8 <_ftoa+0x11c>
    80000ec4:	00007597          	auipc	a1,0x7
    80000ec8:	05c5b583          	ld	a1,92(a1) # 80007f20 <__errno+0x98>
    80000ecc:	00040513          	mv	a0,s0
    80000ed0:	4ac040ef          	jal	ra,8000537c <__gedf2>
    80000ed4:	00a04c63          	bgtz	a0,80000eec <_ftoa+0x160>
    80000ed8:	00007597          	auipc	a1,0x7
    80000edc:	0505b583          	ld	a1,80(a1) # 80007f28 <__errno+0xa0>
    80000ee0:	00040513          	mv	a0,s0
    80000ee4:	550040ef          	jal	ra,80005434 <__ledf2>
    80000ee8:	06055063          	bgez	a0,80000f48 <_ftoa+0x1bc>
    80000eec:	00040713          	mv	a4,s0
    80000ef0:	0a013403          	ld	s0,160(sp)
    80000ef4:	0a813083          	ld	ra,168(sp)
    80000ef8:	06013c03          	ld	s8,96(sp)
    80000efc:	05813c83          	ld	s9,88(sp)
    80000f00:	05013d03          	ld	s10,80(sp)
    80000f04:	04813d83          	ld	s11,72(sp)
    80000f08:	00090893          	mv	a7,s2
    80000f0c:	00098813          	mv	a6,s3
    80000f10:	09013903          	ld	s2,144(sp)
    80000f14:	08813983          	ld	s3,136(sp)
    80000f18:	00048793          	mv	a5,s1
    80000f1c:	000b8693          	mv	a3,s7
    80000f20:	09813483          	ld	s1,152(sp)
    80000f24:	06813b83          	ld	s7,104(sp)
    80000f28:	000b0613          	mv	a2,s6
    80000f2c:	000a8593          	mv	a1,s5
    80000f30:	07013b03          	ld	s6,112(sp)
    80000f34:	07813a83          	ld	s5,120(sp)
    80000f38:	000a0513          	mv	a0,s4
    80000f3c:	08013a03          	ld	s4,128(sp)
    80000f40:	0b010113          	addi	sp,sp,176
    80000f44:	9a1ff06f          	j	800008e4 <_etoa>
    80000f48:	00000593          	li	a1,0
    80000f4c:	00040513          	mv	a0,s0
    80000f50:	4e4040ef          	jal	ra,80005434 <__ledf2>
    80000f54:	12055a63          	bgez	a0,80001088 <_ftoa+0x2fc>
    80000f58:	00040593          	mv	a1,s0
    80000f5c:	00000513          	li	a0,0
    80000f60:	101040ef          	jal	ra,80005860 <__subdf3>
    80000f64:	00100793          	li	a5,1
    80000f68:	00050413          	mv	s0,a0
    80000f6c:	00f13023          	sd	a5,0(sp)
    80000f70:	40097793          	andi	a5,s2,1024
    80000f74:	10078e63          	beqz	a5,80001090 <_ftoa+0x304>
    80000f78:	00000c93          	li	s9,0
    80000f7c:	00900713          	li	a4,9
    80000f80:	03000693          	li	a3,48
    80000f84:	02000613          	li	a2,32
    80000f88:	00977e63          	bgeu	a4,s1,80000fa4 <_ftoa+0x218>
    80000f8c:	020c8793          	addi	a5,s9,32
    80000f90:	002785b3          	add	a1,a5,sp
    80000f94:	00d58023          	sb	a3,0(a1)
    80000f98:	001c8c93          	addi	s9,s9,1
    80000f9c:	fff4849b          	addiw	s1,s1,-1
    80000fa0:	fecc94e3          	bne	s9,a2,80000f88 <_ftoa+0x1fc>
    80000fa4:	00040513          	mv	a0,s0
    80000fa8:	549040ef          	jal	ra,80005cf0 <__fixdfsi>
    80000fac:	02049713          	slli	a4,s1,0x20
    80000fb0:	01d75613          	srli	a2,a4,0x1d
    80000fb4:	00008717          	auipc	a4,0x8
    80000fb8:	04470713          	addi	a4,a4,68 # 80008ff8 <pow10.0>
    80000fbc:	00c70733          	add	a4,a4,a2
    80000fc0:	00073783          	ld	a5,0(a4)
    80000fc4:	00050d9b          	sext.w	s11,a0
    80000fc8:	00a12a23          	sw	a0,20(sp)
    80000fcc:	000d8513          	mv	a0,s11
    80000fd0:	00f13423          	sd	a5,8(sp)
    80000fd4:	581040ef          	jal	ra,80005d54 <__floatsidf>
    80000fd8:	00050593          	mv	a1,a0
    80000fdc:	00040513          	mv	a0,s0
    80000fe0:	081040ef          	jal	ra,80005860 <__subdf3>
    80000fe4:	00813583          	ld	a1,8(sp)
    80000fe8:	504040ef          	jal	ra,800054ec <__muldf3>
    80000fec:	00050c13          	mv	s8,a0
    80000ff0:	5e5040ef          	jal	ra,80005dd4 <__fixunsdfdi>
    80000ff4:	00050d13          	mv	s10,a0
    80000ff8:	649040ef          	jal	ra,80005e40 <__floatundidf>
    80000ffc:	00050593          	mv	a1,a0
    80001000:	000c0513          	mv	a0,s8
    80001004:	05d040ef          	jal	ra,80005860 <__subdf3>
    80001008:	00007c17          	auipc	s8,0x7
    8000100c:	ec8c3c03          	ld	s8,-312(s8) # 80007ed0 <__errno+0x48>
    80001010:	000c0593          	mv	a1,s8
    80001014:	00a13c23          	sd	a0,24(sp)
    80001018:	364040ef          	jal	ra,8000537c <__gedf2>
    8000101c:	01813603          	ld	a2,24(sp)
    80001020:	06a05c63          	blez	a0,80001098 <_ftoa+0x30c>
    80001024:	001d0d13          	addi	s10,s10,1
    80001028:	000d0513          	mv	a0,s10
    8000102c:	615040ef          	jal	ra,80005e40 <__floatundidf>
    80001030:	00050593          	mv	a1,a0
    80001034:	00813503          	ld	a0,8(sp)
    80001038:	3fc040ef          	jal	ra,80005434 <__ledf2>
    8000103c:	00a04663          	bgtz	a0,80001048 <_ftoa+0x2bc>
    80001040:	001d8d9b          	addiw	s11,s11,1
    80001044:	00000d13          	li	s10,0
    80001048:	06048a63          	beqz	s1,800010bc <_ftoa+0x330>
    8000104c:	02000513          	li	a0,32
    80001050:	00a00593          	li	a1,10
    80001054:	00900813          	li	a6,9
    80001058:	0aac8263          	beq	s9,a0,800010fc <_ftoa+0x370>
    8000105c:	02bd7633          	remu	a2,s10,a1
    80001060:	001c8c93          	addi	s9,s9,1
    80001064:	020c8793          	addi	a5,s9,32
    80001068:	002788b3          	add	a7,a5,sp
    8000106c:	fff4849b          	addiw	s1,s1,-1
    80001070:	0306061b          	addiw	a2,a2,48
    80001074:	fec88fa3          	sb	a2,-1(a7)
    80001078:	02bd5633          	divu	a2,s10,a1
    8000107c:	13a87063          	bgeu	a6,s10,8000119c <_ftoa+0x410>
    80001080:	00060d13          	mv	s10,a2
    80001084:	fd5ff06f          	j	80001058 <_ftoa+0x2cc>
    80001088:	00013023          	sd	zero,0(sp)
    8000108c:	ee5ff06f          	j	80000f70 <_ftoa+0x1e4>
    80001090:	00600493          	li	s1,6
    80001094:	ee5ff06f          	j	80000f78 <_ftoa+0x1ec>
    80001098:	000c0593          	mv	a1,s8
    8000109c:	00060513          	mv	a0,a2
    800010a0:	394040ef          	jal	ra,80005434 <__ledf2>
    800010a4:	fa0542e3          	bltz	a0,80001048 <_ftoa+0x2bc>
    800010a8:	000d0663          	beqz	s10,800010b4 <_ftoa+0x328>
    800010ac:	001d7613          	andi	a2,s10,1
    800010b0:	f8060ce3          	beqz	a2,80001048 <_ftoa+0x2bc>
    800010b4:	001d0d13          	addi	s10,s10,1
    800010b8:	f91ff06f          	j	80001048 <_ftoa+0x2bc>
    800010bc:	000d8513          	mv	a0,s11
    800010c0:	495040ef          	jal	ra,80005d54 <__floatsidf>
    800010c4:	00050593          	mv	a1,a0
    800010c8:	00040513          	mv	a0,s0
    800010cc:	794040ef          	jal	ra,80005860 <__subdf3>
    800010d0:	000c0593          	mv	a1,s8
    800010d4:	00050413          	mv	s0,a0
    800010d8:	35c040ef          	jal	ra,80005434 <__ledf2>
    800010dc:	00055a63          	bgez	a0,800010f0 <_ftoa+0x364>
    800010e0:	000c0593          	mv	a1,s8
    800010e4:	00040513          	mv	a0,s0
    800010e8:	294040ef          	jal	ra,8000537c <__gedf2>
    800010ec:	00a05863          	blez	a0,800010fc <_ftoa+0x370>
    800010f0:	001df713          	andi	a4,s11,1
    800010f4:	00070463          	beqz	a4,800010fc <_ftoa+0x370>
    800010f8:	001d8d9b          	addiw	s11,s11,1
    800010fc:	02000593          	li	a1,32
    80001100:	00a00613          	li	a2,10
    80001104:	02bc8263          	beq	s9,a1,80001128 <_ftoa+0x39c>
    80001108:	02cde73b          	remw	a4,s11,a2
    8000110c:	001c8c93          	addi	s9,s9,1
    80001110:	020c8793          	addi	a5,s9,32
    80001114:	00278533          	add	a0,a5,sp
    80001118:	02cdcdbb          	divw	s11,s11,a2
    8000111c:	0307071b          	addiw	a4,a4,48
    80001120:	fee50fa3          	sb	a4,-1(a0)
    80001124:	fe0d90e3          	bnez	s11,80001104 <_ftoa+0x378>
    80001128:	00397713          	andi	a4,s2,3
    8000112c:	00100693          	li	a3,1
    80001130:	10d71063          	bne	a4,a3,80001230 <_ftoa+0x4a4>
    80001134:	0e098e63          	beqz	s3,80001230 <_ftoa+0x4a4>
    80001138:	00013783          	ld	a5,0(sp)
    8000113c:	00079663          	bnez	a5,80001148 <_ftoa+0x3bc>
    80001140:	00c97713          	andi	a4,s2,12
    80001144:	00070463          	beqz	a4,8000114c <_ftoa+0x3c0>
    80001148:	fff9899b          	addiw	s3,s3,-1
    8000114c:	02099693          	slli	a3,s3,0x20
    80001150:	0206d693          	srli	a3,a3,0x20
    80001154:	02000713          	li	a4,32
    80001158:	03000613          	li	a2,48
    8000115c:	06c0006f          	j	800011c8 <_ftoa+0x43c>
    80001160:	02070713          	addi	a4,a4,32
    80001164:	00270733          	add	a4,a4,sp
    80001168:	00a70023          	sb	a0,0(a4)
    8000116c:	00078713          	mv	a4,a5
    80001170:	04b70063          	beq	a4,a1,800011b0 <_ftoa+0x424>
    80001174:	0007061b          	sext.w	a2,a4
    80001178:	00170793          	addi	a5,a4,1
    8000117c:	fec492e3          	bne	s1,a2,80001160 <_ftoa+0x3d4>
    80001180:	02070713          	addi	a4,a4,32
    80001184:	02010693          	addi	a3,sp,32
    80001188:	00d70733          	add	a4,a4,a3
    8000118c:	02e00613          	li	a2,46
    80001190:	fec70023          	sb	a2,-32(a4)
    80001194:	00078c93          	mv	s9,a5
    80001198:	f65ff06f          	j	800010fc <_ftoa+0x370>
    8000119c:	000c8713          	mv	a4,s9
    800011a0:	02000593          	li	a1,32
    800011a4:	009c84bb          	addw	s1,s9,s1
    800011a8:	03000513          	li	a0,48
    800011ac:	fc5ff06f          	j	80001170 <_ftoa+0x3e4>
    800011b0:	02000c93          	li	s9,32
    800011b4:	f49ff06f          	j	800010fc <_ftoa+0x370>
    800011b8:	020c8793          	addi	a5,s9,32
    800011bc:	002785b3          	add	a1,a5,sp
    800011c0:	00c58023          	sb	a2,0(a1)
    800011c4:	001c8c93          	addi	s9,s9,1
    800011c8:	06dcf463          	bgeu	s9,a3,80001230 <_ftoa+0x4a4>
    800011cc:	feec96e3          	bne	s9,a4,800011b8 <_ftoa+0x42c>
    800011d0:	00090893          	mv	a7,s2
    800011d4:	00098813          	mv	a6,s3
    800011d8:	000c8793          	mv	a5,s9
    800011dc:	02010713          	addi	a4,sp,32
    800011e0:	000b8693          	mv	a3,s7
    800011e4:	000b0613          	mv	a2,s6
    800011e8:	000a8593          	mv	a1,s5
    800011ec:	000a0513          	mv	a0,s4
    800011f0:	b80ff0ef          	jal	ra,80000570 <_out_rev>
    800011f4:	0a813083          	ld	ra,168(sp)
    800011f8:	0a013403          	ld	s0,160(sp)
    800011fc:	09813483          	ld	s1,152(sp)
    80001200:	09013903          	ld	s2,144(sp)
    80001204:	08813983          	ld	s3,136(sp)
    80001208:	08013a03          	ld	s4,128(sp)
    8000120c:	07813a83          	ld	s5,120(sp)
    80001210:	07013b03          	ld	s6,112(sp)
    80001214:	06813b83          	ld	s7,104(sp)
    80001218:	06013c03          	ld	s8,96(sp)
    8000121c:	05813c83          	ld	s9,88(sp)
    80001220:	05013d03          	ld	s10,80(sp)
    80001224:	04813d83          	ld	s11,72(sp)
    80001228:	0b010113          	addi	sp,sp,176
    8000122c:	00008067          	ret
    80001230:	02000713          	li	a4,32
    80001234:	f8ec8ee3          	beq	s9,a4,800011d0 <_ftoa+0x444>
    80001238:	00013783          	ld	a5,0(sp)
    8000123c:	02078063          	beqz	a5,8000125c <_ftoa+0x4d0>
    80001240:	020c8793          	addi	a5,s9,32
    80001244:	02010713          	addi	a4,sp,32
    80001248:	00e78733          	add	a4,a5,a4
    8000124c:	02d00693          	li	a3,45
    80001250:	fed70023          	sb	a3,-32(a4)
    80001254:	001c8c93          	addi	s9,s9,1
    80001258:	f79ff06f          	j	800011d0 <_ftoa+0x444>
    8000125c:	00497693          	andi	a3,s2,4
    80001260:	00068c63          	beqz	a3,80001278 <_ftoa+0x4ec>
    80001264:	020c8793          	addi	a5,s9,32
    80001268:	02010713          	addi	a4,sp,32
    8000126c:	00e78733          	add	a4,a5,a4
    80001270:	02b00693          	li	a3,43
    80001274:	fddff06f          	j	80001250 <_ftoa+0x4c4>
    80001278:	00897693          	andi	a3,s2,8
    8000127c:	f4068ae3          	beqz	a3,800011d0 <_ftoa+0x444>
    80001280:	020c8793          	addi	a5,s9,32
    80001284:	02010693          	addi	a3,sp,32
    80001288:	00d786b3          	add	a3,a5,a3
    8000128c:	fee68023          	sb	a4,-32(a3)
    80001290:	fc5ff06f          	j	80001254 <_ftoa+0x4c8>

0000000080001294 <_out_char>:
    80001294:	00050463          	beqz	a0,8000129c <_out_char+0x8>
    80001298:	de5fe06f          	j	8000007c <_putchar>
    8000129c:	00008067          	ret

00000000800012a0 <_out_fct>:
    800012a0:	00050863          	beqz	a0,800012b0 <_out_fct+0x10>
    800012a4:	0005b783          	ld	a5,0(a1)
    800012a8:	0085b583          	ld	a1,8(a1)
    800012ac:	00078067          	jr	a5
    800012b0:	00008067          	ret

00000000800012b4 <_vsnprintf>:
    800012b4:	f5010113          	addi	sp,sp,-176
    800012b8:	09213823          	sd	s2,144(sp)
    800012bc:	09313423          	sd	s3,136(sp)
    800012c0:	09413023          	sd	s4,128(sp)
    800012c4:	07813023          	sd	s8,96(sp)
    800012c8:	05913c23          	sd	s9,88(sp)
    800012cc:	0a113423          	sd	ra,168(sp)
    800012d0:	0a813023          	sd	s0,160(sp)
    800012d4:	08913c23          	sd	s1,152(sp)
    800012d8:	07513c23          	sd	s5,120(sp)
    800012dc:	07613823          	sd	s6,112(sp)
    800012e0:	07713423          	sd	s7,104(sp)
    800012e4:	05a13823          	sd	s10,80(sp)
    800012e8:	05b13423          	sd	s11,72(sp)
    800012ec:	00058c13          	mv	s8,a1
    800012f0:	00060993          	mv	s3,a2
    800012f4:	00068913          	mv	s2,a3
    800012f8:	00070c93          	mv	s9,a4
    800012fc:	fffffa17          	auipc	s4,0xfffff
    80001300:	270a0a13          	addi	s4,s4,624 # 8000056c <_out_null>
    80001304:	00058463          	beqz	a1,8000130c <_vsnprintf+0x58>
    80001308:	00050a13          	mv	s4,a0
    8000130c:	00010ab7          	lui	s5,0x10
    80001310:	fffa8793          	addi	a5,s5,-1 # ffff <_start-0x7fff0001>
    80001314:	00009b37          	lui	s6,0x9
    80001318:	00f13c23          	sd	a5,24(sp)
    8000131c:	00001bb7          	lui	s7,0x1
    80001320:	041b0793          	addi	a5,s6,65 # 9041 <_start-0x7fff6fbf>
    80001324:	00000493          	li	s1,0
    80001328:	02f13023          	sd	a5,32(sp)
    8000132c:	800b8b93          	addi	s7,s7,-2048 # 800 <_start-0x7ffff800>
    80001330:	00008b17          	auipc	s6,0x8
    80001334:	c88b0b13          	addi	s6,s6,-888 # 80008fb8 <__malloc_av_+0x918>
    80001338:	3f00006f          	j	80001728 <_vsnprintf+0x474>
    8000133c:	02500793          	li	a5,37
    80001340:	00190913          	addi	s2,s2,1
    80001344:	00f50c63          	beq	a0,a5,8000135c <_vsnprintf+0xa8>
    80001348:	00148413          	addi	s0,s1,1
    8000134c:	00098693          	mv	a3,s3
    80001350:	00048613          	mv	a2,s1
    80001354:	000c0593          	mv	a1,s8
    80001358:	1c80006f          	j	80001520 <_vsnprintf+0x26c>
    8000135c:	00000893          	li	a7,0
    80001360:	02b00693          	li	a3,43
    80001364:	02d00513          	li	a0,45
    80001368:	03000813          	li	a6,48
    8000136c:	02000313          	li	t1,32
    80001370:	02300e13          	li	t3,35
    80001374:	0140006f          	j	80001388 <_vsnprintf+0xd4>
    80001378:	04a78463          	beq	a5,a0,800013c0 <_vsnprintf+0x10c>
    8000137c:	03079263          	bne	a5,a6,800013a0 <_vsnprintf+0xec>
    80001380:	0018e893          	ori	a7,a7,1
    80001384:	00060913          	mv	s2,a2
    80001388:	00094783          	lbu	a5,0(s2)
    8000138c:	00190613          	addi	a2,s2,1
    80001390:	02d78c63          	beq	a5,a3,800013c8 <_vsnprintf+0x114>
    80001394:	fef6e2e3          	bltu	a3,a5,80001378 <_vsnprintf+0xc4>
    80001398:	02678c63          	beq	a5,t1,800013d0 <_vsnprintf+0x11c>
    8000139c:	03c78e63          	beq	a5,t3,800013d8 <_vsnprintf+0x124>
    800013a0:	fd07869b          	addiw	a3,a5,-48
    800013a4:	0ff6f693          	zext.b	a3,a3
    800013a8:	00900513          	li	a0,9
    800013ac:	08d56863          	bltu	a0,a3,8000143c <_vsnprintf+0x188>
    800013b0:	00000a93          	li	s5,0
    800013b4:	00900613          	li	a2,9
    800013b8:	00a00813          	li	a6,10
    800013bc:	0340006f          	j	800013f0 <_vsnprintf+0x13c>
    800013c0:	0028e893          	ori	a7,a7,2
    800013c4:	fc1ff06f          	j	80001384 <_vsnprintf+0xd0>
    800013c8:	0048e893          	ori	a7,a7,4
    800013cc:	fb9ff06f          	j	80001384 <_vsnprintf+0xd0>
    800013d0:	0088e893          	ori	a7,a7,8
    800013d4:	fb1ff06f          	j	80001384 <_vsnprintf+0xd0>
    800013d8:	0108e893          	ori	a7,a7,16
    800013dc:	fa9ff06f          	j	80001384 <_vsnprintf+0xd0>
    800013e0:	0358033b          	mulw	t1,a6,s5
    800013e4:	00050913          	mv	s2,a0
    800013e8:	fd03031b          	addiw	t1,t1,-48
    800013ec:	00d30abb          	addw	s5,t1,a3
    800013f0:	00094683          	lbu	a3,0(s2)
    800013f4:	00190513          	addi	a0,s2,1
    800013f8:	fd06879b          	addiw	a5,a3,-48
    800013fc:	0ff7f793          	zext.b	a5,a5
    80001400:	fef670e3          	bgeu	a2,a5,800013e0 <_vsnprintf+0x12c>
    80001404:	00094603          	lbu	a2,0(s2)
    80001408:	02e00693          	li	a3,46
    8000140c:	00000793          	li	a5,0
    80001410:	0ad61663          	bne	a2,a3,800014bc <_vsnprintf+0x208>
    80001414:	00194503          	lbu	a0,1(s2)
    80001418:	00900813          	li	a6,9
    8000141c:	00190693          	addi	a3,s2,1
    80001420:	fd05061b          	addiw	a2,a0,-48
    80001424:	0ff67613          	zext.b	a2,a2
    80001428:	4008e893          	ori	a7,a7,1024
    8000142c:	06c86663          	bltu	a6,a2,80001498 <_vsnprintf+0x1e4>
    80001430:	00900813          	li	a6,9
    80001434:	00a00e93          	li	t4,10
    80001438:	0440006f          	j	8000147c <_vsnprintf+0x1c8>
    8000143c:	02a00693          	li	a3,42
    80001440:	00000a93          	li	s5,0
    80001444:	fcd790e3          	bne	a5,a3,80001404 <_vsnprintf+0x150>
    80001448:	000ca783          	lw	a5,0(s9)
    8000144c:	008c8693          	addi	a3,s9,8
    80001450:	00078a9b          	sext.w	s5,a5
    80001454:	0007d663          	bgez	a5,80001460 <_vsnprintf+0x1ac>
    80001458:	0028e893          	ori	a7,a7,2
    8000145c:	40f00abb          	negw	s5,a5
    80001460:	00068c93          	mv	s9,a3
    80001464:	00060913          	mv	s2,a2
    80001468:	f9dff06f          	j	80001404 <_vsnprintf+0x150>
    8000146c:	02fe87bb          	mulw	a5,t4,a5
    80001470:	000e0693          	mv	a3,t3
    80001474:	fd07879b          	addiw	a5,a5,-48
    80001478:	00a787bb          	addw	a5,a5,a0
    8000147c:	0006c503          	lbu	a0,0(a3)
    80001480:	00168e13          	addi	t3,a3,1
    80001484:	fd05061b          	addiw	a2,a0,-48
    80001488:	0ff67613          	zext.b	a2,a2
    8000148c:	fec870e3          	bgeu	a6,a2,8000146c <_vsnprintf+0x1b8>
    80001490:	00068913          	mv	s2,a3
    80001494:	0280006f          	j	800014bc <_vsnprintf+0x208>
    80001498:	02a00613          	li	a2,42
    8000149c:	fec51ae3          	bne	a0,a2,80001490 <_vsnprintf+0x1dc>
    800014a0:	000ca703          	lw	a4,0(s9)
    800014a4:	008c8693          	addi	a3,s9,8
    800014a8:	0007079b          	sext.w	a5,a4
    800014ac:	00075463          	bgez	a4,800014b4 <_vsnprintf+0x200>
    800014b0:	00000793          	li	a5,0
    800014b4:	00290913          	addi	s2,s2,2
    800014b8:	00068c93          	mv	s9,a3
    800014bc:	00094683          	lbu	a3,0(s2)
    800014c0:	06c00513          	li	a0,108
    800014c4:	00190613          	addi	a2,s2,1
    800014c8:	06a68a63          	beq	a3,a0,8000153c <_vsnprintf+0x288>
    800014cc:	06d56063          	bltu	a0,a3,8000152c <_vsnprintf+0x278>
    800014d0:	06800513          	li	a0,104
    800014d4:	08a68263          	beq	a3,a0,80001558 <_vsnprintf+0x2a4>
    800014d8:	06a00513          	li	a0,106
    800014dc:	06a68463          	beq	a3,a0,80001544 <_vsnprintf+0x290>
    800014e0:	00094503          	lbu	a0,0(s2)
    800014e4:	06700693          	li	a3,103
    800014e8:	00190913          	addi	s2,s2,1
    800014ec:	10a6e063          	bltu	a3,a0,800015ec <_vsnprintf+0x338>
    800014f0:	05700693          	li	a3,87
    800014f4:	08a6e063          	bltu	a3,a0,80001574 <_vsnprintf+0x2c0>
    800014f8:	04500693          	li	a3,69
    800014fc:	0ad50663          	beq	a0,a3,800015a8 <_vsnprintf+0x2f4>
    80001500:	08a6ec63          	bltu	a3,a0,80001598 <_vsnprintf+0x2e4>
    80001504:	02500793          	li	a5,37
    80001508:	e4f510e3          	bne	a0,a5,80001348 <_vsnprintf+0x94>
    8000150c:	00148413          	addi	s0,s1,1
    80001510:	00098693          	mv	a3,s3
    80001514:	00048613          	mv	a2,s1
    80001518:	000c0593          	mv	a1,s8
    8000151c:	02500513          	li	a0,37
    80001520:	000a00e7          	jalr	s4
    80001524:	00040493          	mv	s1,s0
    80001528:	2000006f          	j	80001728 <_vsnprintf+0x474>
    8000152c:	07400513          	li	a0,116
    80001530:	00a68a63          	beq	a3,a0,80001544 <_vsnprintf+0x290>
    80001534:	07a00513          	li	a0,122
    80001538:	fa5ff06f          	j	800014dc <_vsnprintf+0x228>
    8000153c:	00194503          	lbu	a0,1(s2)
    80001540:	00d50663          	beq	a0,a3,8000154c <_vsnprintf+0x298>
    80001544:	1008e893          	ori	a7,a7,256
    80001548:	01c0006f          	j	80001564 <_vsnprintf+0x2b0>
    8000154c:	3008e893          	ori	a7,a7,768
    80001550:	00290913          	addi	s2,s2,2
    80001554:	f8dff06f          	j	800014e0 <_vsnprintf+0x22c>
    80001558:	00194503          	lbu	a0,1(s2)
    8000155c:	00d50863          	beq	a0,a3,8000156c <_vsnprintf+0x2b8>
    80001560:	0808e893          	ori	a7,a7,128
    80001564:	00060913          	mv	s2,a2
    80001568:	f79ff06f          	j	800014e0 <_vsnprintf+0x22c>
    8000156c:	0c08e893          	ori	a7,a7,192
    80001570:	fe1ff06f          	j	80001550 <_vsnprintf+0x29c>
    80001574:	fa85069b          	addiw	a3,a0,-88
    80001578:	0ff6f693          	zext.b	a3,a3
    8000157c:	00f00613          	li	a2,15
    80001580:	dcd664e3          	bltu	a2,a3,80001348 <_vsnprintf+0x94>
    80001584:	00269693          	slli	a3,a3,0x2
    80001588:	016686b3          	add	a3,a3,s6
    8000158c:	0006a683          	lw	a3,0(a3)
    80001590:	016686b3          	add	a3,a3,s6
    80001594:	00068067          	jr	a3
    80001598:	04600693          	li	a3,70
    8000159c:	2ed50a63          	beq	a0,a3,80001890 <_vsnprintf+0x5dc>
    800015a0:	04700693          	li	a3,71
    800015a4:	dad512e3          	bne	a0,a3,80001348 <_vsnprintf+0x94>
    800015a8:	0df57693          	andi	a3,a0,223
    800015ac:	04700613          	li	a2,71
    800015b0:	00c69663          	bne	a3,a2,800015bc <_vsnprintf+0x308>
    800015b4:	0178e8b3          	or	a7,a7,s7
    800015b8:	0fd57513          	andi	a0,a0,253
    800015bc:	04500693          	li	a3,69
    800015c0:	00d51463          	bne	a0,a3,800015c8 <_vsnprintf+0x314>
    800015c4:	0208e893          	ori	a7,a7,32
    800015c8:	000cb703          	ld	a4,0(s9)
    800015cc:	000a8813          	mv	a6,s5
    800015d0:	00098693          	mv	a3,s3
    800015d4:	00048613          	mv	a2,s1
    800015d8:	000c0593          	mv	a1,s8
    800015dc:	000a0513          	mv	a0,s4
    800015e0:	008c8413          	addi	s0,s9,8
    800015e4:	b00ff0ef          	jal	ra,800008e4 <_etoa>
    800015e8:	1380006f          	j	80001720 <_vsnprintf+0x46c>
    800015ec:	f975069b          	addiw	a3,a0,-105
    800015f0:	0ff6f693          	zext.b	a3,a3
    800015f4:	00f00613          	li	a2,15
    800015f8:	d4d668e3          	bltu	a2,a3,80001348 <_vsnprintf+0x94>
    800015fc:	02013703          	ld	a4,32(sp)
    80001600:	00100613          	li	a2,1
    80001604:	00d61633          	sll	a2,a2,a3
    80001608:	00e67633          	and	a2,a2,a4
    8000160c:	04061c63          	bnez	a2,80001664 <_vsnprintf+0x3b0>
    80001610:	00a00613          	li	a2,10
    80001614:	36c68863          	beq	a3,a2,80001984 <_vsnprintf+0x6d0>
    80001618:	00700613          	li	a2,7
    8000161c:	d2c696e3          	bne	a3,a2,80001348 <_vsnprintf+0x94>
    80001620:	000cb703          	ld	a4,0(s9)
    80001624:	0218e413          	ori	s0,a7,33
    80001628:	01000693          	li	a3,16
    8000162c:	00d13023          	sd	a3,0(sp)
    80001630:	00078893          	mv	a7,a5
    80001634:	00048613          	mv	a2,s1
    80001638:	00813423          	sd	s0,8(sp)
    8000163c:	01000813          	li	a6,16
    80001640:	00000793          	li	a5,0
    80001644:	00098693          	mv	a3,s3
    80001648:	000c0593          	mv	a1,s8
    8000164c:	000a0513          	mv	a0,s4
    80001650:	008c8d13          	addi	s10,s9,8
    80001654:	848ff0ef          	jal	ra,8000069c <_ntoa_long>
    80001658:	00050493          	mv	s1,a0
    8000165c:	000d0c93          	mv	s9,s10
    80001660:	0c80006f          	j	80001728 <_vsnprintf+0x474>
    80001664:	07800693          	li	a3,120
    80001668:	01000813          	li	a6,16
    8000166c:	02d50c63          	beq	a0,a3,800016a4 <_vsnprintf+0x3f0>
    80001670:	06200693          	li	a3,98
    80001674:	02d50c63          	beq	a0,a3,800016ac <_vsnprintf+0x3f8>
    80001678:	06f00693          	li	a3,111
    8000167c:	48d50063          	beq	a0,a3,80001afc <_vsnprintf+0x848>
    80001680:	05800693          	li	a3,88
    80001684:	00d50c63          	beq	a0,a3,8000169c <_vsnprintf+0x3e8>
    80001688:	fef8f893          	andi	a7,a7,-17
    8000168c:	00a00813          	li	a6,10
    80001690:	06900693          	li	a3,105
    80001694:	02d50263          	beq	a0,a3,800016b8 <_vsnprintf+0x404>
    80001698:	0180006f          	j	800016b0 <_vsnprintf+0x3fc>
    8000169c:	0208e893          	ori	a7,a7,32
    800016a0:	01000813          	li	a6,16
    800016a4:	ff38f893          	andi	a7,a7,-13
    800016a8:	0100006f          	j	800016b8 <_vsnprintf+0x404>
    800016ac:	00200813          	li	a6,2
    800016b0:	06400693          	li	a3,100
    800016b4:	fed518e3          	bne	a0,a3,800016a4 <_vsnprintf+0x3f0>
    800016b8:	4008f693          	andi	a3,a7,1024
    800016bc:	00068463          	beqz	a3,800016c4 <_vsnprintf+0x410>
    800016c0:	ffe8f893          	andi	a7,a7,-2
    800016c4:	02081813          	slli	a6,a6,0x20
    800016c8:	06900e13          	li	t3,105
    800016cc:	00088693          	mv	a3,a7
    800016d0:	2008f613          	andi	a2,a7,512
    800016d4:	02085813          	srli	a6,a6,0x20
    800016d8:	008c8413          	addi	s0,s9,8
    800016dc:	01c50663          	beq	a0,t3,800016e8 <_vsnprintf+0x434>
    800016e0:	06400e13          	li	t3,100
    800016e4:	13c51863          	bne	a0,t3,80001814 <_vsnprintf+0x560>
    800016e8:	0a060263          	beqz	a2,8000178c <_vsnprintf+0x4d8>
    800016ec:	000cb683          	ld	a3,0(s9)
    800016f0:	01113423          	sd	a7,8(sp)
    800016f4:	01513023          	sd	s5,0(sp)
    800016f8:	43f6d713          	srai	a4,a3,0x3f
    800016fc:	00d74633          	xor	a2,a4,a3
    80001700:	00078893          	mv	a7,a5
    80001704:	40e60733          	sub	a4,a2,a4
    80001708:	03f6d793          	srli	a5,a3,0x3f
    8000170c:	00098693          	mv	a3,s3
    80001710:	00048613          	mv	a2,s1
    80001714:	000c0593          	mv	a1,s8
    80001718:	000a0513          	mv	a0,s4
    8000171c:	f81fe0ef          	jal	ra,8000069c <_ntoa_long>
    80001720:	00050493          	mv	s1,a0
    80001724:	00040c93          	mv	s9,s0
    80001728:	00094503          	lbu	a0,0(s2)
    8000172c:	c00518e3          	bnez	a0,8000133c <_vsnprintf+0x88>
    80001730:	00048613          	mv	a2,s1
    80001734:	0134e463          	bltu	s1,s3,8000173c <_vsnprintf+0x488>
    80001738:	fff98613          	addi	a2,s3,-1
    8000173c:	00098693          	mv	a3,s3
    80001740:	000c0593          	mv	a1,s8
    80001744:	00000513          	li	a0,0
    80001748:	000a00e7          	jalr	s4
    8000174c:	0a813083          	ld	ra,168(sp)
    80001750:	0a013403          	ld	s0,160(sp)
    80001754:	09013903          	ld	s2,144(sp)
    80001758:	08813983          	ld	s3,136(sp)
    8000175c:	08013a03          	ld	s4,128(sp)
    80001760:	07813a83          	ld	s5,120(sp)
    80001764:	07013b03          	ld	s6,112(sp)
    80001768:	06813b83          	ld	s7,104(sp)
    8000176c:	06013c03          	ld	s8,96(sp)
    80001770:	05813c83          	ld	s9,88(sp)
    80001774:	05013d03          	ld	s10,80(sp)
    80001778:	04813d83          	ld	s11,72(sp)
    8000177c:	0004851b          	sext.w	a0,s1
    80001780:	09813483          	ld	s1,152(sp)
    80001784:	0b010113          	addi	sp,sp,176
    80001788:	00008067          	ret
    8000178c:	1008f693          	andi	a3,a7,256
    80001790:	00088613          	mv	a2,a7
    80001794:	02068e63          	beqz	a3,800017d0 <_vsnprintf+0x51c>
    80001798:	000cb683          	ld	a3,0(s9)
    8000179c:	01113423          	sd	a7,8(sp)
    800017a0:	01513023          	sd	s5,0(sp)
    800017a4:	43f6d713          	srai	a4,a3,0x3f
    800017a8:	00d74633          	xor	a2,a4,a3
    800017ac:	00078893          	mv	a7,a5
    800017b0:	40e60733          	sub	a4,a2,a4
    800017b4:	03f6d793          	srli	a5,a3,0x3f
    800017b8:	00098693          	mv	a3,s3
    800017bc:	00048613          	mv	a2,s1
    800017c0:	000c0593          	mv	a1,s8
    800017c4:	000a0513          	mv	a0,s4
    800017c8:	ed5fe0ef          	jal	ra,8000069c <_ntoa_long>
    800017cc:	f55ff06f          	j	80001720 <_vsnprintf+0x46c>
    800017d0:	0408f513          	andi	a0,a7,64
    800017d4:	000ca683          	lw	a3,0(s9)
    800017d8:	02050463          	beqz	a0,80001800 <_vsnprintf+0x54c>
    800017dc:	0ff6f693          	zext.b	a3,a3
    800017e0:	41f6d71b          	sraiw	a4,a3,0x1f
    800017e4:	00e6c633          	xor	a2,a3,a4
    800017e8:	01113423          	sd	a7,8(sp)
    800017ec:	01513023          	sd	s5,0(sp)
    800017f0:	00078893          	mv	a7,a5
    800017f4:	40e6073b          	subw	a4,a2,a4
    800017f8:	01f6d79b          	srliw	a5,a3,0x1f
    800017fc:	fbdff06f          	j	800017b8 <_vsnprintf+0x504>
    80001800:	08067713          	andi	a4,a2,128
    80001804:	fc070ee3          	beqz	a4,800017e0 <_vsnprintf+0x52c>
    80001808:	0106969b          	slliw	a3,a3,0x10
    8000180c:	4106d69b          	sraiw	a3,a3,0x10
    80001810:	fd1ff06f          	j	800017e0 <_vsnprintf+0x52c>
    80001814:	00060e63          	beqz	a2,80001830 <_vsnprintf+0x57c>
    80001818:	000cb703          	ld	a4,0(s9)
    8000181c:	01113423          	sd	a7,8(sp)
    80001820:	01513023          	sd	s5,0(sp)
    80001824:	00078893          	mv	a7,a5
    80001828:	00000793          	li	a5,0
    8000182c:	ee1ff06f          	j	8000170c <_vsnprintf+0x458>
    80001830:	1006f613          	andi	a2,a3,256
    80001834:	00060e63          	beqz	a2,80001850 <_vsnprintf+0x59c>
    80001838:	000cb703          	ld	a4,0(s9)
    8000183c:	01113423          	sd	a7,8(sp)
    80001840:	01513023          	sd	s5,0(sp)
    80001844:	00078893          	mv	a7,a5
    80001848:	00000793          	li	a5,0
    8000184c:	f6dff06f          	j	800017b8 <_vsnprintf+0x504>
    80001850:	0406f613          	andi	a2,a3,64
    80001854:	000ca703          	lw	a4,0(s9)
    80001858:	02060263          	beqz	a2,8000187c <_vsnprintf+0x5c8>
    8000185c:	0ff77713          	zext.b	a4,a4
    80001860:	02071713          	slli	a4,a4,0x20
    80001864:	01113423          	sd	a7,8(sp)
    80001868:	01513023          	sd	s5,0(sp)
    8000186c:	00078893          	mv	a7,a5
    80001870:	02075713          	srli	a4,a4,0x20
    80001874:	00000793          	li	a5,0
    80001878:	f41ff06f          	j	800017b8 <_vsnprintf+0x504>
    8000187c:	0806f693          	andi	a3,a3,128
    80001880:	fe0680e3          	beqz	a3,80001860 <_vsnprintf+0x5ac>
    80001884:	01813683          	ld	a3,24(sp)
    80001888:	00d77733          	and	a4,a4,a3
    8000188c:	fd5ff06f          	j	80001860 <_vsnprintf+0x5ac>
    80001890:	0208e893          	ori	a7,a7,32
    80001894:	000cb703          	ld	a4,0(s9)
    80001898:	000a8813          	mv	a6,s5
    8000189c:	00098693          	mv	a3,s3
    800018a0:	00048613          	mv	a2,s1
    800018a4:	000c0593          	mv	a1,s8
    800018a8:	000a0513          	mv	a0,s4
    800018ac:	008c8413          	addi	s0,s9,8
    800018b0:	cdcff0ef          	jal	ra,80000d8c <_ftoa>
    800018b4:	e6dff06f          	j	80001720 <_vsnprintf+0x46c>
    800018b8:	0028f413          	andi	s0,a7,2
    800018bc:	00100d93          	li	s11,1
    800018c0:	04041863          	bnez	s0,80001910 <_vsnprintf+0x65c>
    800018c4:	00000d13          	li	s10,0
    800018c8:	0140006f          	j	800018dc <_vsnprintf+0x628>
    800018cc:	00098693          	mv	a3,s3
    800018d0:	000c0593          	mv	a1,s8
    800018d4:	02000513          	li	a0,32
    800018d8:	000a00e7          	jalr	s4
    800018dc:	009d0633          	add	a2,s10,s1
    800018e0:	001d0d13          	addi	s10,s10,1
    800018e4:	000d079b          	sext.w	a5,s10
    800018e8:	ff57e2e3          	bltu	a5,s5,800018cc <_vsnprintf+0x618>
    800018ec:	00000793          	li	a5,0
    800018f0:	000a8863          	beqz	s5,80001900 <_vsnprintf+0x64c>
    800018f4:	fffa879b          	addiw	a5,s5,-1
    800018f8:	02079793          	slli	a5,a5,0x20
    800018fc:	0207d793          	srli	a5,a5,0x20
    80001900:	00f484b3          	add	s1,s1,a5
    80001904:	00200d93          	li	s11,2
    80001908:	000a8463          	beqz	s5,80001910 <_vsnprintf+0x65c>
    8000190c:	001a8d9b          	addiw	s11,s5,1
    80001910:	000cc503          	lbu	a0,0(s9)
    80001914:	008c8793          	addi	a5,s9,8
    80001918:	00f13823          	sd	a5,16(sp)
    8000191c:	00098693          	mv	a3,s3
    80001920:	00048613          	mv	a2,s1
    80001924:	000c0593          	mv	a1,s8
    80001928:	00148d13          	addi	s10,s1,1
    8000192c:	000a00e7          	jalr	s4
    80001930:	04040463          	beqz	s0,80001978 <_vsnprintf+0x6c4>
    80001934:	000d8413          	mv	s0,s11
    80001938:	000d0613          	mv	a2,s10
    8000193c:	0200006f          	j	8000195c <_vsnprintf+0x6a8>
    80001940:	00098693          	mv	a3,s3
    80001944:	000c0593          	mv	a1,s8
    80001948:	02000513          	li	a0,32
    8000194c:	00160493          	addi	s1,a2,1
    80001950:	000a00e7          	jalr	s4
    80001954:	0014041b          	addiw	s0,s0,1
    80001958:	00048613          	mv	a2,s1
    8000195c:	ff5462e3          	bltu	s0,s5,80001940 <_vsnprintf+0x68c>
    80001960:	00000713          	li	a4,0
    80001964:	01bae863          	bltu	s5,s11,80001974 <_vsnprintf+0x6c0>
    80001968:	41ba8dbb          	subw	s11,s5,s11
    8000196c:	020d9713          	slli	a4,s11,0x20
    80001970:	02075713          	srli	a4,a4,0x20
    80001974:	00ed0d33          	add	s10,s10,a4
    80001978:	01013c83          	ld	s9,16(sp)
    8000197c:	000d0493          	mv	s1,s10
    80001980:	da9ff06f          	j	80001728 <_vsnprintf+0x474>
    80001984:	008c8713          	addi	a4,s9,8
    80001988:	00e13823          	sd	a4,16(sp)
    8000198c:	000cbd83          	ld	s11,0(s9)
    80001990:	fff00713          	li	a4,-1
    80001994:	00078663          	beqz	a5,800019a0 <_vsnprintf+0x6ec>
    80001998:	02079713          	slli	a4,a5,0x20
    8000199c:	02075713          	srli	a4,a4,0x20
    800019a0:	00ed86b3          	add	a3,s11,a4
    800019a4:	000d8713          	mv	a4,s11
    800019a8:	00074603          	lbu	a2,0(a4)
    800019ac:	00060463          	beqz	a2,800019b4 <_vsnprintf+0x700>
    800019b0:	02e69a63          	bne	a3,a4,800019e4 <_vsnprintf+0x730>
    800019b4:	4008fd13          	andi	s10,a7,1024
    800019b8:	41b70cbb          	subw	s9,a4,s11
    800019bc:	000d0a63          	beqz	s10,800019d0 <_vsnprintf+0x71c>
    800019c0:	00078693          	mv	a3,a5
    800019c4:	00fcf463          	bgeu	s9,a5,800019cc <_vsnprintf+0x718>
    800019c8:	000c8693          	mv	a3,s9
    800019cc:	00068c9b          	sext.w	s9,a3
    800019d0:	0028f413          	andi	s0,a7,2
    800019d4:	06041e63          	bnez	s0,80001a50 <_vsnprintf+0x79c>
    800019d8:	00048613          	mv	a2,s1
    800019dc:	409c883b          	subw	a6,s9,s1
    800019e0:	03c0006f          	j	80001a1c <_vsnprintf+0x768>
    800019e4:	00170713          	addi	a4,a4,1
    800019e8:	fc1ff06f          	j	800019a8 <_vsnprintf+0x6f4>
    800019ec:	00160893          	addi	a7,a2,1
    800019f0:	03012e23          	sw	a6,60(sp)
    800019f4:	02f13823          	sd	a5,48(sp)
    800019f8:	03113423          	sd	a7,40(sp)
    800019fc:	00098693          	mv	a3,s3
    80001a00:	000c0593          	mv	a1,s8
    80001a04:	02000513          	li	a0,32
    80001a08:	000a00e7          	jalr	s4
    80001a0c:	02813883          	ld	a7,40(sp)
    80001a10:	03013783          	ld	a5,48(sp)
    80001a14:	03c12803          	lw	a6,60(sp)
    80001a18:	00088613          	mv	a2,a7
    80001a1c:	00c806bb          	addw	a3,a6,a2
    80001a20:	fd56e6e3          	bltu	a3,s5,800019ec <_vsnprintf+0x738>
    80001a24:	419a863b          	subw	a2,s5,s9
    80001a28:	00000693          	li	a3,0
    80001a2c:	019ae663          	bltu	s5,s9,80001a38 <_vsnprintf+0x784>
    80001a30:	02061693          	slli	a3,a2,0x20
    80001a34:	0206d693          	srli	a3,a3,0x20
    80001a38:	00d484b3          	add	s1,s1,a3
    80001a3c:	00000693          	li	a3,0
    80001a40:	019ae463          	bltu	s5,s9,80001a48 <_vsnprintf+0x794>
    80001a44:	00060693          	mv	a3,a2
    80001a48:	001c871b          	addiw	a4,s9,1
    80001a4c:	00e68cbb          	addw	s9,a3,a4
    80001a50:	00048813          	mv	a6,s1
    80001a54:	0300006f          	j	80001a84 <_vsnprintf+0x7d0>
    80001a58:	00068793          	mv	a5,a3
    80001a5c:	00180893          	addi	a7,a6,1
    80001a60:	02f13823          	sd	a5,48(sp)
    80001a64:	03113423          	sd	a7,40(sp)
    80001a68:	00080613          	mv	a2,a6
    80001a6c:	00098693          	mv	a3,s3
    80001a70:	000c0593          	mv	a1,s8
    80001a74:	000a00e7          	jalr	s4
    80001a78:	02813883          	ld	a7,40(sp)
    80001a7c:	03013783          	ld	a5,48(sp)
    80001a80:	00088813          	mv	a6,a7
    80001a84:	409806b3          	sub	a3,a6,s1
    80001a88:	00dd86b3          	add	a3,s11,a3
    80001a8c:	0006c503          	lbu	a0,0(a3)
    80001a90:	00050863          	beqz	a0,80001aa0 <_vsnprintf+0x7ec>
    80001a94:	fc0d04e3          	beqz	s10,80001a5c <_vsnprintf+0x7a8>
    80001a98:	fff7869b          	addiw	a3,a5,-1
    80001a9c:	fa079ee3          	bnez	a5,80001a58 <_vsnprintf+0x7a4>
    80001aa0:	04040863          	beqz	s0,80001af0 <_vsnprintf+0x83c>
    80001aa4:	00080613          	mv	a2,a6
    80001aa8:	410c843b          	subw	s0,s9,a6
    80001aac:	0240006f          	j	80001ad0 <_vsnprintf+0x81c>
    80001ab0:	03013423          	sd	a6,40(sp)
    80001ab4:	00098693          	mv	a3,s3
    80001ab8:	000c0593          	mv	a1,s8
    80001abc:	02000513          	li	a0,32
    80001ac0:	00160493          	addi	s1,a2,1
    80001ac4:	000a00e7          	jalr	s4
    80001ac8:	02813803          	ld	a6,40(sp)
    80001acc:	00048613          	mv	a2,s1
    80001ad0:	00c407bb          	addw	a5,s0,a2
    80001ad4:	fd57eee3          	bltu	a5,s5,80001ab0 <_vsnprintf+0x7fc>
    80001ad8:	00000793          	li	a5,0
    80001adc:	019ae863          	bltu	s5,s9,80001aec <_vsnprintf+0x838>
    80001ae0:	419a873b          	subw	a4,s5,s9
    80001ae4:	02071793          	slli	a5,a4,0x20
    80001ae8:	0207d793          	srli	a5,a5,0x20
    80001aec:	00f80833          	add	a6,a6,a5
    80001af0:	01013c83          	ld	s9,16(sp)
    80001af4:	00080493          	mv	s1,a6
    80001af8:	c31ff06f          	j	80001728 <_vsnprintf+0x474>
    80001afc:	00800813          	li	a6,8
    80001b00:	b91ff06f          	j	80001690 <_vsnprintf+0x3dc>

0000000080001b04 <printf>:
    80001b04:	fa010113          	addi	sp,sp,-96
    80001b08:	02b13423          	sd	a1,40(sp)
    80001b0c:	02c13823          	sd	a2,48(sp)
    80001b10:	02d13c23          	sd	a3,56(sp)
    80001b14:	04e13023          	sd	a4,64(sp)
    80001b18:	00050693          	mv	a3,a0
    80001b1c:	02810713          	addi	a4,sp,40
    80001b20:	00010593          	mv	a1,sp
    80001b24:	fff00613          	li	a2,-1
    80001b28:	fffff517          	auipc	a0,0xfffff
    80001b2c:	76c50513          	addi	a0,a0,1900 # 80001294 <_out_char>
    80001b30:	00113c23          	sd	ra,24(sp)
    80001b34:	04f13423          	sd	a5,72(sp)
    80001b38:	05013823          	sd	a6,80(sp)
    80001b3c:	05113c23          	sd	a7,88(sp)
    80001b40:	00e13423          	sd	a4,8(sp)
    80001b44:	f70ff0ef          	jal	ra,800012b4 <_vsnprintf>
    80001b48:	01813083          	ld	ra,24(sp)
    80001b4c:	06010113          	addi	sp,sp,96
    80001b50:	00008067          	ret

0000000080001b54 <sprintf_>:
    80001b54:	fb010113          	addi	sp,sp,-80
    80001b58:	02c13023          	sd	a2,32(sp)
    80001b5c:	02d13423          	sd	a3,40(sp)
    80001b60:	02e13823          	sd	a4,48(sp)
    80001b64:	00058693          	mv	a3,a1
    80001b68:	02010713          	addi	a4,sp,32
    80001b6c:	00050593          	mv	a1,a0
    80001b70:	fff00613          	li	a2,-1
    80001b74:	fffff517          	auipc	a0,0xfffff
    80001b78:	9e850513          	addi	a0,a0,-1560 # 8000055c <_out_buffer>
    80001b7c:	00113c23          	sd	ra,24(sp)
    80001b80:	02f13c23          	sd	a5,56(sp)
    80001b84:	05013023          	sd	a6,64(sp)
    80001b88:	05113423          	sd	a7,72(sp)
    80001b8c:	00e13423          	sd	a4,8(sp)
    80001b90:	f24ff0ef          	jal	ra,800012b4 <_vsnprintf>
    80001b94:	01813083          	ld	ra,24(sp)
    80001b98:	05010113          	addi	sp,sp,80
    80001b9c:	00008067          	ret

0000000080001ba0 <snprintf_>:
    80001ba0:	fb010113          	addi	sp,sp,-80
    80001ba4:	02d13423          	sd	a3,40(sp)
    80001ba8:	02e13823          	sd	a4,48(sp)
    80001bac:	00060693          	mv	a3,a2
    80001bb0:	02810713          	addi	a4,sp,40
    80001bb4:	00058613          	mv	a2,a1
    80001bb8:	00050593          	mv	a1,a0
    80001bbc:	fffff517          	auipc	a0,0xfffff
    80001bc0:	9a050513          	addi	a0,a0,-1632 # 8000055c <_out_buffer>
    80001bc4:	00113c23          	sd	ra,24(sp)
    80001bc8:	02f13c23          	sd	a5,56(sp)
    80001bcc:	05013023          	sd	a6,64(sp)
    80001bd0:	05113423          	sd	a7,72(sp)
    80001bd4:	00e13423          	sd	a4,8(sp)
    80001bd8:	edcff0ef          	jal	ra,800012b4 <_vsnprintf>
    80001bdc:	01813083          	ld	ra,24(sp)
    80001be0:	05010113          	addi	sp,sp,80
    80001be4:	00008067          	ret

0000000080001be8 <vprintf_>:
    80001be8:	fe010113          	addi	sp,sp,-32
    80001bec:	00050693          	mv	a3,a0
    80001bf0:	00058713          	mv	a4,a1
    80001bf4:	fff00613          	li	a2,-1
    80001bf8:	00810593          	addi	a1,sp,8
    80001bfc:	fffff517          	auipc	a0,0xfffff
    80001c00:	69850513          	addi	a0,a0,1688 # 80001294 <_out_char>
    80001c04:	00113c23          	sd	ra,24(sp)
    80001c08:	eacff0ef          	jal	ra,800012b4 <_vsnprintf>
    80001c0c:	01813083          	ld	ra,24(sp)
    80001c10:	02010113          	addi	sp,sp,32
    80001c14:	00008067          	ret

0000000080001c18 <vsnprintf_>:
    80001c18:	00068713          	mv	a4,a3
    80001c1c:	00060693          	mv	a3,a2
    80001c20:	00058613          	mv	a2,a1
    80001c24:	00050593          	mv	a1,a0
    80001c28:	fffff517          	auipc	a0,0xfffff
    80001c2c:	93450513          	addi	a0,a0,-1740 # 8000055c <_out_buffer>
    80001c30:	e84ff06f          	j	800012b4 <_vsnprintf>

0000000080001c34 <fctprintf>:
    80001c34:	fa010113          	addi	sp,sp,-96
    80001c38:	02d13c23          	sd	a3,56(sp)
    80001c3c:	04e13023          	sd	a4,64(sp)
    80001c40:	00a13823          	sd	a0,16(sp)
    80001c44:	03810713          	addi	a4,sp,56
    80001c48:	00b13c23          	sd	a1,24(sp)
    80001c4c:	00060693          	mv	a3,a2
    80001c50:	01010593          	addi	a1,sp,16
    80001c54:	fff00613          	li	a2,-1
    80001c58:	fffff517          	auipc	a0,0xfffff
    80001c5c:	64850513          	addi	a0,a0,1608 # 800012a0 <_out_fct>
    80001c60:	02113423          	sd	ra,40(sp)
    80001c64:	04f13423          	sd	a5,72(sp)
    80001c68:	05013823          	sd	a6,80(sp)
    80001c6c:	05113c23          	sd	a7,88(sp)
    80001c70:	00e13423          	sd	a4,8(sp)
    80001c74:	e40ff0ef          	jal	ra,800012b4 <_vsnprintf>
    80001c78:	02813083          	ld	ra,40(sp)
    80001c7c:	06010113          	addi	sp,sp,96
    80001c80:	00008067          	ret

0000000080001c84 <clock_time>:
    80001c84:	00008797          	auipc	a5,0x8
    80001c88:	72c78793          	addi	a5,a5,1836 # 8000a3b0 <global_clock_time>
    80001c8c:	0007b503          	ld	a0,0(a5)
    80001c90:	00150713          	addi	a4,a0,1
    80001c94:	00e7b023          	sd	a4,0(a5)
    80001c98:	03c00793          	li	a5,60
    80001c9c:	02f55533          	divu	a0,a0,a5
    80001ca0:	0005051b          	sext.w	a0,a0
    80001ca4:	00008067          	ret

0000000080001ca8 <data_acked>:
    80001ca8:	03c54683          	lbu	a3,60(a0)
    80001cac:	00600713          	li	a4,6
    80001cb0:	00050793          	mv	a5,a0
    80001cb4:	00000513          	li	a0,0
    80001cb8:	04e69c63          	bne	a3,a4,80001d10 <data_acked+0x68>
    80001cbc:	00008517          	auipc	a0,0x8
    80001cc0:	73a54503          	lbu	a0,1850(a0) # 8000a3f6 <uip_flags>
    80001cc4:	00157513          	andi	a0,a0,1
    80001cc8:	04050463          	beqz	a0,80001d10 <data_acked+0x68>
    80001ccc:	00008717          	auipc	a4,0x8
    80001cd0:	71473703          	ld	a4,1812(a4) # 8000a3e0 <uip_conn>
    80001cd4:	01275603          	lhu	a2,18(a4)
    80001cd8:	0207d683          	lhu	a3,32(a5)
    80001cdc:	0087b703          	ld	a4,8(a5)
    80001ce0:	02d67063          	bgeu	a2,a3,80001d00 <data_acked+0x58>
    80001ce4:	40c686bb          	subw	a3,a3,a2
    80001ce8:	00c70733          	add	a4,a4,a2
    80001cec:	02d79023          	sh	a3,32(a5)
    80001cf0:	00e7b423          	sd	a4,8(a5)
    80001cf4:	00100713          	li	a4,1
    80001cf8:	02e78e23          	sb	a4,60(a5)
    80001cfc:	00008067          	ret
    80001d00:	00d70733          	add	a4,a4,a3
    80001d04:	00e7b423          	sd	a4,8(a5)
    80001d08:	02079023          	sh	zero,32(a5)
    80001d0c:	fe9ff06f          	j	80001cf4 <data_acked+0x4c>
    80001d10:	00008067          	ret

0000000080001d14 <send_data>:
    80001d14:	ff010113          	addi	sp,sp,-16
    80001d18:	00813023          	sd	s0,0(sp)
    80001d1c:	00113423          	sd	ra,8(sp)
    80001d20:	03c54703          	lbu	a4,60(a0)
    80001d24:	00600793          	li	a5,6
    80001d28:	00050413          	mv	s0,a0
    80001d2c:	00f71a63          	bne	a4,a5,80001d40 <send_data+0x2c>
    80001d30:	00008517          	auipc	a0,0x8
    80001d34:	6c654503          	lbu	a0,1734(a0) # 8000a3f6 <uip_flags>
    80001d38:	00457513          	andi	a0,a0,4
    80001d3c:	02050663          	beqz	a0,80001d68 <send_data+0x54>
    80001d40:	00008717          	auipc	a4,0x8
    80001d44:	6a073703          	ld	a4,1696(a4) # 8000a3e0 <uip_conn>
    80001d48:	02045783          	lhu	a5,32(s0)
    80001d4c:	01275583          	lhu	a1,18(a4)
    80001d50:	00843503          	ld	a0,8(s0)
    80001d54:	02f5f263          	bgeu	a1,a5,80001d78 <send_data+0x64>
    80001d58:	770020ef          	jal	ra,800044c8 <uip_send>
    80001d5c:	00600793          	li	a5,6
    80001d60:	02f40e23          	sb	a5,60(s0)
    80001d64:	00100513          	li	a0,1
    80001d68:	00813083          	ld	ra,8(sp)
    80001d6c:	00013403          	ld	s0,0(sp)
    80001d70:	01010113          	addi	sp,sp,16
    80001d74:	00008067          	ret
    80001d78:	00078593          	mv	a1,a5
    80001d7c:	fddff06f          	j	80001d58 <send_data+0x44>

0000000080001d80 <psock_send>:
    80001d80:	00255783          	lhu	a5,2(a0)
    80001d84:	fe010113          	addi	sp,sp,-32
    80001d88:	00813823          	sd	s0,16(sp)
    80001d8c:	00113c23          	sd	ra,24(sp)
    80001d90:	00913423          	sd	s1,8(sp)
    80001d94:	00050413          	mv	s0,a0
    80001d98:	00078c63          	beqz	a5,80001db0 <psock_send+0x30>
    80001d9c:	0cf00713          	li	a4,207
    80001da0:	02e78e63          	beq	a5,a4,80001ddc <psock_send+0x5c>
    80001da4:	00041123          	sh	zero,2(s0)
    80001da8:	00200513          	li	a0,2
    80001dac:	0500006f          	j	80001dfc <psock_send+0x7c>
    80001db0:	00100513          	li	a0,1
    80001db4:	04060463          	beqz	a2,80001dfc <psock_send+0x7c>
    80001db8:	00b43423          	sd	a1,8(s0)
    80001dbc:	02c41023          	sh	a2,32(s0)
    80001dc0:	02040e23          	sb	zero,60(s0)
    80001dc4:	02045783          	lhu	a5,32(s0)
    80001dc8:	00079663          	bnez	a5,80001dd4 <psock_send+0x54>
    80001dcc:	02040e23          	sb	zero,60(s0)
    80001dd0:	fd5ff06f          	j	80001da4 <psock_send+0x24>
    80001dd4:	0cf00793          	li	a5,207
    80001dd8:	00f41123          	sh	a5,2(s0)
    80001ddc:	00040513          	mv	a0,s0
    80001de0:	ec9ff0ef          	jal	ra,80001ca8 <data_acked>
    80001de4:	00050493          	mv	s1,a0
    80001de8:	00040513          	mv	a0,s0
    80001dec:	f29ff0ef          	jal	ra,80001d14 <send_data>
    80001df0:	00a4f533          	and	a0,s1,a0
    80001df4:	0ff57513          	zext.b	a0,a0
    80001df8:	fc0516e3          	bnez	a0,80001dc4 <psock_send+0x44>
    80001dfc:	01813083          	ld	ra,24(sp)
    80001e00:	01013403          	ld	s0,16(sp)
    80001e04:	00813483          	ld	s1,8(sp)
    80001e08:	02010113          	addi	sp,sp,32
    80001e0c:	00008067          	ret

0000000080001e10 <psock_generator_send>:
    80001e10:	00255783          	lhu	a5,2(a0)
    80001e14:	fd010113          	addi	sp,sp,-48
    80001e18:	02813023          	sd	s0,32(sp)
    80001e1c:	01213823          	sd	s2,16(sp)
    80001e20:	01313423          	sd	s3,8(sp)
    80001e24:	02113423          	sd	ra,40(sp)
    80001e28:	00913c23          	sd	s1,24(sp)
    80001e2c:	00050413          	mv	s0,a0
    80001e30:	00058913          	mv	s2,a1
    80001e34:	00060993          	mv	s3,a2
    80001e38:	02078863          	beqz	a5,80001e68 <psock_generator_send+0x58>
    80001e3c:	0ee00713          	li	a4,238
    80001e40:	06e78663          	beq	a5,a4,80001eac <psock_generator_send+0x9c>
    80001e44:	00041123          	sh	zero,2(s0)
    80001e48:	00200513          	li	a0,2
    80001e4c:	02813083          	ld	ra,40(sp)
    80001e50:	02013403          	ld	s0,32(sp)
    80001e54:	01813483          	ld	s1,24(sp)
    80001e58:	01013903          	ld	s2,16(sp)
    80001e5c:	00813983          	ld	s3,8(sp)
    80001e60:	03010113          	addi	sp,sp,48
    80001e64:	00008067          	ret
    80001e68:	00100513          	li	a0,1
    80001e6c:	fe0580e3          	beqz	a1,80001e4c <psock_generator_send+0x3c>
    80001e70:	00060513          	mv	a0,a2
    80001e74:	000580e7          	jalr	a1
    80001e78:	00008797          	auipc	a5,0x8
    80001e7c:	5607b783          	ld	a5,1376(a5) # 8000a3d8 <uip_appdata>
    80001e80:	02a41023          	sh	a0,32(s0)
    80001e84:	00f43423          	sd	a5,8(s0)
    80001e88:	02040e23          	sb	zero,60(s0)
    80001e8c:	00008797          	auipc	a5,0x8
    80001e90:	56a7c783          	lbu	a5,1386(a5) # 8000a3f6 <uip_flags>
    80001e94:	0047f793          	andi	a5,a5,4
    80001e98:	00078663          	beqz	a5,80001ea4 <psock_generator_send+0x94>
    80001e9c:	00098513          	mv	a0,s3
    80001ea0:	000900e7          	jalr	s2
    80001ea4:	0ee00793          	li	a5,238
    80001ea8:	00f41123          	sh	a5,2(s0)
    80001eac:	00040513          	mv	a0,s0
    80001eb0:	df9ff0ef          	jal	ra,80001ca8 <data_acked>
    80001eb4:	00050493          	mv	s1,a0
    80001eb8:	00040513          	mv	a0,s0
    80001ebc:	e59ff0ef          	jal	ra,80001d14 <send_data>
    80001ec0:	00a4f533          	and	a0,s1,a0
    80001ec4:	0ff57513          	zext.b	a0,a0
    80001ec8:	f80502e3          	beqz	a0,80001e4c <psock_generator_send+0x3c>
    80001ecc:	02045783          	lhu	a5,32(s0)
    80001ed0:	fa079ee3          	bnez	a5,80001e8c <psock_generator_send+0x7c>
    80001ed4:	02040e23          	sb	zero,60(s0)
    80001ed8:	f6dff06f          	j	80001e44 <psock_generator_send+0x34>

0000000080001edc <psock_datalen>:
    80001edc:	03852783          	lw	a5,56(a0)
    80001ee0:	03055703          	lhu	a4,48(a0)
    80001ee4:	40e7853b          	subw	a0,a5,a4
    80001ee8:	03051513          	slli	a0,a0,0x30
    80001eec:	03055513          	srli	a0,a0,0x30
    80001ef0:	00008067          	ret

0000000080001ef4 <psock_newdata>:
    80001ef4:	02255783          	lhu	a5,34(a0)
    80001ef8:	02079a63          	bnez	a5,80001f2c <psock_newdata+0x38>
    80001efc:	03c54703          	lbu	a4,60(a0)
    80001f00:	00200793          	li	a5,2
    80001f04:	00f71a63          	bne	a4,a5,80001f18 <psock_newdata+0x24>
    80001f08:	00300793          	li	a5,3
    80001f0c:	02f50e23          	sb	a5,60(a0)
    80001f10:	00000513          	li	a0,0
    80001f14:	00008067          	ret
    80001f18:	00008517          	auipc	a0,0x8
    80001f1c:	4de54503          	lbu	a0,1246(a0) # 8000a3f6 <uip_flags>
    80001f20:	0015551b          	srliw	a0,a0,0x1
    80001f24:	00157513          	andi	a0,a0,1
    80001f28:	00008067          	ret
    80001f2c:	00100513          	li	a0,1
    80001f30:	00008067          	ret

0000000080001f34 <psock_readto>:
    80001f34:	00255783          	lhu	a5,2(a0)
    80001f38:	fe010113          	addi	sp,sp,-32
    80001f3c:	00813823          	sd	s0,16(sp)
    80001f40:	00913423          	sd	s1,8(sp)
    80001f44:	00113c23          	sd	ra,24(sp)
    80001f48:	00050413          	mv	s0,a0
    80001f4c:	00058493          	mv	s1,a1
    80001f50:	00078c63          	beqz	a5,80001f68 <psock_readto+0x34>
    80001f54:	11b00713          	li	a4,283
    80001f58:	02e78863          	beq	a5,a4,80001f88 <psock_readto+0x54>
    80001f5c:	00041123          	sh	zero,2(s0)
    80001f60:	00200513          	li	a0,2
    80001f64:	0bc0006f          	j	80002020 <psock_readto+0xec>
    80001f68:	03855783          	lhu	a5,56(a0)
    80001f6c:	01853703          	ld	a4,24(a0)
    80001f70:	02f51823          	sh	a5,48(a0)
    80001f74:	02e53423          	sd	a4,40(a0)
    80001f78:	02245783          	lhu	a5,34(s0)
    80001f7c:	02079c63          	bnez	a5,80001fb4 <psock_readto+0x80>
    80001f80:	11b00793          	li	a5,283
    80001f84:	00f41123          	sh	a5,2(s0)
    80001f88:	00040513          	mv	a0,s0
    80001f8c:	f69ff0ef          	jal	ra,80001ef4 <psock_newdata>
    80001f90:	08050863          	beqz	a0,80002020 <psock_readto+0xec>
    80001f94:	00200793          	li	a5,2
    80001f98:	02f40e23          	sb	a5,60(s0)
    80001f9c:	00008797          	auipc	a5,0x8
    80001fa0:	43c7b783          	ld	a5,1084(a5) # 8000a3d8 <uip_appdata>
    80001fa4:	00f43823          	sd	a5,16(s0)
    80001fa8:	00008797          	auipc	a5,0x8
    80001fac:	4547d783          	lhu	a5,1108(a5) # 8000a3fc <uip_len>
    80001fb0:	02f41123          	sh	a5,34(s0)
    80001fb4:	03045703          	lhu	a4,48(s0)
    80001fb8:	02245783          	lhu	a5,34(s0)
    80001fbc:	06070c63          	beqz	a4,80002034 <psock_readto+0x100>
    80001fc0:	fa078ce3          	beqz	a5,80001f78 <psock_readto+0x44>
    80001fc4:	01043703          	ld	a4,16(s0)
    80001fc8:	02843783          	ld	a5,40(s0)
    80001fcc:	00074703          	lbu	a4,0(a4)
    80001fd0:	00e78023          	sb	a4,0(a5)
    80001fd4:	01043783          	ld	a5,16(s0)
    80001fd8:	00178793          	addi	a5,a5,1
    80001fdc:	00f43823          	sd	a5,16(s0)
    80001fe0:	02843783          	ld	a5,40(s0)
    80001fe4:	00178793          	addi	a5,a5,1
    80001fe8:	02f43423          	sd	a5,40(s0)
    80001fec:	02245783          	lhu	a5,34(s0)
    80001ff0:	fff7879b          	addiw	a5,a5,-1
    80001ff4:	02f41123          	sh	a5,34(s0)
    80001ff8:	03045783          	lhu	a5,48(s0)
    80001ffc:	fff7879b          	addiw	a5,a5,-1
    80002000:	02f41823          	sh	a5,48(s0)
    80002004:	fae498e3          	bne	s1,a4,80001fb4 <psock_readto+0x80>
    80002008:	03045703          	lhu	a4,48(s0)
    8000200c:	03845783          	lhu	a5,56(s0)
    80002010:	f4f716e3          	bne	a4,a5,80001f5c <psock_readto+0x28>
    80002014:	02040e23          	sb	zero,60(s0)
    80002018:	00041123          	sh	zero,2(s0)
    8000201c:	00000513          	li	a0,0
    80002020:	01813083          	ld	ra,24(sp)
    80002024:	01013403          	ld	s0,16(sp)
    80002028:	00813483          	ld	s1,8(sp)
    8000202c:	02010113          	addi	sp,sp,32
    80002030:	00008067          	ret
    80002034:	f40782e3          	beqz	a5,80001f78 <psock_readto+0x44>
    80002038:	02245783          	lhu	a5,34(s0)
    8000203c:	f2078ee3          	beqz	a5,80001f78 <psock_readto+0x44>
    80002040:	01043703          	ld	a4,16(s0)
    80002044:	fff7879b          	addiw	a5,a5,-1
    80002048:	00074683          	lbu	a3,0(a4)
    8000204c:	00170713          	addi	a4,a4,1
    80002050:	02f41123          	sh	a5,34(s0)
    80002054:	00e43823          	sd	a4,16(s0)
    80002058:	fed490e3          	bne	s1,a3,80002038 <psock_readto+0x104>
    8000205c:	fadff06f          	j	80002008 <psock_readto+0xd4>

0000000080002060 <psock_readbuf>:
    80002060:	00255783          	lhu	a5,2(a0)
    80002064:	ff010113          	addi	sp,sp,-16
    80002068:	00813023          	sd	s0,0(sp)
    8000206c:	00113423          	sd	ra,8(sp)
    80002070:	00050413          	mv	s0,a0
    80002074:	00078c63          	beqz	a5,8000208c <psock_readbuf+0x2c>
    80002078:	13600713          	li	a4,310
    8000207c:	02e78863          	beq	a5,a4,800020ac <psock_readbuf+0x4c>
    80002080:	00041123          	sh	zero,2(s0)
    80002084:	00200513          	li	a0,2
    80002088:	0ec0006f          	j	80002174 <psock_readbuf+0x114>
    8000208c:	03855783          	lhu	a5,56(a0)
    80002090:	01853703          	ld	a4,24(a0)
    80002094:	02f51823          	sh	a5,48(a0)
    80002098:	02e53423          	sd	a4,40(a0)
    8000209c:	02245783          	lhu	a5,34(s0)
    800020a0:	04079263          	bnez	a5,800020e4 <psock_readbuf+0x84>
    800020a4:	13600793          	li	a5,310
    800020a8:	00f41123          	sh	a5,2(s0)
    800020ac:	00040513          	mv	a0,s0
    800020b0:	e45ff0ef          	jal	ra,80001ef4 <psock_newdata>
    800020b4:	0c050063          	beqz	a0,80002174 <psock_readbuf+0x114>
    800020b8:	00007517          	auipc	a0,0x7
    800020bc:	f9050513          	addi	a0,a0,-112 # 80009048 <pow10.0+0x50>
    800020c0:	a45ff0ef          	jal	ra,80001b04 <printf>
    800020c4:	00200793          	li	a5,2
    800020c8:	02f40e23          	sb	a5,60(s0)
    800020cc:	00008797          	auipc	a5,0x8
    800020d0:	30c7b783          	ld	a5,780(a5) # 8000a3d8 <uip_appdata>
    800020d4:	00f43823          	sd	a5,16(s0)
    800020d8:	00008797          	auipc	a5,0x8
    800020dc:	3247d783          	lhu	a5,804(a5) # 8000a3fc <uip_len>
    800020e0:	02f41123          	sh	a5,34(s0)
    800020e4:	02245603          	lhu	a2,34(s0)
    800020e8:	03045783          	lhu	a5,48(s0)
    800020ec:	02843503          	ld	a0,40(s0)
    800020f0:	01043583          	ld	a1,16(s0)
    800020f4:	0006069b          	sext.w	a3,a2
    800020f8:	0007871b          	sext.w	a4,a5
    800020fc:	02f67c63          	bgeu	a2,a5,80002134 <psock_readbuf+0xd4>
    80002100:	3e0050ef          	jal	ra,800074e0 <memcpy>
    80002104:	02245703          	lhu	a4,34(s0)
    80002108:	02843783          	ld	a5,40(s0)
    8000210c:	02041123          	sh	zero,34(s0)
    80002110:	00e787b3          	add	a5,a5,a4
    80002114:	02f43423          	sd	a5,40(s0)
    80002118:	03045783          	lhu	a5,48(s0)
    8000211c:	40e787bb          	subw	a5,a5,a4
    80002120:	02f41823          	sh	a5,48(s0)
    80002124:	01043783          	ld	a5,16(s0)
    80002128:	00e787b3          	add	a5,a5,a4
    8000212c:	00f43823          	sd	a5,16(s0)
    80002130:	f6dff06f          	j	8000209c <psock_readbuf+0x3c>
    80002134:	04e69863          	bne	a3,a4,80002184 <psock_readbuf+0x124>
    80002138:	3a8050ef          	jal	ra,800074e0 <memcpy>
    8000213c:	02245703          	lhu	a4,34(s0)
    80002140:	02843783          	ld	a5,40(s0)
    80002144:	02041823          	sh	zero,48(s0)
    80002148:	02041123          	sh	zero,34(s0)
    8000214c:	00e787b3          	add	a5,a5,a4
    80002150:	02f43423          	sd	a5,40(s0)
    80002154:	01043783          	ld	a5,16(s0)
    80002158:	00e787b3          	add	a5,a5,a4
    8000215c:	00f43823          	sd	a5,16(s0)
    80002160:	03845783          	lhu	a5,56(s0)
    80002164:	f0079ee3          	bnez	a5,80002080 <psock_readbuf+0x20>
    80002168:	02040e23          	sb	zero,60(s0)
    8000216c:	00041123          	sh	zero,2(s0)
    80002170:	00000513          	li	a0,0
    80002174:	00813083          	ld	ra,8(sp)
    80002178:	00013403          	ld	s0,0(sp)
    8000217c:	01010113          	addi	sp,sp,16
    80002180:	00008067          	ret
    80002184:	00078613          	mv	a2,a5
    80002188:	358050ef          	jal	ra,800074e0 <memcpy>
    8000218c:	03045703          	lhu	a4,48(s0)
    80002190:	02843783          	ld	a5,40(s0)
    80002194:	02041823          	sh	zero,48(s0)
    80002198:	00e787b3          	add	a5,a5,a4
    8000219c:	02f43423          	sd	a5,40(s0)
    800021a0:	02245783          	lhu	a5,34(s0)
    800021a4:	40e787bb          	subw	a5,a5,a4
    800021a8:	02f41123          	sh	a5,34(s0)
    800021ac:	01043783          	ld	a5,16(s0)
    800021b0:	00e787b3          	add	a5,a5,a4
    800021b4:	00f43823          	sd	a5,16(s0)
    800021b8:	fa9ff06f          	j	80002160 <psock_readbuf+0x100>

00000000800021bc <psock_init>:
    800021bc:	02050e23          	sb	zero,60(a0)
    800021c0:	02051123          	sh	zero,34(a0)
    800021c4:	00b53c23          	sd	a1,24(a0)
    800021c8:	02c52c23          	sw	a2,56(a0)
    800021cc:	02b53423          	sd	a1,40(a0)
    800021d0:	02c51823          	sh	a2,48(a0)
    800021d4:	00052023          	sw	zero,0(a0)
    800021d8:	00008067          	ret

00000000800021dc <timer_set>:
    800021dc:	ff010113          	addi	sp,sp,-16
    800021e0:	00813023          	sd	s0,0(sp)
    800021e4:	00113423          	sd	ra,8(sp)
    800021e8:	00b52223          	sw	a1,4(a0)
    800021ec:	00050413          	mv	s0,a0
    800021f0:	a95ff0ef          	jal	ra,80001c84 <clock_time>
    800021f4:	00813083          	ld	ra,8(sp)
    800021f8:	00a42023          	sw	a0,0(s0)
    800021fc:	00013403          	ld	s0,0(sp)
    80002200:	01010113          	addi	sp,sp,16
    80002204:	00008067          	ret

0000000080002208 <timer_reset>:
    80002208:	00052703          	lw	a4,0(a0)
    8000220c:	00452783          	lw	a5,4(a0)
    80002210:	00e787bb          	addw	a5,a5,a4
    80002214:	00f52023          	sw	a5,0(a0)
    80002218:	00008067          	ret

000000008000221c <timer_restart>:
    8000221c:	ff010113          	addi	sp,sp,-16
    80002220:	00813023          	sd	s0,0(sp)
    80002224:	00113423          	sd	ra,8(sp)
    80002228:	00050413          	mv	s0,a0
    8000222c:	a59ff0ef          	jal	ra,80001c84 <clock_time>
    80002230:	00813083          	ld	ra,8(sp)
    80002234:	00a42023          	sw	a0,0(s0)
    80002238:	00013403          	ld	s0,0(sp)
    8000223c:	01010113          	addi	sp,sp,16
    80002240:	00008067          	ret

0000000080002244 <timer_expired>:
    80002244:	ff010113          	addi	sp,sp,-16
    80002248:	00813023          	sd	s0,0(sp)
    8000224c:	00113423          	sd	ra,8(sp)
    80002250:	00050413          	mv	s0,a0
    80002254:	a31ff0ef          	jal	ra,80001c84 <clock_time>
    80002258:	00042783          	lw	a5,0(s0)
    8000225c:	00813083          	ld	ra,8(sp)
    80002260:	40f5053b          	subw	a0,a0,a5
    80002264:	00442783          	lw	a5,4(s0)
    80002268:	00013403          	ld	s0,0(sp)
    8000226c:	00f52533          	slt	a0,a0,a5
    80002270:	00154513          	xori	a0,a0,1
    80002274:	0005051b          	sext.w	a0,a0
    80002278:	01010113          	addi	sp,sp,16
    8000227c:	00008067          	ret

0000000080002280 <uip_arp_update.constprop.0>:
    80002280:	00008797          	auipc	a5,0x8
    80002284:	12078da3          	sb	zero,315(a5) # 8000a3bb <i>
    80002288:	00007797          	auipc	a5,0x7
    8000228c:	1e078793          	addi	a5,a5,480 # 80009468 <uip_buf>
    80002290:	01d7c683          	lbu	a3,29(a5)
    80002294:	01f7c603          	lbu	a2,31(a5)
    80002298:	01c7c303          	lbu	t1,28(a5)
    8000229c:	01e7c503          	lbu	a0,30(a5)
    800022a0:	fe010113          	addi	sp,sp,-32
    800022a4:	00007717          	auipc	a4,0x7
    800022a8:	10470713          	addi	a4,a4,260 # 800093a8 <arp_table>
    800022ac:	00869693          	slli	a3,a3,0x8
    800022b0:	00861613          	slli	a2,a2,0x8
    800022b4:	00913423          	sd	s1,8(sp)
    800022b8:	00113c23          	sd	ra,24(sp)
    800022bc:	00813823          	sd	s0,16(sp)
    800022c0:	00000813          	li	a6,0
    800022c4:	00070593          	mv	a1,a4
    800022c8:	00000793          	li	a5,0
    800022cc:	00000893          	li	a7,0
    800022d0:	00070493          	mv	s1,a4
    800022d4:	00800e93          	li	t4,8
    800022d8:	00c00f93          	li	t6,12
    800022dc:	0066e6b3          	or	a3,a3,t1
    800022e0:	00a66633          	or	a2,a2,a0
    800022e4:	0ff7ff13          	zext.b	t5,a5
    800022e8:	0bd79a63          	bne	a5,t4,8000239c <uip_arp_update.constprop.0+0x11c>
    800022ec:	00008797          	auipc	a5,0x8
    800022f0:	0c0787a3          	sb	zero,207(a5) # 8000a3bb <i>
    800022f4:	00007797          	auipc	a5,0x7
    800022f8:	0b478793          	addi	a5,a5,180 # 800093a8 <arp_table>
    800022fc:	00000693          	li	a3,0
    80002300:	00000613          	li	a2,0
    80002304:	00800593          	li	a1,8
    80002308:	0ff6f513          	zext.b	a0,a3
    8000230c:	10b69863          	bne	a3,a1,8000241c <uip_arp_update.constprop.0+0x19c>
    80002310:	00008797          	auipc	a5,0x8
    80002314:	0a078a23          	sb	zero,180(a5) # 8000a3c4 <tmpage>
    80002318:	00008797          	auipc	a5,0x8
    8000231c:	0a0780a3          	sb	zero,161(a5) # 8000a3b9 <c>
    80002320:	00008517          	auipc	a0,0x8
    80002324:	09854503          	lbu	a0,152(a0) # 8000a3b8 <arptime>
    80002328:	0005031b          	sext.w	t1,a0
    8000232c:	00000793          	li	a5,0
    80002330:	00000593          	li	a1,0
    80002334:	00000613          	li	a2,0
    80002338:	00800893          	li	a7,8
    8000233c:	00a74683          	lbu	a3,10(a4)
    80002340:	40d30e3b          	subw	t3,t1,a3
    80002344:	01c65a63          	bge	a2,t3,80002358 <uip_arp_update.constprop.0+0xd8>
    80002348:	40d506bb          	subw	a3,a0,a3
    8000234c:	0ff6f613          	zext.b	a2,a3
    80002350:	00078813          	mv	a6,a5
    80002354:	00100593          	li	a1,1
    80002358:	0017879b          	addiw	a5,a5,1
    8000235c:	0ff7f793          	zext.b	a5,a5
    80002360:	00c70713          	addi	a4,a4,12
    80002364:	fd179ce3          	bne	a5,a7,8000233c <uip_arp_update.constprop.0+0xbc>
    80002368:	00008797          	auipc	a5,0x8
    8000236c:	05178793          	addi	a5,a5,81 # 8000a3b9 <c>
    80002370:	00058863          	beqz	a1,80002380 <uip_arp_update.constprop.0+0x100>
    80002374:	01078023          	sb	a6,0(a5)
    80002378:	00008717          	auipc	a4,0x8
    8000237c:	04c70623          	sb	a2,76(a4) # 8000a3c4 <tmpage>
    80002380:	0007c403          	lbu	s0,0(a5)
    80002384:	00008797          	auipc	a5,0x8
    80002388:	02878ba3          	sb	s0,55(a5) # 8000a3bb <i>
    8000238c:	00c00793          	li	a5,12
    80002390:	02f40433          	mul	s0,s0,a5
    80002394:	00848433          	add	s0,s1,s0
    80002398:	0a40006f          	j	8000243c <uip_arp_update.constprop.0+0x1bc>
    8000239c:	0005de03          	lhu	t3,0(a1)
    800023a0:	03f78533          	mul	a0,a5,t6
    800023a4:	0007841b          	sext.w	s0,a5
    800023a8:	060e0263          	beqz	t3,8000240c <uip_arp_update.constprop.0+0x18c>
    800023ac:	0025d303          	lhu	t1,2(a1)
    800023b0:	04030e63          	beqz	t1,8000240c <uip_arp_update.constprop.0+0x18c>
    800023b4:	04de1c63          	bne	t3,a3,8000240c <uip_arp_update.constprop.0+0x18c>
    800023b8:	04c31a63          	bne	t1,a2,8000240c <uip_arp_update.constprop.0+0x18c>
    800023bc:	00088663          	beqz	a7,800023c8 <uip_arp_update.constprop.0+0x148>
    800023c0:	00008797          	auipc	a5,0x8
    800023c4:	ffe78da3          	sb	t5,-5(a5) # 8000a3bb <i>
    800023c8:	00450513          	addi	a0,a0,4
    800023cc:	00600613          	li	a2,6
    800023d0:	00007597          	auipc	a1,0x7
    800023d4:	0ae58593          	addi	a1,a1,174 # 8000947e <uip_buf+0x16>
    800023d8:	00a48533          	add	a0,s1,a0
    800023dc:	104050ef          	jal	ra,800074e0 <memcpy>
    800023e0:	00c00793          	li	a5,12
    800023e4:	02f40433          	mul	s0,s0,a5
    800023e8:	00848433          	add	s0,s1,s0
    800023ec:	00008797          	auipc	a5,0x8
    800023f0:	fcc7c783          	lbu	a5,-52(a5) # 8000a3b8 <arptime>
    800023f4:	00f40523          	sb	a5,10(s0)
    800023f8:	01813083          	ld	ra,24(sp)
    800023fc:	01013403          	ld	s0,16(sp)
    80002400:	00813483          	ld	s1,8(sp)
    80002404:	02010113          	addi	sp,sp,32
    80002408:	00008067          	ret
    8000240c:	00178793          	addi	a5,a5,1
    80002410:	00c58593          	addi	a1,a1,12
    80002414:	00100893          	li	a7,1
    80002418:	ecdff06f          	j	800022e4 <uip_arp_update.constprop.0+0x64>
    8000241c:	0007d883          	lhu	a7,0(a5)
    80002420:	00078413          	mv	s0,a5
    80002424:	04089263          	bnez	a7,80002468 <uip_arp_update.constprop.0+0x1e8>
    80002428:	0027d883          	lhu	a7,2(a5)
    8000242c:	02089e63          	bnez	a7,80002468 <uip_arp_update.constprop.0+0x1e8>
    80002430:	00060663          	beqz	a2,8000243c <uip_arp_update.constprop.0+0x1bc>
    80002434:	00008797          	auipc	a5,0x8
    80002438:	f8a783a3          	sb	a0,-121(a5) # 8000a3bb <i>
    8000243c:	00400613          	li	a2,4
    80002440:	00007597          	auipc	a1,0x7
    80002444:	04458593          	addi	a1,a1,68 # 80009484 <uip_buf+0x1c>
    80002448:	00040513          	mv	a0,s0
    8000244c:	094050ef          	jal	ra,800074e0 <memcpy>
    80002450:	00600613          	li	a2,6
    80002454:	00007597          	auipc	a1,0x7
    80002458:	02a58593          	addi	a1,a1,42 # 8000947e <uip_buf+0x16>
    8000245c:	00440513          	addi	a0,s0,4
    80002460:	080050ef          	jal	ra,800074e0 <memcpy>
    80002464:	f89ff06f          	j	800023ec <uip_arp_update.constprop.0+0x16c>
    80002468:	0016869b          	addiw	a3,a3,1
    8000246c:	00c78793          	addi	a5,a5,12
    80002470:	00100613          	li	a2,1
    80002474:	e95ff06f          	j	80002308 <uip_arp_update.constprop.0+0x88>

0000000080002478 <uip_arp_init>:
    80002478:	fd010113          	addi	sp,sp,-48
    8000247c:	02813023          	sd	s0,32(sp)
    80002480:	00913c23          	sd	s1,24(sp)
    80002484:	01213823          	sd	s2,16(sp)
    80002488:	01313423          	sd	s3,8(sp)
    8000248c:	02113423          	sd	ra,40(sp)
    80002490:	00000513          	li	a0,0
    80002494:	00008417          	auipc	s0,0x8
    80002498:	f2740413          	addi	s0,s0,-217 # 8000a3bb <i>
    8000249c:	00700493          	li	s1,7
    800024a0:	00007917          	auipc	s2,0x7
    800024a4:	f0890913          	addi	s2,s2,-248 # 800093a8 <arp_table>
    800024a8:	00c00993          	li	s3,12
    800024ac:	00a40023          	sb	a0,0(s0)
    800024b0:	02a4f063          	bgeu	s1,a0,800024d0 <uip_arp_init+0x58>
    800024b4:	02813083          	ld	ra,40(sp)
    800024b8:	02013403          	ld	s0,32(sp)
    800024bc:	01813483          	ld	s1,24(sp)
    800024c0:	01013903          	ld	s2,16(sp)
    800024c4:	00813983          	ld	s3,8(sp)
    800024c8:	03010113          	addi	sp,sp,48
    800024cc:	00008067          	ret
    800024d0:	03350533          	mul	a0,a0,s3
    800024d4:	00400613          	li	a2,4
    800024d8:	00000593          	li	a1,0
    800024dc:	00a90533          	add	a0,s2,a0
    800024e0:	128050ef          	jal	ra,80007608 <memset>
    800024e4:	00044503          	lbu	a0,0(s0)
    800024e8:	0015051b          	addiw	a0,a0,1
    800024ec:	0ff57513          	zext.b	a0,a0
    800024f0:	fbdff06f          	j	800024ac <uip_arp_init+0x34>

00000000800024f4 <uip_arp_timer>:
    800024f4:	fc010113          	addi	sp,sp,-64
    800024f8:	02813823          	sd	s0,48(sp)
    800024fc:	00008417          	auipc	s0,0x8
    80002500:	ebc40413          	addi	s0,s0,-324 # 8000a3b8 <arptime>
    80002504:	00044783          	lbu	a5,0(s0)
    80002508:	02913423          	sd	s1,40(sp)
    8000250c:	03213023          	sd	s2,32(sp)
    80002510:	0017879b          	addiw	a5,a5,1
    80002514:	01313c23          	sd	s3,24(sp)
    80002518:	01413823          	sd	s4,16(sp)
    8000251c:	01513423          	sd	s5,8(sp)
    80002520:	02113c23          	sd	ra,56(sp)
    80002524:	00f40023          	sb	a5,0(s0)
    80002528:	00000513          	li	a0,0
    8000252c:	00008497          	auipc	s1,0x8
    80002530:	e8f48493          	addi	s1,s1,-369 # 8000a3bb <i>
    80002534:	00700a13          	li	s4,7
    80002538:	00007917          	auipc	s2,0x7
    8000253c:	e7090913          	addi	s2,s2,-400 # 800093a8 <arp_table>
    80002540:	00c00993          	li	s3,12
    80002544:	07700a93          	li	s5,119
    80002548:	00a48023          	sb	a0,0(s1)
    8000254c:	02aa7463          	bgeu	s4,a0,80002574 <uip_arp_timer+0x80>
    80002550:	03813083          	ld	ra,56(sp)
    80002554:	03013403          	ld	s0,48(sp)
    80002558:	02813483          	ld	s1,40(sp)
    8000255c:	02013903          	ld	s2,32(sp)
    80002560:	01813983          	ld	s3,24(sp)
    80002564:	01013a03          	ld	s4,16(sp)
    80002568:	00813a83          	ld	s5,8(sp)
    8000256c:	04010113          	addi	sp,sp,64
    80002570:	00008067          	ret
    80002574:	033507b3          	mul	a5,a0,s3
    80002578:	00f907b3          	add	a5,s2,a5
    8000257c:	0007d703          	lhu	a4,0(a5)
    80002580:	0027d683          	lhu	a3,2(a5)
    80002584:	00d76733          	or	a4,a4,a3
    80002588:	02070463          	beqz	a4,800025b0 <uip_arp_timer+0xbc>
    8000258c:	00044703          	lbu	a4,0(s0)
    80002590:	00a7c783          	lbu	a5,10(a5)
    80002594:	40f707bb          	subw	a5,a4,a5
    80002598:	00fadc63          	bge	s5,a5,800025b0 <uip_arp_timer+0xbc>
    8000259c:	03350533          	mul	a0,a0,s3
    800025a0:	00400613          	li	a2,4
    800025a4:	00000593          	li	a1,0
    800025a8:	00a90533          	add	a0,s2,a0
    800025ac:	05c050ef          	jal	ra,80007608 <memset>
    800025b0:	0004c503          	lbu	a0,0(s1)
    800025b4:	0015051b          	addiw	a0,a0,1
    800025b8:	0ff57513          	zext.b	a0,a0
    800025bc:	f8dff06f          	j	80002548 <uip_arp_timer+0x54>

00000000800025c0 <uip_arp_arpin>:
    800025c0:	fe010113          	addi	sp,sp,-32
    800025c4:	01213023          	sd	s2,0(sp)
    800025c8:	00008917          	auipc	s2,0x8
    800025cc:	e3490913          	addi	s2,s2,-460 # 8000a3fc <uip_len>
    800025d0:	00095703          	lhu	a4,0(s2)
    800025d4:	00113c23          	sd	ra,24(sp)
    800025d8:	00813823          	sd	s0,16(sp)
    800025dc:	00913423          	sd	s1,8(sp)
    800025e0:	02900793          	li	a5,41
    800025e4:	02e7e263          	bltu	a5,a4,80002608 <uip_arp_arpin+0x48>
    800025e8:	00008797          	auipc	a5,0x8
    800025ec:	e0079a23          	sh	zero,-492(a5) # 8000a3fc <uip_len>
    800025f0:	01813083          	ld	ra,24(sp)
    800025f4:	01013403          	ld	s0,16(sp)
    800025f8:	00813483          	ld	s1,8(sp)
    800025fc:	00013903          	ld	s2,0(sp)
    80002600:	02010113          	addi	sp,sp,32
    80002604:	00008067          	ret
    80002608:	00007417          	auipc	s0,0x7
    8000260c:	e6040413          	addi	s0,s0,-416 # 80009468 <uip_buf>
    80002610:	00008797          	auipc	a5,0x8
    80002614:	de079623          	sh	zero,-532(a5) # 8000a3fc <uip_len>
    80002618:	01544783          	lbu	a5,21(s0)
    8000261c:	01444703          	lbu	a4,20(s0)
    80002620:	00879793          	slli	a5,a5,0x8
    80002624:	00e7e7b3          	or	a5,a5,a4
    80002628:	10000713          	li	a4,256
    8000262c:	04e78e63          	beq	a5,a4,80002688 <uip_arp_arpin+0xc8>
    80002630:	20000713          	li	a4,512
    80002634:	fae79ee3          	bne	a5,a4,800025f0 <uip_arp_arpin+0x30>
    80002638:	02744783          	lbu	a5,39(s0)
    8000263c:	02644603          	lbu	a2,38(s0)
    80002640:	00008717          	auipc	a4,0x8
    80002644:	db870713          	addi	a4,a4,-584 # 8000a3f8 <uip_hostaddr>
    80002648:	00075683          	lhu	a3,0(a4)
    8000264c:	00879793          	slli	a5,a5,0x8
    80002650:	00c7e7b3          	or	a5,a5,a2
    80002654:	f8f69ee3          	bne	a3,a5,800025f0 <uip_arp_arpin+0x30>
    80002658:	02944783          	lbu	a5,41(s0)
    8000265c:	02844683          	lbu	a3,40(s0)
    80002660:	00275703          	lhu	a4,2(a4)
    80002664:	00879793          	slli	a5,a5,0x8
    80002668:	00d7e7b3          	or	a5,a5,a3
    8000266c:	f8f712e3          	bne	a4,a5,800025f0 <uip_arp_arpin+0x30>
    80002670:	01013403          	ld	s0,16(sp)
    80002674:	01813083          	ld	ra,24(sp)
    80002678:	00813483          	ld	s1,8(sp)
    8000267c:	00013903          	ld	s2,0(sp)
    80002680:	02010113          	addi	sp,sp,32
    80002684:	bfdff06f          	j	80002280 <uip_arp_update.constprop.0>
    80002688:	02744783          	lbu	a5,39(s0)
    8000268c:	02644683          	lbu	a3,38(s0)
    80002690:	00008497          	auipc	s1,0x8
    80002694:	d6848493          	addi	s1,s1,-664 # 8000a3f8 <uip_hostaddr>
    80002698:	0004d703          	lhu	a4,0(s1)
    8000269c:	00879793          	slli	a5,a5,0x8
    800026a0:	00d7e7b3          	or	a5,a5,a3
    800026a4:	f4f716e3          	bne	a4,a5,800025f0 <uip_arp_arpin+0x30>
    800026a8:	02944783          	lbu	a5,41(s0)
    800026ac:	02844683          	lbu	a3,40(s0)
    800026b0:	0024d703          	lhu	a4,2(s1)
    800026b4:	00879793          	slli	a5,a5,0x8
    800026b8:	00d7e7b3          	or	a5,a5,a3
    800026bc:	f2f71ae3          	bne	a4,a5,800025f0 <uip_arp_arpin+0x30>
    800026c0:	bc1ff0ef          	jal	ra,80002280 <uip_arp_update.constprop.0>
    800026c4:	00007797          	auipc	a5,0x7
    800026c8:	da078c23          	sb	zero,-584(a5) # 8000947c <uip_buf+0x14>
    800026cc:	00200793          	li	a5,2
    800026d0:	00600613          	li	a2,6
    800026d4:	00007597          	auipc	a1,0x7
    800026d8:	daa58593          	addi	a1,a1,-598 # 8000947e <uip_buf+0x16>
    800026dc:	00007517          	auipc	a0,0x7
    800026e0:	dac50513          	addi	a0,a0,-596 # 80009488 <uip_buf+0x20>
    800026e4:	00f40aa3          	sb	a5,21(s0)
    800026e8:	5f9040ef          	jal	ra,800074e0 <memcpy>
    800026ec:	00600613          	li	a2,6
    800026f0:	00008597          	auipc	a1,0x8
    800026f4:	d0058593          	addi	a1,a1,-768 # 8000a3f0 <uip_ethaddr>
    800026f8:	00007517          	auipc	a0,0x7
    800026fc:	d8650513          	addi	a0,a0,-634 # 8000947e <uip_buf+0x16>
    80002700:	5e1040ef          	jal	ra,800074e0 <memcpy>
    80002704:	00600613          	li	a2,6
    80002708:	00008597          	auipc	a1,0x8
    8000270c:	ce858593          	addi	a1,a1,-792 # 8000a3f0 <uip_ethaddr>
    80002710:	00007517          	auipc	a0,0x7
    80002714:	d5e50513          	addi	a0,a0,-674 # 8000946e <uip_buf+0x6>
    80002718:	5c9040ef          	jal	ra,800074e0 <memcpy>
    8000271c:	00600613          	li	a2,6
    80002720:	00007597          	auipc	a1,0x7
    80002724:	d6858593          	addi	a1,a1,-664 # 80009488 <uip_buf+0x20>
    80002728:	00040513          	mv	a0,s0
    8000272c:	5b5040ef          	jal	ra,800074e0 <memcpy>
    80002730:	01c44783          	lbu	a5,28(s0)
    80002734:	02f40323          	sb	a5,38(s0)
    80002738:	01d44783          	lbu	a5,29(s0)
    8000273c:	02f403a3          	sb	a5,39(s0)
    80002740:	01e44783          	lbu	a5,30(s0)
    80002744:	02f40423          	sb	a5,40(s0)
    80002748:	01f44783          	lbu	a5,31(s0)
    8000274c:	02f404a3          	sb	a5,41(s0)
    80002750:	0004c783          	lbu	a5,0(s1)
    80002754:	00f40e23          	sb	a5,28(s0)
    80002758:	0004d783          	lhu	a5,0(s1)
    8000275c:	0087d793          	srli	a5,a5,0x8
    80002760:	00f40ea3          	sb	a5,29(s0)
    80002764:	0024c783          	lbu	a5,2(s1)
    80002768:	00f40f23          	sb	a5,30(s0)
    8000276c:	0024d783          	lhu	a5,2(s1)
    80002770:	0087d793          	srli	a5,a5,0x8
    80002774:	00f40fa3          	sb	a5,31(s0)
    80002778:	00800793          	li	a5,8
    8000277c:	00f40623          	sb	a5,12(s0)
    80002780:	00600793          	li	a5,6
    80002784:	00f406a3          	sb	a5,13(s0)
    80002788:	02a00793          	li	a5,42
    8000278c:	00f91023          	sh	a5,0(s2)
    80002790:	e61ff06f          	j	800025f0 <uip_arp_arpin+0x30>

0000000080002794 <uip_arp_out>:
    80002794:	fe010113          	addi	sp,sp,-32
    80002798:	00813823          	sd	s0,16(sp)
    8000279c:	00007417          	auipc	s0,0x7
    800027a0:	ccc40413          	addi	s0,s0,-820 # 80009468 <uip_buf>
    800027a4:	01f44703          	lbu	a4,31(s0)
    800027a8:	01e44783          	lbu	a5,30(s0)
    800027ac:	02044683          	lbu	a3,32(s0)
    800027b0:	00871713          	slli	a4,a4,0x8
    800027b4:	00f76733          	or	a4,a4,a5
    800027b8:	02144783          	lbu	a5,33(s0)
    800027bc:	00113c23          	sd	ra,24(sp)
    800027c0:	00913423          	sd	s1,8(sp)
    800027c4:	00879793          	slli	a5,a5,0x8
    800027c8:	00d7e7b3          	or	a5,a5,a3
    800027cc:	000106b7          	lui	a3,0x10
    800027d0:	01213023          	sd	s2,0(sp)
    800027d4:	00f77633          	and	a2,a4,a5
    800027d8:	fff68693          	addi	a3,a3,-1 # ffff <_start-0x7fff0001>
    800027dc:	04d61c63          	bne	a2,a3,80002834 <uip_arp_out+0xa0>
    800027e0:	00600613          	li	a2,6
    800027e4:	00005597          	auipc	a1,0x5
    800027e8:	75458593          	addi	a1,a1,1876 # 80007f38 <broadcast_ethaddr>
    800027ec:	00040513          	mv	a0,s0
    800027f0:	4f1040ef          	jal	ra,800074e0 <memcpy>
    800027f4:	00600613          	li	a2,6
    800027f8:	00008597          	auipc	a1,0x8
    800027fc:	bf858593          	addi	a1,a1,-1032 # 8000a3f0 <uip_ethaddr>
    80002800:	00007517          	auipc	a0,0x7
    80002804:	c6e50513          	addi	a0,a0,-914 # 8000946e <uip_buf+0x6>
    80002808:	4d9040ef          	jal	ra,800074e0 <memcpy>
    8000280c:	00800793          	li	a5,8
    80002810:	00f40623          	sb	a5,12(s0)
    80002814:	00007797          	auipc	a5,0x7
    80002818:	c60780a3          	sb	zero,-927(a5) # 80009475 <uip_buf+0xd>
    8000281c:	00008797          	auipc	a5,0x8
    80002820:	be07d783          	lhu	a5,-1056(a5) # 8000a3fc <uip_len>
    80002824:	00e7879b          	addiw	a5,a5,14
    80002828:	03079793          	slli	a5,a5,0x30
    8000282c:	0307d793          	srli	a5,a5,0x30
    80002830:	1840006f          	j	800029b4 <uip_arp_out+0x220>
    80002834:	00008917          	auipc	s2,0x8
    80002838:	bc490913          	addi	s2,s2,-1084 # 8000a3f8 <uip_hostaddr>
    8000283c:	00008597          	auipc	a1,0x8
    80002840:	bc458593          	addi	a1,a1,-1084 # 8000a400 <uip_netmask>
    80002844:	00095683          	lhu	a3,0(s2)
    80002848:	0005d603          	lhu	a2,0(a1)
    8000284c:	0025d583          	lhu	a1,2(a1)
    80002850:	00d746b3          	xor	a3,a4,a3
    80002854:	00c6f6b3          	and	a3,a3,a2
    80002858:	00295603          	lhu	a2,2(s2)
    8000285c:	00008497          	auipc	s1,0x8
    80002860:	b6448493          	addi	s1,s1,-1180 # 8000a3c0 <ipaddr>
    80002864:	00c7c633          	xor	a2,a5,a2
    80002868:	00b67633          	and	a2,a2,a1
    8000286c:	00c6e6b3          	or	a3,a3,a2
    80002870:	16068263          	beqz	a3,800029d4 <uip_arp_out+0x240>
    80002874:	00008797          	auipc	a5,0x8
    80002878:	b7478793          	addi	a5,a5,-1164 # 8000a3e8 <uip_draddr>
    8000287c:	0007d703          	lhu	a4,0(a5)
    80002880:	0027d783          	lhu	a5,2(a5)
    80002884:	00e49023          	sh	a4,0(s1)
    80002888:	0004d803          	lhu	a6,0(s1)
    8000288c:	00008717          	auipc	a4,0x8
    80002890:	b20707a3          	sb	zero,-1233(a4) # 8000a3bb <i>
    80002894:	00f49123          	sh	a5,2(s1)
    80002898:	00007597          	auipc	a1,0x7
    8000289c:	b1058593          	addi	a1,a1,-1264 # 800093a8 <arp_table>
    800028a0:	00000713          	li	a4,0
    800028a4:	00000693          	li	a3,0
    800028a8:	00800513          	li	a0,8
    800028ac:	0007879b          	sext.w	a5,a5
    800028b0:	0ff77613          	zext.b	a2,a4
    800028b4:	12a71463          	bne	a4,a0,800029dc <uip_arp_out+0x248>
    800028b8:	00068663          	beqz	a3,800028c4 <uip_arp_out+0x130>
    800028bc:	00008797          	auipc	a5,0x8
    800028c0:	aee78fa3          	sb	a4,-1281(a5) # 8000a3bb <i>
    800028c4:	00600613          	li	a2,6
    800028c8:	0ff00593          	li	a1,255
    800028cc:	00007517          	auipc	a0,0x7
    800028d0:	b9c50513          	addi	a0,a0,-1124 # 80009468 <uip_buf>
    800028d4:	535040ef          	jal	ra,80007608 <memset>
    800028d8:	00600613          	li	a2,6
    800028dc:	00000593          	li	a1,0
    800028e0:	00007517          	auipc	a0,0x7
    800028e4:	ba850513          	addi	a0,a0,-1112 # 80009488 <uip_buf+0x20>
    800028e8:	521040ef          	jal	ra,80007608 <memset>
    800028ec:	00600613          	li	a2,6
    800028f0:	00008597          	auipc	a1,0x8
    800028f4:	b0058593          	addi	a1,a1,-1280 # 8000a3f0 <uip_ethaddr>
    800028f8:	00007517          	auipc	a0,0x7
    800028fc:	b7650513          	addi	a0,a0,-1162 # 8000946e <uip_buf+0x6>
    80002900:	3e1040ef          	jal	ra,800074e0 <memcpy>
    80002904:	00600613          	li	a2,6
    80002908:	00008597          	auipc	a1,0x8
    8000290c:	ae858593          	addi	a1,a1,-1304 # 8000a3f0 <uip_ethaddr>
    80002910:	00007517          	auipc	a0,0x7
    80002914:	b6e50513          	addi	a0,a0,-1170 # 8000947e <uip_buf+0x16>
    80002918:	3c9040ef          	jal	ra,800074e0 <memcpy>
    8000291c:	0004d783          	lhu	a5,0(s1)
    80002920:	00007717          	auipc	a4,0x7
    80002924:	b4070b23          	sb	zero,-1194(a4) # 80009476 <uip_buf+0xe>
    80002928:	00800713          	li	a4,8
    8000292c:	02f40323          	sb	a5,38(s0)
    80002930:	0087d793          	srli	a5,a5,0x8
    80002934:	02f403a3          	sb	a5,39(s0)
    80002938:	0024d783          	lhu	a5,2(s1)
    8000293c:	00e40823          	sb	a4,16(s0)
    80002940:	00400693          	li	a3,4
    80002944:	02f40423          	sb	a5,40(s0)
    80002948:	0087d793          	srli	a5,a5,0x8
    8000294c:	02f404a3          	sb	a5,41(s0)
    80002950:	00095783          	lhu	a5,0(s2)
    80002954:	00e40623          	sb	a4,12(s0)
    80002958:	00d409a3          	sb	a3,19(s0)
    8000295c:	00f40e23          	sb	a5,28(s0)
    80002960:	0087d793          	srli	a5,a5,0x8
    80002964:	00f40ea3          	sb	a5,29(s0)
    80002968:	00295783          	lhu	a5,2(s2)
    8000296c:	00f40f23          	sb	a5,30(s0)
    80002970:	0087d793          	srli	a5,a5,0x8
    80002974:	00f40fa3          	sb	a5,31(s0)
    80002978:	00007797          	auipc	a5,0x7
    8000297c:	b0078223          	sb	zero,-1276(a5) # 8000947c <uip_buf+0x14>
    80002980:	00100793          	li	a5,1
    80002984:	00f40aa3          	sb	a5,21(s0)
    80002988:	00f407a3          	sb	a5,15(s0)
    8000298c:	00007797          	auipc	a5,0x7
    80002990:	ae0786a3          	sb	zero,-1299(a5) # 80009479 <uip_buf+0x11>
    80002994:	00600793          	li	a5,6
    80002998:	00f40923          	sb	a5,18(s0)
    8000299c:	00f406a3          	sb	a5,13(s0)
    800029a0:	00007797          	auipc	a5,0x7
    800029a4:	afe78793          	addi	a5,a5,-1282 # 8000949e <uip_buf+0x36>
    800029a8:	00008717          	auipc	a4,0x8
    800029ac:	a2f73823          	sd	a5,-1488(a4) # 8000a3d8 <uip_appdata>
    800029b0:	02a00793          	li	a5,42
    800029b4:	01813083          	ld	ra,24(sp)
    800029b8:	01013403          	ld	s0,16(sp)
    800029bc:	00008717          	auipc	a4,0x8
    800029c0:	a4f71023          	sh	a5,-1472(a4) # 8000a3fc <uip_len>
    800029c4:	00813483          	ld	s1,8(sp)
    800029c8:	00013903          	ld	s2,0(sp)
    800029cc:	02010113          	addi	sp,sp,32
    800029d0:	00008067          	ret
    800029d4:	00e49023          	sh	a4,0(s1)
    800029d8:	eb1ff06f          	j	80002888 <uip_arp_out+0xf4>
    800029dc:	0005d883          	lhu	a7,0(a1)
    800029e0:	01089663          	bne	a7,a6,800029ec <uip_arp_out+0x258>
    800029e4:	0025d883          	lhu	a7,2(a1)
    800029e8:	00f88a63          	beq	a7,a5,800029fc <uip_arp_out+0x268>
    800029ec:	0017071b          	addiw	a4,a4,1
    800029f0:	00c58593          	addi	a1,a1,12
    800029f4:	00100693          	li	a3,1
    800029f8:	eb9ff06f          	j	800028b0 <uip_arp_out+0x11c>
    800029fc:	00068663          	beqz	a3,80002a08 <uip_arp_out+0x274>
    80002a00:	00008797          	auipc	a5,0x8
    80002a04:	9ac78da3          	sb	a2,-1605(a5) # 8000a3bb <i>
    80002a08:	00600613          	li	a2,6
    80002a0c:	00458593          	addi	a1,a1,4
    80002a10:	00007517          	auipc	a0,0x7
    80002a14:	a5850513          	addi	a0,a0,-1448 # 80009468 <uip_buf>
    80002a18:	dd9ff06f          	j	800027f0 <uip_arp_out+0x5c>

0000000080002a1c <find_entry>:
    80002a1c:	00055583          	lhu	a1,0(a0)
    80002a20:	00007717          	auipc	a4,0x7
    80002a24:	9e870713          	addi	a4,a4,-1560 # 80009408 <entries>
    80002a28:	00000793          	li	a5,0
    80002a2c:	00070693          	mv	a3,a4
    80002a30:	00800613          	li	a2,8
    80002a34:	00075803          	lhu	a6,0(a4)
    80002a38:	02b81063          	bne	a6,a1,80002a58 <find_entry+0x3c>
    80002a3c:	00275883          	lhu	a7,2(a4)
    80002a40:	00255803          	lhu	a6,2(a0)
    80002a44:	01089a63          	bne	a7,a6,80002a58 <find_entry+0x3c>
    80002a48:	00c00713          	li	a4,12
    80002a4c:	02e787b3          	mul	a5,a5,a4
    80002a50:	00f68533          	add	a0,a3,a5
    80002a54:	00008067          	ret
    80002a58:	0017879b          	addiw	a5,a5,1
    80002a5c:	00c70713          	addi	a4,a4,12
    80002a60:	fcc79ae3          	bne	a5,a2,80002a34 <find_entry+0x18>
    80002a64:	00000513          	li	a0,0
    80002a68:	00008067          	ret

0000000080002a6c <uip_neighbor_init>:
    80002a6c:	00007797          	auipc	a5,0x7
    80002a70:	99c78793          	addi	a5,a5,-1636 # 80009408 <entries>
    80002a74:	f8000713          	li	a4,-128
    80002a78:	00e78523          	sb	a4,10(a5)
    80002a7c:	00e78b23          	sb	a4,22(a5)
    80002a80:	02e78123          	sb	a4,34(a5)
    80002a84:	02e78723          	sb	a4,46(a5)
    80002a88:	02e78d23          	sb	a4,58(a5)
    80002a8c:	04e78323          	sb	a4,70(a5)
    80002a90:	04e78923          	sb	a4,82(a5)
    80002a94:	04e78f23          	sb	a4,94(a5)
    80002a98:	00008067          	ret

0000000080002a9c <uip_neighbor_periodic>:
    80002a9c:	00007797          	auipc	a5,0x7
    80002aa0:	96c78793          	addi	a5,a5,-1684 # 80009408 <entries>
    80002aa4:	00007697          	auipc	a3,0x7
    80002aa8:	9c468693          	addi	a3,a3,-1596 # 80009468 <uip_buf>
    80002aac:	00a7c703          	lbu	a4,10(a5)
    80002ab0:	0187161b          	slliw	a2,a4,0x18
    80002ab4:	4186561b          	sraiw	a2,a2,0x18
    80002ab8:	00064663          	bltz	a2,80002ac4 <uip_neighbor_periodic+0x28>
    80002abc:	0017071b          	addiw	a4,a4,1
    80002ac0:	00e78523          	sb	a4,10(a5)
    80002ac4:	00c78793          	addi	a5,a5,12
    80002ac8:	fed792e3          	bne	a5,a3,80002aac <uip_neighbor_periodic+0x10>
    80002acc:	00008067          	ret

0000000080002ad0 <uip_neighbor_add>:
    80002ad0:	fe010113          	addi	sp,sp,-32
    80002ad4:	00813823          	sd	s0,16(sp)
    80002ad8:	00913423          	sd	s1,8(sp)
    80002adc:	00113c23          	sd	ra,24(sp)
    80002ae0:	0055c803          	lbu	a6,5(a1)
    80002ae4:	0045c783          	lbu	a5,4(a1)
    80002ae8:	0035c703          	lbu	a4,3(a1)
    80002aec:	0015c603          	lbu	a2,1(a1)
    80002af0:	0025c683          	lbu	a3,2(a1)
    80002af4:	00058413          	mv	s0,a1
    80002af8:	0005c583          	lbu	a1,0(a1)
    80002afc:	00050493          	mv	s1,a0
    80002b00:	00006517          	auipc	a0,0x6
    80002b04:	56050513          	addi	a0,a0,1376 # 80009060 <pow10.0+0x68>
    80002b08:	ffdfe0ef          	jal	ra,80001b04 <printf>
    80002b0c:	00007717          	auipc	a4,0x7
    80002b10:	8fc70713          	addi	a4,a4,-1796 # 80009408 <entries>
    80002b14:	00000593          	li	a1,0
    80002b18:	00000613          	li	a2,0
    80002b1c:	00000793          	li	a5,0
    80002b20:	00070513          	mv	a0,a4
    80002b24:	08000893          	li	a7,128
    80002b28:	00800813          	li	a6,8
    80002b2c:	00a74683          	lbu	a3,10(a4)
    80002b30:	03168c63          	beq	a3,a7,80002b68 <uip_neighbor_add+0x98>
    80002b34:	00075e03          	lhu	t3,0(a4)
    80002b38:	00045303          	lhu	t1,0(s0)
    80002b3c:	006e1863          	bne	t3,t1,80002b4c <uip_neighbor_add+0x7c>
    80002b40:	00275e03          	lhu	t3,2(a4)
    80002b44:	00245303          	lhu	t1,2(s0)
    80002b48:	026e0063          	beq	t3,t1,80002b68 <uip_neighbor_add+0x98>
    80002b4c:	00d5f663          	bgeu	a1,a3,80002b58 <uip_neighbor_add+0x88>
    80002b50:	00068593          	mv	a1,a3
    80002b54:	00078613          	mv	a2,a5
    80002b58:	0017879b          	addiw	a5,a5,1
    80002b5c:	00c70713          	addi	a4,a4,12
    80002b60:	fd0796e3          	bne	a5,a6,80002b2c <uip_neighbor_add+0x5c>
    80002b64:	00060793          	mv	a5,a2
    80002b68:	00c00713          	li	a4,12
    80002b6c:	02e787b3          	mul	a5,a5,a4
    80002b70:	00040593          	mv	a1,s0
    80002b74:	00600613          	li	a2,6
    80002b78:	00f50733          	add	a4,a0,a5
    80002b7c:	00070523          	sb	zero,10(a4)
    80002b80:	0004d683          	lhu	a3,0(s1)
    80002b84:	01013403          	ld	s0,16(sp)
    80002b88:	01813083          	ld	ra,24(sp)
    80002b8c:	00d71023          	sh	a3,0(a4)
    80002b90:	0024d683          	lhu	a3,2(s1)
    80002b94:	00813483          	ld	s1,8(sp)
    80002b98:	00478793          	addi	a5,a5,4
    80002b9c:	00d71123          	sh	a3,2(a4)
    80002ba0:	00f50533          	add	a0,a0,a5
    80002ba4:	02010113          	addi	sp,sp,32
    80002ba8:	1390406f          	j	800074e0 <memcpy>

0000000080002bac <uip_neighbor_update>:
    80002bac:	ff010113          	addi	sp,sp,-16
    80002bb0:	00113423          	sd	ra,8(sp)
    80002bb4:	e69ff0ef          	jal	ra,80002a1c <find_entry>
    80002bb8:	00050463          	beqz	a0,80002bc0 <uip_neighbor_update+0x14>
    80002bbc:	00050523          	sb	zero,10(a0)
    80002bc0:	00813083          	ld	ra,8(sp)
    80002bc4:	01010113          	addi	sp,sp,16
    80002bc8:	00008067          	ret

0000000080002bcc <uip_neighbor_lookup>:
    80002bcc:	ff010113          	addi	sp,sp,-16
    80002bd0:	00113423          	sd	ra,8(sp)
    80002bd4:	e49ff0ef          	jal	ra,80002a1c <find_entry>
    80002bd8:	00050463          	beqz	a0,80002be0 <uip_neighbor_lookup+0x14>
    80002bdc:	00450513          	addi	a0,a0,4
    80002be0:	00813083          	ld	ra,8(sp)
    80002be4:	01010113          	addi	sp,sp,16
    80002be8:	00008067          	ret

0000000080002bec <chksum>:
    80002bec:	fff60613          	addi	a2,a2,-1
    80002bf0:	00c58633          	add	a2,a1,a2
    80002bf4:	00058713          	mv	a4,a1
    80002bf8:	04c76663          	bltu	a4,a2,80002c44 <chksum+0x58>
    80002bfc:	fff58713          	addi	a4,a1,-1
    80002c00:	00000793          	li	a5,0
    80002c04:	00e66863          	bltu	a2,a4,80002c14 <chksum+0x28>
    80002c08:	40b607b3          	sub	a5,a2,a1
    80002c0c:	00178793          	addi	a5,a5,1
    80002c10:	ffe7f793          	andi	a5,a5,-2
    80002c14:	00f585b3          	add	a1,a1,a5
    80002c18:	02c59463          	bne	a1,a2,80002c40 <chksum+0x54>
    80002c1c:	00064783          	lbu	a5,0(a2)
    80002c20:	00879793          	slli	a5,a5,0x8
    80002c24:	00f5053b          	addw	a0,a0,a5
    80002c28:	03051513          	slli	a0,a0,0x30
    80002c2c:	03055513          	srli	a0,a0,0x30
    80002c30:	00f57863          	bgeu	a0,a5,80002c40 <chksum+0x54>
    80002c34:	0015051b          	addiw	a0,a0,1
    80002c38:	03051513          	slli	a0,a0,0x30
    80002c3c:	03055513          	srli	a0,a0,0x30
    80002c40:	00008067          	ret
    80002c44:	00074783          	lbu	a5,0(a4)
    80002c48:	00174683          	lbu	a3,1(a4)
    80002c4c:	0087979b          	slliw	a5,a5,0x8
    80002c50:	00d787bb          	addw	a5,a5,a3
    80002c54:	03079793          	slli	a5,a5,0x30
    80002c58:	0307d793          	srli	a5,a5,0x30
    80002c5c:	00f5053b          	addw	a0,a0,a5
    80002c60:	03051513          	slli	a0,a0,0x30
    80002c64:	03055513          	srli	a0,a0,0x30
    80002c68:	00f57863          	bgeu	a0,a5,80002c78 <chksum+0x8c>
    80002c6c:	0015051b          	addiw	a0,a0,1
    80002c70:	03051513          	slli	a0,a0,0x30
    80002c74:	03055513          	srli	a0,a0,0x30
    80002c78:	00270713          	addi	a4,a4,2
    80002c7c:	f7dff06f          	j	80002bf8 <chksum+0xc>

0000000080002c80 <upper_layer_chksum>:
    80002c80:	ff010113          	addi	sp,sp,-16
    80002c84:	00113423          	sd	ra,8(sp)
    80002c88:	00813023          	sd	s0,0(sp)
    80002c8c:	00006797          	auipc	a5,0x6
    80002c90:	7dc78793          	addi	a5,a5,2012 # 80009468 <uip_buf>
    80002c94:	0107c403          	lbu	s0,16(a5)
    80002c98:	0117c783          	lbu	a5,17(a5)
    80002c9c:	00800613          	li	a2,8
    80002ca0:	0084141b          	slliw	s0,s0,0x8
    80002ca4:	fec7879b          	addiw	a5,a5,-20
    80002ca8:	00f4043b          	addw	s0,s0,a5
    80002cac:	03041413          	slli	s0,s0,0x30
    80002cb0:	03045413          	srli	s0,s0,0x30
    80002cb4:	0085053b          	addw	a0,a0,s0
    80002cb8:	03051513          	slli	a0,a0,0x30
    80002cbc:	00006597          	auipc	a1,0x6
    80002cc0:	7c658593          	addi	a1,a1,1990 # 80009482 <uip_buf+0x1a>
    80002cc4:	03055513          	srli	a0,a0,0x30
    80002cc8:	f25ff0ef          	jal	ra,80002bec <chksum>
    80002ccc:	00040613          	mv	a2,s0
    80002cd0:	00006597          	auipc	a1,0x6
    80002cd4:	7ba58593          	addi	a1,a1,1978 # 8000948a <uip_buf+0x22>
    80002cd8:	f15ff0ef          	jal	ra,80002bec <chksum>
    80002cdc:	02050463          	beqz	a0,80002d04 <upper_layer_chksum+0x84>
    80002ce0:	0085179b          	slliw	a5,a0,0x8
    80002ce4:	0085551b          	srliw	a0,a0,0x8
    80002ce8:	00a7e533          	or	a0,a5,a0
    80002cec:	03051513          	slli	a0,a0,0x30
    80002cf0:	03055513          	srli	a0,a0,0x30
    80002cf4:	00813083          	ld	ra,8(sp)
    80002cf8:	00013403          	ld	s0,0(sp)
    80002cfc:	01010113          	addi	sp,sp,16
    80002d00:	00008067          	ret
    80002d04:	00010537          	lui	a0,0x10
    80002d08:	fff50513          	addi	a0,a0,-1 # ffff <_start-0x7fff0001>
    80002d0c:	fe9ff06f          	j	80002cf4 <upper_layer_chksum+0x74>

0000000080002d10 <uip_setipid>:
    80002d10:	00007797          	auipc	a5,0x7
    80002d14:	6aa79b23          	sh	a0,1718(a5) # 8000a3c6 <ipid>
    80002d18:	00008067          	ret

0000000080002d1c <uip_add32>:
    80002d1c:	00354603          	lbu	a2,3(a0)
    80002d20:	00007717          	auipc	a4,0x7
    80002d24:	6b070713          	addi	a4,a4,1712 # 8000a3d0 <uip_acc32>
    80002d28:	0085d813          	srli	a6,a1,0x8
    80002d2c:	00b6063b          	addw	a2,a2,a1
    80002d30:	0ff67613          	zext.b	a2,a2
    80002d34:	00c701a3          	sb	a2,3(a4)
    80002d38:	00254783          	lbu	a5,2(a0)
    80002d3c:	010787bb          	addw	a5,a5,a6
    80002d40:	0ff7f793          	zext.b	a5,a5
    80002d44:	00f70123          	sb	a5,2(a4)
    80002d48:	00154683          	lbu	a3,1(a0)
    80002d4c:	00d700a3          	sb	a3,1(a4)
    80002d50:	00054503          	lbu	a0,0(a0)
    80002d54:	00a70023          	sb	a0,0(a4)
    80002d58:	0107fe63          	bgeu	a5,a6,80002d74 <uip_add32+0x58>
    80002d5c:	0016869b          	addiw	a3,a3,1
    80002d60:	0ff6f693          	zext.b	a3,a3
    80002d64:	00d700a3          	sb	a3,1(a4)
    80002d68:	00069663          	bnez	a3,80002d74 <uip_add32+0x58>
    80002d6c:	0015051b          	addiw	a0,a0,1
    80002d70:	00a70023          	sb	a0,0(a4)
    80002d74:	0ff5f593          	zext.b	a1,a1
    80002d78:	02b65a63          	bge	a2,a1,80002dac <uip_add32+0x90>
    80002d7c:	0017879b          	addiw	a5,a5,1
    80002d80:	0ff7f793          	zext.b	a5,a5
    80002d84:	00f70123          	sb	a5,2(a4)
    80002d88:	02079263          	bnez	a5,80002dac <uip_add32+0x90>
    80002d8c:	00174783          	lbu	a5,1(a4)
    80002d90:	0017879b          	addiw	a5,a5,1
    80002d94:	0ff7f793          	zext.b	a5,a5
    80002d98:	00f700a3          	sb	a5,1(a4)
    80002d9c:	00079863          	bnez	a5,80002dac <uip_add32+0x90>
    80002da0:	00074783          	lbu	a5,0(a4)
    80002da4:	0017879b          	addiw	a5,a5,1
    80002da8:	00f70023          	sb	a5,0(a4)
    80002dac:	00008067          	ret

0000000080002db0 <uip_add_rcv_nxt>:
    80002db0:	ff010113          	addi	sp,sp,-16
    80002db4:	00813023          	sd	s0,0(sp)
    80002db8:	00007417          	auipc	s0,0x7
    80002dbc:	62840413          	addi	s0,s0,1576 # 8000a3e0 <uip_conn>
    80002dc0:	00050593          	mv	a1,a0
    80002dc4:	00043503          	ld	a0,0(s0)
    80002dc8:	00113423          	sd	ra,8(sp)
    80002dcc:	00850513          	addi	a0,a0,8
    80002dd0:	f4dff0ef          	jal	ra,80002d1c <uip_add32>
    80002dd4:	00043783          	ld	a5,0(s0)
    80002dd8:	00007717          	auipc	a4,0x7
    80002ddc:	5f872703          	lw	a4,1528(a4) # 8000a3d0 <uip_acc32>
    80002de0:	00e7a423          	sw	a4,8(a5)
    80002de4:	00813083          	ld	ra,8(sp)
    80002de8:	00013403          	ld	s0,0(sp)
    80002dec:	01010113          	addi	sp,sp,16
    80002df0:	00008067          	ret

0000000080002df4 <uip_chksum>:
    80002df4:	ff010113          	addi	sp,sp,-16
    80002df8:	00058613          	mv	a2,a1
    80002dfc:	00050593          	mv	a1,a0
    80002e00:	00000513          	li	a0,0
    80002e04:	00113423          	sd	ra,8(sp)
    80002e08:	de5ff0ef          	jal	ra,80002bec <chksum>
    80002e0c:	00813083          	ld	ra,8(sp)
    80002e10:	0085179b          	slliw	a5,a0,0x8
    80002e14:	0085551b          	srliw	a0,a0,0x8
    80002e18:	00a7e533          	or	a0,a5,a0
    80002e1c:	03051513          	slli	a0,a0,0x30
    80002e20:	03055513          	srli	a0,a0,0x30
    80002e24:	01010113          	addi	sp,sp,16
    80002e28:	00008067          	ret

0000000080002e2c <uip_ipchksum>:
    80002e2c:	ff010113          	addi	sp,sp,-16
    80002e30:	01400613          	li	a2,20
    80002e34:	00006597          	auipc	a1,0x6
    80002e38:	64258593          	addi	a1,a1,1602 # 80009476 <uip_buf+0xe>
    80002e3c:	00000513          	li	a0,0
    80002e40:	00113423          	sd	ra,8(sp)
    80002e44:	da9ff0ef          	jal	ra,80002bec <chksum>
    80002e48:	02050263          	beqz	a0,80002e6c <uip_ipchksum+0x40>
    80002e4c:	0085179b          	slliw	a5,a0,0x8
    80002e50:	0085551b          	srliw	a0,a0,0x8
    80002e54:	00a7e533          	or	a0,a5,a0
    80002e58:	03051513          	slli	a0,a0,0x30
    80002e5c:	03055513          	srli	a0,a0,0x30
    80002e60:	00813083          	ld	ra,8(sp)
    80002e64:	01010113          	addi	sp,sp,16
    80002e68:	00008067          	ret
    80002e6c:	00010537          	lui	a0,0x10
    80002e70:	fff50513          	addi	a0,a0,-1 # ffff <_start-0x7fff0001>
    80002e74:	fedff06f          	j	80002e60 <uip_ipchksum+0x34>

0000000080002e78 <uip_tcpchksum>:
    80002e78:	00600513          	li	a0,6
    80002e7c:	e05ff06f          	j	80002c80 <upper_layer_chksum>

0000000080002e80 <uip_udpchksum>:
    80002e80:	01100513          	li	a0,17
    80002e84:	dfdff06f          	j	80002c80 <upper_layer_chksum>

0000000080002e88 <uip_init>:
    80002e88:	00007797          	auipc	a5,0x7
    80002e8c:	0c078793          	addi	a5,a5,192 # 80009f48 <uip_listenports>
    80002e90:	00007717          	auipc	a4,0x7
    80002e94:	10870713          	addi	a4,a4,264 # 80009f98 <uip_stat>
    80002e98:	06e79063          	bne	a5,a4,80002ef8 <uip_init+0x70>
    80002e9c:	00007797          	auipc	a5,0x7
    80002ea0:	bac78793          	addi	a5,a5,-1108 # 80009a48 <uip_conns>
    80002ea4:	00007717          	auipc	a4,0x7
    80002ea8:	0c470713          	addi	a4,a4,196 # 80009f68 <uip_listenports+0x20>
    80002eac:	02078793          	addi	a5,a5,32
    80002eb0:	04e79a63          	bne	a5,a4,80002f04 <uip_init+0x7c>
    80002eb4:	40000793          	li	a5,1024
    80002eb8:	00007717          	auipc	a4,0x7
    80002ebc:	50f71a23          	sh	a5,1300(a4) # 8000a3cc <lastport>
    80002ec0:	00007797          	auipc	a5,0x7
    80002ec4:	4e078d23          	sb	zero,1274(a5) # 8000a3ba <c>
    80002ec8:	00007797          	auipc	a5,0x7
    80002ecc:	10878793          	addi	a5,a5,264 # 80009fd0 <uip_udp_conns>
    80002ed0:	00007697          	auipc	a3,0x7
    80002ed4:	4c868693          	addi	a3,a3,1224 # 8000a398 <__malloc_current_mallinfo+0x10>
    80002ed8:	00000713          	li	a4,0
    80002edc:	05878793          	addi	a5,a5,88
    80002ee0:	02d79663          	bne	a5,a3,80002f0c <uip_init+0x84>
    80002ee4:	00070863          	beqz	a4,80002ef4 <uip_init+0x6c>
    80002ee8:	00a00793          	li	a5,10
    80002eec:	00007717          	auipc	a4,0x7
    80002ef0:	4cf70723          	sb	a5,1230(a4) # 8000a3ba <c>
    80002ef4:	00008067          	ret
    80002ef8:	00079023          	sh	zero,0(a5)
    80002efc:	00278793          	addi	a5,a5,2
    80002f00:	f99ff06f          	j	80002e98 <uip_init+0x10>
    80002f04:	fe078ca3          	sb	zero,-7(a5)
    80002f08:	fa5ff06f          	j	80002eac <uip_init+0x24>
    80002f0c:	fa079623          	sh	zero,-84(a5)
    80002f10:	00100713          	li	a4,1
    80002f14:	fc9ff06f          	j	80002edc <uip_init+0x54>

0000000080002f18 <uip_connect>:
    80002f18:	00007317          	auipc	t1,0x7
    80002f1c:	4b430313          	addi	t1,t1,1204 # 8000a3cc <lastport>
    80002f20:	00035783          	lhu	a5,0(t1)
    80002f24:	000088b7          	lui	a7,0x8
    80002f28:	00050613          	mv	a2,a0
    80002f2c:	cff88893          	addi	a7,a7,-769 # 7cff <_start-0x7fff8301>
    80002f30:	02800e13          	li	t3,40
    80002f34:	0017879b          	addiw	a5,a5,1
    80002f38:	03079793          	slli	a5,a5,0x30
    80002f3c:	0307d793          	srli	a5,a5,0x30
    80002f40:	00f8f463          	bgeu	a7,a5,80002f48 <uip_connect+0x30>
    80002f44:	000017b7          	lui	a5,0x1
    80002f48:	0087d69b          	srliw	a3,a5,0x8
    80002f4c:	0087971b          	slliw	a4,a5,0x8
    80002f50:	00d76733          	or	a4,a4,a3
    80002f54:	03071713          	slli	a4,a4,0x30
    80002f58:	03075713          	srli	a4,a4,0x30
    80002f5c:	00007697          	auipc	a3,0x7
    80002f60:	aec68693          	addi	a3,a3,-1300 # 80009a48 <uip_conns>
    80002f64:	00068513          	mv	a0,a3
    80002f68:	00000813          	li	a6,0
    80002f6c:	00070e9b          	sext.w	t4,a4
    80002f70:	05c81063          	bne	a6,t3,80002fb0 <uip_connect+0x98>
    80002f74:	00f31023          	sh	a5,0(t1)
    80002f78:	00007797          	auipc	a5,0x7
    80002f7c:	44078123          	sb	zero,1090(a5) # 8000a3ba <c>
    80002f80:	00000793          	li	a5,0
    80002f84:	00000813          	li	a6,0
    80002f88:	00000513          	li	a0,0
    80002f8c:	02800313          	li	t1,40
    80002f90:	00700e93          	li	t4,7
    80002f94:	0ff7fe13          	zext.b	t3,a5
    80002f98:	02679a63          	bne	a5,t1,80002fcc <uip_connect+0xb4>
    80002f9c:	00080663          	beqz	a6,80002fa8 <uip_connect+0x90>
    80002fa0:	00007697          	auipc	a3,0x7
    80002fa4:	40f68d23          	sb	a5,1050(a3) # 8000a3ba <c>
    80002fa8:	02051e63          	bnez	a0,80002fe4 <uip_connect+0xcc>
    80002fac:	00008067          	ret
    80002fb0:	01954f03          	lbu	t5,25(a0)
    80002fb4:	000f0663          	beqz	t5,80002fc0 <uip_connect+0xa8>
    80002fb8:	00455f03          	lhu	t5,4(a0)
    80002fbc:	f7df0ce3          	beq	t5,t4,80002f34 <uip_connect+0x1c>
    80002fc0:	0018081b          	addiw	a6,a6,1
    80002fc4:	02050513          	addi	a0,a0,32
    80002fc8:	fa9ff06f          	j	80002f70 <uip_connect+0x58>
    80002fcc:	0196c883          	lbu	a7,25(a3)
    80002fd0:	04089a63          	bnez	a7,80003024 <uip_connect+0x10c>
    80002fd4:	00080663          	beqz	a6,80002fe0 <uip_connect+0xc8>
    80002fd8:	00007797          	auipc	a5,0x7
    80002fdc:	3fc78123          	sb	t3,994(a5) # 8000a3ba <c>
    80002fe0:	00068513          	mv	a0,a3
    80002fe4:	00007797          	auipc	a5,0x7
    80002fe8:	3e47a783          	lw	a5,996(a5) # 8000a3c8 <iss>
    80002fec:	00f52623          	sw	a5,12(a0)
    80002ff0:	00005797          	auipc	a5,0x5
    80002ff4:	f407b783          	ld	a5,-192(a5) # 80007f30 <__errno+0xa8>
    80002ff8:	00f53823          	sd	a5,16(a0)
    80002ffc:	000107b7          	lui	a5,0x10
    80003000:	20378793          	addi	a5,a5,515 # 10203 <_start-0x7ffefdfd>
    80003004:	00f52c23          	sw	a5,24(a0)
    80003008:	00e51223          	sh	a4,4(a0)
    8000300c:	00b51323          	sh	a1,6(a0)
    80003010:	00065783          	lhu	a5,0(a2)
    80003014:	00f51023          	sh	a5,0(a0)
    80003018:	00265783          	lhu	a5,2(a2)
    8000301c:	00f51123          	sh	a5,2(a0)
    80003020:	f8dff06f          	j	80002fac <uip_connect+0x94>
    80003024:	01d89c63          	bne	a7,t4,8000303c <uip_connect+0x124>
    80003028:	00050863          	beqz	a0,80003038 <uip_connect+0x120>
    8000302c:	01a6c883          	lbu	a7,26(a3)
    80003030:	01a54803          	lbu	a6,26(a0)
    80003034:	01187463          	bgeu	a6,a7,8000303c <uip_connect+0x124>
    80003038:	00068513          	mv	a0,a3
    8000303c:	0017879b          	addiw	a5,a5,1
    80003040:	02068693          	addi	a3,a3,32
    80003044:	00100813          	li	a6,1
    80003048:	f4dff06f          	j	80002f94 <uip_connect+0x7c>

000000008000304c <uip_udp_new>:
    8000304c:	00007317          	auipc	t1,0x7
    80003050:	38030313          	addi	t1,t1,896 # 8000a3cc <lastport>
    80003054:	00035783          	lhu	a5,0(t1)
    80003058:	fe010113          	addi	sp,sp,-32
    8000305c:	000088b7          	lui	a7,0x8
    80003060:	00113c23          	sd	ra,24(sp)
    80003064:	00813823          	sd	s0,16(sp)
    80003068:	00913423          	sd	s1,8(sp)
    8000306c:	01213023          	sd	s2,0(sp)
    80003070:	cff88893          	addi	a7,a7,-769 # 7cff <_start-0x7fff8301>
    80003074:	00a00e13          	li	t3,10
    80003078:	0017879b          	addiw	a5,a5,1
    8000307c:	03079793          	slli	a5,a5,0x30
    80003080:	0307d793          	srli	a5,a5,0x30
    80003084:	00f8f463          	bgeu	a7,a5,8000308c <uip_udp_new+0x40>
    80003088:	000017b7          	lui	a5,0x1
    8000308c:	0087d69b          	srliw	a3,a5,0x8
    80003090:	0087971b          	slliw	a4,a5,0x8
    80003094:	00d76733          	or	a4,a4,a3
    80003098:	03071713          	slli	a4,a4,0x30
    8000309c:	00007697          	auipc	a3,0x7
    800030a0:	f3468693          	addi	a3,a3,-204 # 80009fd0 <uip_udp_conns>
    800030a4:	03075713          	srli	a4,a4,0x30
    800030a8:	00068813          	mv	a6,a3
    800030ac:	00000613          	li	a2,0
    800030b0:	00068493          	mv	s1,a3
    800030b4:	00070e9b          	sext.w	t4,a4
    800030b8:	05c61863          	bne	a2,t3,80003108 <uip_udp_new+0xbc>
    800030bc:	00f31023          	sh	a5,0(t1)
    800030c0:	00007797          	auipc	a5,0x7
    800030c4:	2e078d23          	sb	zero,762(a5) # 8000a3ba <c>
    800030c8:	00000793          	li	a5,0
    800030cc:	00000613          	li	a2,0
    800030d0:	00a00813          	li	a6,10
    800030d4:	0ff7f893          	zext.b	a7,a5
    800030d8:	05079263          	bne	a5,a6,8000311c <uip_udp_new+0xd0>
    800030dc:	00060663          	beqz	a2,800030e8 <uip_udp_new+0x9c>
    800030e0:	00007717          	auipc	a4,0x7
    800030e4:	2cf70d23          	sb	a5,730(a4) # 8000a3ba <c>
    800030e8:	00000413          	li	s0,0
    800030ec:	01813083          	ld	ra,24(sp)
    800030f0:	00040513          	mv	a0,s0
    800030f4:	01013403          	ld	s0,16(sp)
    800030f8:	00813483          	ld	s1,8(sp)
    800030fc:	00013903          	ld	s2,0(sp)
    80003100:	02010113          	addi	sp,sp,32
    80003104:	00008067          	ret
    80003108:	00485f03          	lhu	t5,4(a6)
    8000310c:	0016061b          	addiw	a2,a2,1
    80003110:	05880813          	addi	a6,a6,88
    80003114:	fbdf12e3          	bne	t5,t4,800030b8 <uip_udp_new+0x6c>
    80003118:	f61ff06f          	j	80003078 <uip_udp_new+0x2c>
    8000311c:	0046d303          	lhu	t1,4(a3)
    80003120:	0007891b          	sext.w	s2,a5
    80003124:	05868693          	addi	a3,a3,88
    80003128:	0017879b          	addiw	a5,a5,1
    8000312c:	04031863          	bnez	t1,8000317c <uip_udp_new+0x130>
    80003130:	00060663          	beqz	a2,8000313c <uip_udp_new+0xf0>
    80003134:	00007797          	auipc	a5,0x7
    80003138:	29178323          	sb	a7,646(a5) # 8000a3ba <c>
    8000313c:	05800413          	li	s0,88
    80003140:	02890433          	mul	s0,s2,s0
    80003144:	00848433          	add	s0,s1,s0
    80003148:	00e41223          	sh	a4,4(s0)
    8000314c:	00b41323          	sh	a1,6(s0)
    80003150:	02051a63          	bnez	a0,80003184 <uip_udp_new+0x138>
    80003154:	00400613          	li	a2,4
    80003158:	00000593          	li	a1,0
    8000315c:	00040513          	mv	a0,s0
    80003160:	4a8040ef          	jal	ra,80007608 <memset>
    80003164:	05800793          	li	a5,88
    80003168:	02f90933          	mul	s2,s2,a5
    8000316c:	04000793          	li	a5,64
    80003170:	012484b3          	add	s1,s1,s2
    80003174:	00f48423          	sb	a5,8(s1)
    80003178:	f75ff06f          	j	800030ec <uip_udp_new+0xa0>
    8000317c:	00100613          	li	a2,1
    80003180:	f55ff06f          	j	800030d4 <uip_udp_new+0x88>
    80003184:	00055783          	lhu	a5,0(a0)
    80003188:	00f41023          	sh	a5,0(s0)
    8000318c:	00255783          	lhu	a5,2(a0)
    80003190:	00f41123          	sh	a5,2(s0)
    80003194:	fd1ff06f          	j	80003164 <uip_udp_new+0x118>

0000000080003198 <uip_unlisten>:
    80003198:	00007797          	auipc	a5,0x7
    8000319c:	22078123          	sb	zero,546(a5) # 8000a3ba <c>
    800031a0:	00007717          	auipc	a4,0x7
    800031a4:	da870713          	addi	a4,a4,-600 # 80009f48 <uip_listenports>
    800031a8:	00000793          	li	a5,0
    800031ac:	00000693          	li	a3,0
    800031b0:	00070613          	mv	a2,a4
    800031b4:	02800813          	li	a6,40
    800031b8:	0ff7f893          	zext.b	a7,a5
    800031bc:	01079a63          	bne	a5,a6,800031d0 <uip_unlisten+0x38>
    800031c0:	00068663          	beqz	a3,800031cc <uip_unlisten+0x34>
    800031c4:	00007717          	auipc	a4,0x7
    800031c8:	1ef70b23          	sb	a5,502(a4) # 8000a3ba <c>
    800031cc:	00008067          	ret
    800031d0:	00075303          	lhu	t1,0(a4)
    800031d4:	0007859b          	sext.w	a1,a5
    800031d8:	00270713          	addi	a4,a4,2
    800031dc:	0017879b          	addiw	a5,a5,1
    800031e0:	02a31063          	bne	t1,a0,80003200 <uip_unlisten+0x68>
    800031e4:	00068663          	beqz	a3,800031f0 <uip_unlisten+0x58>
    800031e8:	00007797          	auipc	a5,0x7
    800031ec:	1d178923          	sb	a7,466(a5) # 8000a3ba <c>
    800031f0:	00159793          	slli	a5,a1,0x1
    800031f4:	00f60633          	add	a2,a2,a5
    800031f8:	00061023          	sh	zero,0(a2)
    800031fc:	00008067          	ret
    80003200:	00100693          	li	a3,1
    80003204:	fb5ff06f          	j	800031b8 <uip_unlisten+0x20>

0000000080003208 <uip_listen>:
    80003208:	00007797          	auipc	a5,0x7
    8000320c:	1a078923          	sb	zero,434(a5) # 8000a3ba <c>
    80003210:	00007717          	auipc	a4,0x7
    80003214:	d3870713          	addi	a4,a4,-712 # 80009f48 <uip_listenports>
    80003218:	00000793          	li	a5,0
    8000321c:	00000693          	li	a3,0
    80003220:	00070613          	mv	a2,a4
    80003224:	02800813          	li	a6,40
    80003228:	0ff7f893          	zext.b	a7,a5
    8000322c:	01079a63          	bne	a5,a6,80003240 <uip_listen+0x38>
    80003230:	00068663          	beqz	a3,8000323c <uip_listen+0x34>
    80003234:	00007717          	auipc	a4,0x7
    80003238:	18f70323          	sb	a5,390(a4) # 8000a3ba <c>
    8000323c:	00008067          	ret
    80003240:	00075303          	lhu	t1,0(a4)
    80003244:	0007859b          	sext.w	a1,a5
    80003248:	00270713          	addi	a4,a4,2
    8000324c:	0017879b          	addiw	a5,a5,1
    80003250:	02031063          	bnez	t1,80003270 <uip_listen+0x68>
    80003254:	00068663          	beqz	a3,80003260 <uip_listen+0x58>
    80003258:	00007797          	auipc	a5,0x7
    8000325c:	17178123          	sb	a7,354(a5) # 8000a3ba <c>
    80003260:	00159793          	slli	a5,a1,0x1
    80003264:	00f60633          	add	a2,a2,a5
    80003268:	00a61023          	sh	a0,0(a2)
    8000326c:	00008067          	ret
    80003270:	00100693          	li	a3,1
    80003274:	fb5ff06f          	j	80003228 <uip_listen+0x20>

0000000080003278 <uip_process>:
    80003278:	f9010113          	addi	sp,sp,-112
    8000327c:	06813023          	sd	s0,96(sp)
    80003280:	03713423          	sd	s7,40(sp)
    80003284:	06113423          	sd	ra,104(sp)
    80003288:	00007b97          	auipc	s7,0x7
    8000328c:	158b8b93          	addi	s7,s7,344 # 8000a3e0 <uip_conn>
    80003290:	04913c23          	sd	s1,88(sp)
    80003294:	05213823          	sd	s2,80(sp)
    80003298:	05313423          	sd	s3,72(sp)
    8000329c:	05413023          	sd	s4,64(sp)
    800032a0:	03513c23          	sd	s5,56(sp)
    800032a4:	03613823          	sd	s6,48(sp)
    800032a8:	03813023          	sd	s8,32(sp)
    800032ac:	01913c23          	sd	s9,24(sp)
    800032b0:	01a13823          	sd	s10,16(sp)
    800032b4:	01b13423          	sd	s11,8(sp)
    800032b8:	00400793          	li	a5,4
    800032bc:	000bb403          	ld	s0,0(s7)
    800032c0:	28f50263          	beq	a0,a5,80003544 <uip_process+0x2cc>
    800032c4:	00006797          	auipc	a5,0x6
    800032c8:	1da78793          	addi	a5,a5,474 # 8000949e <uip_buf+0x36>
    800032cc:	00007a97          	auipc	s5,0x7
    800032d0:	10ca8a93          	addi	s5,s5,268 # 8000a3d8 <uip_appdata>
    800032d4:	00007b17          	auipc	s6,0x7
    800032d8:	134b0b13          	addi	s6,s6,308 # 8000a408 <uip_sappdata>
    800032dc:	00fab023          	sd	a5,0(s5)
    800032e0:	00fb3023          	sd	a5,0(s6)
    800032e4:	00300793          	li	a5,3
    800032e8:	00006497          	auipc	s1,0x6
    800032ec:	18048493          	addi	s1,s1,384 # 80009468 <uip_buf>
    800032f0:	04f51663          	bne	a0,a5,8000333c <uip_process+0xc4>
    800032f4:	01944783          	lbu	a5,25(s0)
    800032f8:	00f7f793          	andi	a5,a5,15
    800032fc:	0ca79a63          	bne	a5,a0,800033d0 <uip_process+0x158>
    80003300:	01045783          	lhu	a5,16(s0)
    80003304:	0c079663          	bnez	a5,800033d0 <uip_process+0x158>
    80003308:	00800793          	li	a5,8
    8000330c:	00007717          	auipc	a4,0x7
    80003310:	0ef70523          	sb	a5,234(a4) # 8000a3f6 <uip_flags>
    80003314:	584010ef          	jal	ra,80004898 <dhcpc_appcall>
    80003318:	00007797          	auipc	a5,0x7
    8000331c:	0de7c783          	lbu	a5,222(a5) # 8000a3f6 <uip_flags>
    80003320:	0207f713          	andi	a4,a5,32
    80003324:	00071463          	bnez	a4,8000332c <uip_process+0xb4>
    80003328:	0080106f          	j	80004330 <uip_process+0x10b8>
    8000332c:	00007797          	auipc	a5,0x7
    80003330:	0e079223          	sh	zero,228(a5) # 8000a410 <uip_slen>
    80003334:	00040ca3          	sb	zero,25(s0)
    80003338:	0f40006f          	j	8000342c <uip_process+0x1b4>
    8000333c:	00200793          	li	a5,2
    80003340:	1af51a63          	bne	a0,a5,800034f4 <uip_process+0x27c>
    80003344:	00007797          	auipc	a5,0x7
    80003348:	08478793          	addi	a5,a5,132 # 8000a3c8 <iss>
    8000334c:	0037c703          	lbu	a4,3(a5)
    80003350:	0017071b          	addiw	a4,a4,1
    80003354:	0ff77713          	zext.b	a4,a4
    80003358:	00e781a3          	sb	a4,3(a5)
    8000335c:	02071c63          	bnez	a4,80003394 <uip_process+0x11c>
    80003360:	0027c703          	lbu	a4,2(a5)
    80003364:	0017071b          	addiw	a4,a4,1
    80003368:	0ff77713          	zext.b	a4,a4
    8000336c:	00e78123          	sb	a4,2(a5)
    80003370:	02071263          	bnez	a4,80003394 <uip_process+0x11c>
    80003374:	0017c703          	lbu	a4,1(a5)
    80003378:	0017071b          	addiw	a4,a4,1
    8000337c:	0ff77713          	zext.b	a4,a4
    80003380:	00e780a3          	sb	a4,1(a5)
    80003384:	00071863          	bnez	a4,80003394 <uip_process+0x11c>
    80003388:	0007c703          	lbu	a4,0(a5)
    8000338c:	0017071b          	addiw	a4,a4,1
    80003390:	00e78023          	sb	a4,0(a5)
    80003394:	00007797          	auipc	a5,0x7
    80003398:	06079423          	sh	zero,104(a5) # 8000a3fc <uip_len>
    8000339c:	00007797          	auipc	a5,0x7
    800033a0:	06079a23          	sh	zero,116(a5) # 8000a410 <uip_slen>
    800033a4:	01944783          	lbu	a5,25(s0)
    800033a8:	00500593          	li	a1,5
    800033ac:	0fd7f713          	andi	a4,a5,253
    800033b0:	02b71663          	bne	a4,a1,800033dc <uip_process+0x164>
    800033b4:	01a44783          	lbu	a5,26(s0)
    800033b8:	07800713          	li	a4,120
    800033bc:	0017879b          	addiw	a5,a5,1
    800033c0:	0ff7f793          	zext.b	a5,a5
    800033c4:	00f40d23          	sb	a5,26(s0)
    800033c8:	00e79463          	bne	a5,a4,800033d0 <uip_process+0x158>
    800033cc:	00040ca3          	sb	zero,25(s0)
    800033d0:	00007797          	auipc	a5,0x7
    800033d4:	02079623          	sh	zero,44(a5) # 8000a3fc <uip_len>
    800033d8:	55c0006f          	j	80003934 <uip_process+0x6bc>
    800033dc:	fe078ae3          	beqz	a5,800033d0 <uip_process+0x158>
    800033e0:	01045703          	lhu	a4,16(s0)
    800033e4:	10070063          	beqz	a4,800034e4 <uip_process+0x26c>
    800033e8:	01a44683          	lbu	a3,26(s0)
    800033ec:	fff6871b          	addiw	a4,a3,-1
    800033f0:	00e40d23          	sb	a4,26(s0)
    800033f4:	fc069ee3          	bnez	a3,800033d0 <uip_process+0x158>
    800033f8:	01b44703          	lbu	a4,27(s0)
    800033fc:	00800613          	li	a2,8
    80003400:	00c70c63          	beq	a4,a2,80003418 <uip_process+0x1a0>
    80003404:	fff7861b          	addiw	a2,a5,-1
    80003408:	0ff67613          	zext.b	a2,a2
    8000340c:	00100513          	li	a0,1
    80003410:	02c56263          	bltu	a0,a2,80003434 <uip_process+0x1bc>
    80003414:	02b71063          	bne	a4,a1,80003434 <uip_process+0x1bc>
    80003418:	f8000793          	li	a5,-128
    8000341c:	00040ca3          	sb	zero,25(s0)
    80003420:	00007717          	auipc	a4,0x7
    80003424:	fcf70b23          	sb	a5,-42(a4) # 8000a3f6 <uip_flags>
    80003428:	470010ef          	jal	ra,80004898 <dhcpc_appcall>
    8000342c:	01400793          	li	a5,20
    80003430:	6490006f          	j	80004278 <uip_process+0x1000>
    80003434:	00400613          	li	a2,4
    80003438:	00070593          	mv	a1,a4
    8000343c:	00e67463          	bgeu	a2,a4,80003444 <uip_process+0x1cc>
    80003440:	00400593          	li	a1,4
    80003444:	00300613          	li	a2,3
    80003448:	00b6163b          	sllw	a2,a2,a1
    8000344c:	0017071b          	addiw	a4,a4,1
    80003450:	00c40d23          	sb	a2,26(s0)
    80003454:	00e40da3          	sb	a4,27(s0)
    80003458:	00007617          	auipc	a2,0x7
    8000345c:	b4060613          	addi	a2,a2,-1216 # 80009f98 <uip_stat>
    80003460:	02665703          	lhu	a4,38(a2)
    80003464:	00f7f793          	andi	a5,a5,15
    80003468:	fff7879b          	addiw	a5,a5,-1
    8000346c:	0017071b          	addiw	a4,a4,1
    80003470:	02e61323          	sh	a4,38(a2)
    80003474:	0ff7f793          	zext.b	a5,a5
    80003478:	00700713          	li	a4,7
    8000347c:	f4f76ae3          	bltu	a4,a5,800033d0 <uip_process+0x158>
    80003480:	00006717          	auipc	a4,0x6
    80003484:	d9070713          	addi	a4,a4,-624 # 80009210 <pow10.0+0x218>
    80003488:	00279793          	slli	a5,a5,0x2
    8000348c:	00e787b3          	add	a5,a5,a4
    80003490:	0007a783          	lw	a5,0(a5)
    80003494:	00e787b3          	add	a5,a5,a4
    80003498:	00078067          	jr	a5
    8000349c:	00400793          	li	a5,4
    800034a0:	00007717          	auipc	a4,0x7
    800034a4:	f4f70b23          	sb	a5,-170(a4) # 8000a3f6 <uip_flags>
    800034a8:	3f0010ef          	jal	ra,80004898 <dhcpc_appcall>
    800034ac:	000b3783          	ld	a5,0(s6)
    800034b0:	00fab023          	sd	a5,0(s5)
    800034b4:	00007797          	auipc	a5,0x7
    800034b8:	f5c7d783          	lhu	a5,-164(a5) # 8000a410 <uip_slen>
    800034bc:	6c078ee3          	beqz	a5,80004398 <uip_process+0x1120>
    800034c0:	01045783          	lhu	a5,16(s0)
    800034c4:	6c078ae3          	beqz	a5,80004398 <uip_process+0x1120>
    800034c8:	0287879b          	addiw	a5,a5,40
    800034cc:	00007717          	auipc	a4,0x7
    800034d0:	f2f71823          	sh	a5,-208(a4) # 8000a3fc <uip_len>
    800034d4:	01800793          	li	a5,24
    800034d8:	02f487a3          	sb	a5,47(s1)
    800034dc:	05000793          	li	a5,80
    800034e0:	1790006f          	j	80003e58 <uip_process+0xbe0>
    800034e4:	00f7f793          	andi	a5,a5,15
    800034e8:	00300713          	li	a4,3
    800034ec:	eee792e3          	bne	a5,a4,800033d0 <uip_process+0x158>
    800034f0:	e19ff06f          	j	80003308 <uip_process+0x90>
    800034f4:	00500793          	li	a5,5
    800034f8:	18f51863          	bne	a0,a5,80003688 <uip_process+0x410>
    800034fc:	00007797          	auipc	a5,0x7
    80003500:	f1c7b783          	ld	a5,-228(a5) # 8000a418 <uip_udp_conn>
    80003504:	0047d783          	lhu	a5,4(a5)
    80003508:	ec0784e3          	beqz	a5,800033d0 <uip_process+0x158>
    8000350c:	00007797          	auipc	a5,0x7
    80003510:	ec07ba23          	sd	zero,-300(a5) # 8000a3e0 <uip_conn>
    80003514:	00006797          	auipc	a5,0x6
    80003518:	f7e78793          	addi	a5,a5,-130 # 80009492 <uip_buf+0x2a>
    8000351c:	00fab023          	sd	a5,0(s5)
    80003520:	00fb3023          	sd	a5,0(s6)
    80003524:	00007797          	auipc	a5,0x7
    80003528:	ee079623          	sh	zero,-276(a5) # 8000a410 <uip_slen>
    8000352c:	00007797          	auipc	a5,0x7
    80003530:	ec079823          	sh	zero,-304(a5) # 8000a3fc <uip_len>
    80003534:	00800793          	li	a5,8
    80003538:	00007717          	auipc	a4,0x7
    8000353c:	eaf70f23          	sb	a5,-322(a4) # 8000a3f6 <uip_flags>
    80003540:	358010ef          	jal	ra,80004898 <dhcpc_appcall>
    80003544:	00007797          	auipc	a5,0x7
    80003548:	ecc7d783          	lhu	a5,-308(a5) # 8000a410 <uip_slen>
    8000354c:	e80782e3          	beqz	a5,800033d0 <uip_process+0x158>
    80003550:	01c7871b          	addiw	a4,a5,28
    80003554:	03071713          	slli	a4,a4,0x30
    80003558:	03075713          	srli	a4,a4,0x30
    8000355c:	00007697          	auipc	a3,0x7
    80003560:	eae69023          	sh	a4,-352(a3) # 8000a3fc <uip_len>
    80003564:	0087169b          	slliw	a3,a4,0x8
    80003568:	0087571b          	srliw	a4,a4,0x8
    8000356c:	00006417          	auipc	s0,0x6
    80003570:	efc40413          	addi	s0,s0,-260 # 80009468 <uip_buf>
    80003574:	00e6e733          	or	a4,a3,a4
    80003578:	00e41823          	sh	a4,16(s0)
    8000357c:	00007717          	auipc	a4,0x7
    80003580:	e9c73703          	ld	a4,-356(a4) # 8000a418 <uip_udp_conn>
    80003584:	00874683          	lbu	a3,8(a4)
    80003588:	0087879b          	addiw	a5,a5,8
    8000358c:	00d40b23          	sb	a3,22(s0)
    80003590:	01100693          	li	a3,17
    80003594:	00d40ba3          	sb	a3,23(s0)
    80003598:	0087969b          	slliw	a3,a5,0x8
    8000359c:	0107979b          	slliw	a5,a5,0x10
    800035a0:	0107d79b          	srliw	a5,a5,0x10
    800035a4:	0087d79b          	srliw	a5,a5,0x8
    800035a8:	00f6e7b3          	or	a5,a3,a5
    800035ac:	02f41323          	sh	a5,38(s0)
    800035b0:	00006797          	auipc	a5,0x6
    800035b4:	ee079023          	sh	zero,-288(a5) # 80009490 <uip_buf+0x28>
    800035b8:	00475783          	lhu	a5,4(a4)
    800035bc:	02f41123          	sh	a5,34(s0)
    800035c0:	00675783          	lhu	a5,6(a4)
    800035c4:	02f41223          	sh	a5,36(s0)
    800035c8:	00007797          	auipc	a5,0x7
    800035cc:	e3078793          	addi	a5,a5,-464 # 8000a3f8 <uip_hostaddr>
    800035d0:	0007d683          	lhu	a3,0(a5)
    800035d4:	0027d783          	lhu	a5,2(a5)
    800035d8:	00d41d23          	sh	a3,26(s0)
    800035dc:	00f41e23          	sh	a5,28(s0)
    800035e0:	00075783          	lhu	a5,0(a4)
    800035e4:	00f41f23          	sh	a5,30(s0)
    800035e8:	00275783          	lhu	a5,2(a4)
    800035ec:	02f41023          	sh	a5,32(s0)
    800035f0:	00006797          	auipc	a5,0x6
    800035f4:	eae78793          	addi	a5,a5,-338 # 8000949e <uip_buf+0x36>
    800035f8:	00007717          	auipc	a4,0x7
    800035fc:	def73023          	sd	a5,-544(a4) # 8000a3d8 <uip_appdata>
    80003600:	881ff0ef          	jal	ra,80002e80 <uip_udpchksum>
    80003604:	fff54513          	not	a0,a0
    80003608:	03051513          	slli	a0,a0,0x30
    8000360c:	03055513          	srli	a0,a0,0x30
    80003610:	40050c63          	beqz	a0,80003a28 <uip_process+0x7b0>
    80003614:	02a41423          	sh	a0,40(s0)
    80003618:	00006417          	auipc	s0,0x6
    8000361c:	e5040413          	addi	s0,s0,-432 # 80009468 <uip_buf>
    80003620:	04500793          	li	a5,69
    80003624:	00f41723          	sh	a5,14(s0)
    80003628:	00007717          	auipc	a4,0x7
    8000362c:	d9e70713          	addi	a4,a4,-610 # 8000a3c6 <ipid>
    80003630:	00006797          	auipc	a5,0x6
    80003634:	e4079623          	sh	zero,-436(a5) # 8000947c <uip_buf+0x14>
    80003638:	00075783          	lhu	a5,0(a4)
    8000363c:	0017879b          	addiw	a5,a5,1
    80003640:	03079793          	slli	a5,a5,0x30
    80003644:	0307d793          	srli	a5,a5,0x30
    80003648:	00f71023          	sh	a5,0(a4)
    8000364c:	0087971b          	slliw	a4,a5,0x8
    80003650:	0087d79b          	srliw	a5,a5,0x8
    80003654:	00f767b3          	or	a5,a4,a5
    80003658:	00f41923          	sh	a5,18(s0)
    8000365c:	00006797          	auipc	a5,0x6
    80003660:	e2079223          	sh	zero,-476(a5) # 80009480 <uip_buf+0x18>
    80003664:	fc8ff0ef          	jal	ra,80002e2c <uip_ipchksum>
    80003668:	00007717          	auipc	a4,0x7
    8000366c:	93070713          	addi	a4,a4,-1744 # 80009f98 <uip_stat>
    80003670:	01e75783          	lhu	a5,30(a4)
    80003674:	fff54513          	not	a0,a0
    80003678:	00a41c23          	sh	a0,24(s0)
    8000367c:	0017879b          	addiw	a5,a5,1
    80003680:	00f71f23          	sh	a5,30(a4)
    80003684:	29c0006f          	j	80003920 <uip_process+0x6a8>
    80003688:	00007917          	auipc	s2,0x7
    8000368c:	91090913          	addi	s2,s2,-1776 # 80009f98 <uip_stat>
    80003690:	00295783          	lhu	a5,2(s2)
    80003694:	00e4c703          	lbu	a4,14(s1)
    80003698:	0017879b          	addiw	a5,a5,1
    8000369c:	00f91123          	sh	a5,2(s2)
    800036a0:	04500793          	li	a5,69
    800036a4:	02f70663          	beq	a4,a5,800036d0 <uip_process+0x458>
    800036a8:	00095783          	lhu	a5,0(s2)
    800036ac:	00006517          	auipc	a0,0x6
    800036b0:	9fc50513          	addi	a0,a0,-1540 # 800090a8 <pow10.0+0xb0>
    800036b4:	0017879b          	addiw	a5,a5,1
    800036b8:	00f91023          	sh	a5,0(s2)
    800036bc:	00695783          	lhu	a5,6(s2)
    800036c0:	0017879b          	addiw	a5,a5,1
    800036c4:	00f91323          	sh	a5,6(s2)
    800036c8:	9adfc0ef          	jal	ra,80000074 <uip_log>
    800036cc:	d05ff06f          	j	800033d0 <uip_process+0x158>
    800036d0:	0104ca03          	lbu	s4,16(s1)
    800036d4:	0114c783          	lbu	a5,17(s1)
    800036d8:	00007c97          	auipc	s9,0x7
    800036dc:	d24c8c93          	addi	s9,s9,-732 # 8000a3fc <uip_len>
    800036e0:	008a1a1b          	slliw	s4,s4,0x8
    800036e4:	00fa0a3b          	addw	s4,s4,a5
    800036e8:	000cd783          	lhu	a5,0(s9)
    800036ec:	000a071b          	sext.w	a4,s4
    800036f0:	04e7c463          	blt	a5,a4,80003738 <uip_process+0x4c0>
    800036f4:	0144c983          	lbu	s3,20(s1)
    800036f8:	0154c783          	lbu	a5,21(s1)
    800036fc:	030a1a13          	slli	s4,s4,0x30
    80003700:	030a5a13          	srli	s4,s4,0x30
    80003704:	03f9f993          	andi	s3,s3,63
    80003708:	014c9023          	sh	s4,0(s9)
    8000370c:	00f9e9b3          	or	s3,s3,a5
    80003710:	02098a63          	beqz	s3,80003744 <uip_process+0x4cc>
    80003714:	00095783          	lhu	a5,0(s2)
    80003718:	00006517          	auipc	a0,0x6
    8000371c:	9e850513          	addi	a0,a0,-1560 # 80009100 <pow10.0+0x108>
    80003720:	0017879b          	addiw	a5,a5,1
    80003724:	00f91023          	sh	a5,0(s2)
    80003728:	00c95783          	lhu	a5,12(s2)
    8000372c:	0017879b          	addiw	a5,a5,1
    80003730:	00f91623          	sh	a5,12(s2)
    80003734:	f95ff06f          	j	800036c8 <uip_process+0x450>
    80003738:	00006517          	auipc	a0,0x6
    8000373c:	99850513          	addi	a0,a0,-1640 # 800090d0 <pow10.0+0xd8>
    80003740:	f89ff06f          	j	800036c8 <uip_process+0x450>
    80003744:	00007c17          	auipc	s8,0x7
    80003748:	cb4c0c13          	addi	s8,s8,-844 # 8000a3f8 <uip_hostaddr>
    8000374c:	000c5d83          	lhu	s11,0(s8)
    80003750:	002c5d03          	lhu	s10,2(s8)
    80003754:	01ade7b3          	or	a5,s11,s10
    80003758:	02078263          	beqz	a5,8000377c <uip_process+0x504>
    8000375c:	01e4d783          	lhu	a5,30(s1)
    80003760:	01b79663          	bne	a5,s11,8000376c <uip_process+0x4f4>
    80003764:	0204d783          	lhu	a5,32(s1)
    80003768:	01a78a63          	beq	a5,s10,8000377c <uip_process+0x504>
    8000376c:	00095783          	lhu	a5,0(s2)
    80003770:	0017879b          	addiw	a5,a5,1
    80003774:	00f91023          	sh	a5,0(s2)
    80003778:	c59ff06f          	j	800033d0 <uip_process+0x158>
    8000377c:	eb0ff0ef          	jal	ra,80002e2c <uip_ipchksum>
    80003780:	00010737          	lui	a4,0x10
    80003784:	0005041b          	sext.w	s0,a0
    80003788:	fff70793          	addi	a5,a4,-1 # ffff <_start-0x7fff0001>
    8000378c:	02f40463          	beq	s0,a5,800037b4 <uip_process+0x53c>
    80003790:	00095783          	lhu	a5,0(s2)
    80003794:	00006517          	auipc	a0,0x6
    80003798:	98450513          	addi	a0,a0,-1660 # 80009118 <pow10.0+0x120>
    8000379c:	0017879b          	addiw	a5,a5,1
    800037a0:	00f91023          	sh	a5,0(s2)
    800037a4:	00e95783          	lhu	a5,14(s2)
    800037a8:	0017879b          	addiw	a5,a5,1
    800037ac:	00f91723          	sh	a5,14(s2)
    800037b0:	f19ff06f          	j	800036c8 <uip_process+0x450>
    800037b4:	0174c783          	lbu	a5,23(s1)
    800037b8:	00600693          	li	a3,6
    800037bc:	04d79063          	bne	a5,a3,800037fc <uip_process+0x584>
    800037c0:	01c95783          	lhu	a5,28(s2)
    800037c4:	0017879b          	addiw	a5,a5,1
    800037c8:	00f91e23          	sh	a5,28(s2)
    800037cc:	eacff0ef          	jal	ra,80002e78 <uip_tcpchksum>
    800037d0:	0005051b          	sext.w	a0,a0
    800037d4:	26850063          	beq	a0,s0,80003a34 <uip_process+0x7bc>
    800037d8:	01a95783          	lhu	a5,26(s2)
    800037dc:	00006517          	auipc	a0,0x6
    800037e0:	9cc50513          	addi	a0,a0,-1588 # 800091a8 <pow10.0+0x1b0>
    800037e4:	0017879b          	addiw	a5,a5,1
    800037e8:	00f91d23          	sh	a5,26(s2)
    800037ec:	02095783          	lhu	a5,32(s2)
    800037f0:	0017879b          	addiw	a5,a5,1
    800037f4:	02f91023          	sh	a5,32(s2)
    800037f8:	ed1ff06f          	j	800036c8 <uip_process+0x450>
    800037fc:	01100693          	li	a3,17
    80003800:	06d79863          	bne	a5,a3,80003870 <uip_process+0x5f8>
    80003804:	0284d783          	lhu	a5,40(s1)
    80003808:	fe4a0a1b          	addiw	s4,s4,-28
    8000380c:	00006997          	auipc	s3,0x6
    80003810:	c8698993          	addi	s3,s3,-890 # 80009492 <uip_buf+0x2a>
    80003814:	014c9023          	sh	s4,0(s9)
    80003818:	013ab023          	sd	s3,0(s5)
    8000381c:	16079263          	bnez	a5,80003980 <uip_process+0x708>
    80003820:	0244d803          	lhu	a6,36(s1)
    80003824:	01a4d883          	lhu	a7,26(s1)
    80003828:	01c4d303          	lhu	t1,28(s1)
    8000382c:	0224de03          	lhu	t3,34(s1)
    80003830:	00007717          	auipc	a4,0x7
    80003834:	be870713          	addi	a4,a4,-1048 # 8000a418 <uip_udp_conn>
    80003838:	00006797          	auipc	a5,0x6
    8000383c:	79878793          	addi	a5,a5,1944 # 80009fd0 <uip_udp_conns>
    80003840:	00010637          	lui	a2,0x10
    80003844:	00f73023          	sd	a5,0(a4)
    80003848:	00007517          	auipc	a0,0x7
    8000384c:	af850513          	addi	a0,a0,-1288 # 8000a340 <s>
    80003850:	00000693          	li	a3,0
    80003854:	fff60613          	addi	a2,a2,-1 # ffff <_start-0x7fff0001>
    80003858:	14f51c63          	bne	a0,a5,800039b0 <uip_process+0x738>
    8000385c:	00068463          	beqz	a3,80003864 <uip_process+0x5ec>
    80003860:	00a73023          	sd	a0,0(a4)
    80003864:	00006517          	auipc	a0,0x6
    80003868:	91c50513          	addi	a0,a0,-1764 # 80009180 <pow10.0+0x188>
    8000386c:	e5dff06f          	j	800036c8 <uip_process+0x450>
    80003870:	00100693          	li	a3,1
    80003874:	02d78463          	beq	a5,a3,8000389c <uip_process+0x624>
    80003878:	00095783          	lhu	a5,0(s2)
    8000387c:	00006517          	auipc	a0,0x6
    80003880:	8b450513          	addi	a0,a0,-1868 # 80009130 <pow10.0+0x138>
    80003884:	0017879b          	addiw	a5,a5,1
    80003888:	00f91023          	sh	a5,0(s2)
    8000388c:	01095783          	lhu	a5,16(s2)
    80003890:	0017879b          	addiw	a5,a5,1
    80003894:	00f91823          	sh	a5,16(s2)
    80003898:	e31ff06f          	j	800036c8 <uip_process+0x450>
    8000389c:	01495783          	lhu	a5,20(s2)
    800038a0:	0224c683          	lbu	a3,34(s1)
    800038a4:	0017879b          	addiw	a5,a5,1
    800038a8:	00f91a23          	sh	a5,20(s2)
    800038ac:	00800793          	li	a5,8
    800038b0:	02f68463          	beq	a3,a5,800038d8 <uip_process+0x660>
    800038b4:	01295783          	lhu	a5,18(s2)
    800038b8:	00006517          	auipc	a0,0x6
    800038bc:	89850513          	addi	a0,a0,-1896 # 80009150 <pow10.0+0x158>
    800038c0:	0017879b          	addiw	a5,a5,1
    800038c4:	00f91923          	sh	a5,18(s2)
    800038c8:	01895783          	lhu	a5,24(s2)
    800038cc:	0017879b          	addiw	a5,a5,1
    800038d0:	00f91c23          	sh	a5,24(s2)
    800038d4:	df5ff06f          	j	800036c8 <uip_process+0x450>
    800038d8:	00006797          	auipc	a5,0x6
    800038dc:	ba078923          	sb	zero,-1102(a5) # 8000948a <uip_buf+0x22>
    800038e0:	0244d783          	lhu	a5,36(s1)
    800038e4:	ff670713          	addi	a4,a4,-10
    800038e8:	08f77863          	bgeu	a4,a5,80003978 <uip_process+0x700>
    800038ec:	0097879b          	addiw	a5,a5,9
    800038f0:	03079793          	slli	a5,a5,0x30
    800038f4:	0307d793          	srli	a5,a5,0x30
    800038f8:	02f49223          	sh	a5,36(s1)
    800038fc:	01a4d783          	lhu	a5,26(s1)
    80003900:	01b49d23          	sh	s11,26(s1)
    80003904:	00f49f23          	sh	a5,30(s1)
    80003908:	01c4d783          	lhu	a5,28(s1)
    8000390c:	01a49e23          	sh	s10,28(s1)
    80003910:	02f49023          	sh	a5,32(s1)
    80003914:	01695783          	lhu	a5,22(s2)
    80003918:	0017879b          	addiw	a5,a5,1
    8000391c:	00f91b23          	sh	a5,22(s2)
    80003920:	00006717          	auipc	a4,0x6
    80003924:	67870713          	addi	a4,a4,1656 # 80009f98 <uip_stat>
    80003928:	00475783          	lhu	a5,4(a4)
    8000392c:	0017879b          	addiw	a5,a5,1
    80003930:	00f71223          	sh	a5,4(a4)
    80003934:	06813083          	ld	ra,104(sp)
    80003938:	06013403          	ld	s0,96(sp)
    8000393c:	00007797          	auipc	a5,0x7
    80003940:	aa078d23          	sb	zero,-1350(a5) # 8000a3f6 <uip_flags>
    80003944:	05813483          	ld	s1,88(sp)
    80003948:	05013903          	ld	s2,80(sp)
    8000394c:	04813983          	ld	s3,72(sp)
    80003950:	04013a03          	ld	s4,64(sp)
    80003954:	03813a83          	ld	s5,56(sp)
    80003958:	03013b03          	ld	s6,48(sp)
    8000395c:	02813b83          	ld	s7,40(sp)
    80003960:	02013c03          	ld	s8,32(sp)
    80003964:	01813c83          	ld	s9,24(sp)
    80003968:	01013d03          	ld	s10,16(sp)
    8000396c:	00813d83          	ld	s11,8(sp)
    80003970:	07010113          	addi	sp,sp,112
    80003974:	00008067          	ret
    80003978:	0087879b          	addiw	a5,a5,8
    8000397c:	f75ff06f          	j	800038f0 <uip_process+0x678>
    80003980:	d00ff0ef          	jal	ra,80002e80 <uip_udpchksum>
    80003984:	0005051b          	sext.w	a0,a0
    80003988:	e8850ce3          	beq	a0,s0,80003820 <uip_process+0x5a8>
    8000398c:	02c95783          	lhu	a5,44(s2)
    80003990:	00005517          	auipc	a0,0x5
    80003994:	7d850513          	addi	a0,a0,2008 # 80009168 <pow10.0+0x170>
    80003998:	0017879b          	addiw	a5,a5,1
    8000399c:	02f91623          	sh	a5,44(s2)
    800039a0:	03295783          	lhu	a5,50(s2)
    800039a4:	0017879b          	addiw	a5,a5,1
    800039a8:	02f91923          	sh	a5,50(s2)
    800039ac:	d1dff06f          	j	800036c8 <uip_process+0x450>
    800039b0:	0047d583          	lhu	a1,4(a5)
    800039b4:	06058463          	beqz	a1,80003a1c <uip_process+0x7a4>
    800039b8:	07059263          	bne	a1,a6,80003a1c <uip_process+0x7a4>
    800039bc:	0067d583          	lhu	a1,6(a5)
    800039c0:	00058463          	beqz	a1,800039c8 <uip_process+0x750>
    800039c4:	05c59c63          	bne	a1,t3,80003a1c <uip_process+0x7a4>
    800039c8:	0007d583          	lhu	a1,0(a5)
    800039cc:	02059c63          	bnez	a1,80003a04 <uip_process+0x78c>
    800039d0:	0027de83          	lhu	t4,2(a5)
    800039d4:	020e9e63          	bnez	t4,80003a10 <uip_process+0x798>
    800039d8:	00068463          	beqz	a3,800039e0 <uip_process+0x768>
    800039dc:	00f73023          	sd	a5,0(a4)
    800039e0:	00007797          	auipc	a5,0x7
    800039e4:	a007b023          	sd	zero,-1536(a5) # 8000a3e0 <uip_conn>
    800039e8:	00200793          	li	a5,2
    800039ec:	00007717          	auipc	a4,0x7
    800039f0:	a0f70523          	sb	a5,-1526(a4) # 8000a3f6 <uip_flags>
    800039f4:	013b3023          	sd	s3,0(s6)
    800039f8:	00007797          	auipc	a5,0x7
    800039fc:	a0079c23          	sh	zero,-1512(a5) # 8000a410 <uip_slen>
    80003a00:	b41ff06f          	j	80003540 <uip_process+0x2c8>
    80003a04:	00c59663          	bne	a1,a2,80003a10 <uip_process+0x798>
    80003a08:	0027de83          	lhu	t4,2(a5)
    80003a0c:	fcce86e3          	beq	t4,a2,800039d8 <uip_process+0x760>
    80003a10:	01159663          	bne	a1,a7,80003a1c <uip_process+0x7a4>
    80003a14:	0027d583          	lhu	a1,2(a5)
    80003a18:	fc6580e3          	beq	a1,t1,800039d8 <uip_process+0x760>
    80003a1c:	05878793          	addi	a5,a5,88
    80003a20:	00100693          	li	a3,1
    80003a24:	e35ff06f          	j	80003858 <uip_process+0x5e0>
    80003a28:	fff00793          	li	a5,-1
    80003a2c:	02f41423          	sh	a5,40(s0)
    80003a30:	be9ff06f          	j	80003618 <uip_process+0x3a0>
    80003a34:	0244d603          	lhu	a2,36(s1)
    80003a38:	0224d303          	lhu	t1,34(s1)
    80003a3c:	01a4d883          	lhu	a7,26(s1)
    80003a40:	01c4d803          	lhu	a6,28(s1)
    80003a44:	00006417          	auipc	s0,0x6
    80003a48:	00440413          	addi	s0,s0,4 # 80009a48 <uip_conns>
    80003a4c:	00040e13          	mv	t3,s0
    80003a50:	0006071b          	sext.w	a4,a2
    80003a54:	0003059b          	sext.w	a1,t1
    80003a58:	0008851b          	sext.w	a0,a7
    80003a5c:	00080e9b          	sext.w	t4,a6
    80003a60:	00006797          	auipc	a5,0x6
    80003a64:	4e878793          	addi	a5,a5,1256 # 80009f48 <uip_listenports>
    80003a68:	01944683          	lbu	a3,25(s0)
    80003a6c:	06068263          	beqz	a3,80003ad0 <uip_process+0x858>
    80003a70:	00445f03          	lhu	t5,4(s0)
    80003a74:	04ef1e63          	bne	t5,a4,80003ad0 <uip_process+0x858>
    80003a78:	00645f03          	lhu	t5,6(s0)
    80003a7c:	04bf1a63          	bne	t5,a1,80003ad0 <uip_process+0x858>
    80003a80:	00045f03          	lhu	t5,0(s0)
    80003a84:	04af1663          	bne	t5,a0,80003ad0 <uip_process+0x858>
    80003a88:	00245f03          	lhu	t5,2(s0)
    80003a8c:	05df1263          	bne	t5,t4,80003ad0 <uip_process+0x858>
    80003a90:	02f4c703          	lbu	a4,47(s1)
    80003a94:	008bb023          	sd	s0,0(s7)
    80003a98:	00007797          	auipc	a5,0x7
    80003a9c:	94078f23          	sb	zero,-1698(a5) # 8000a3f6 <uip_flags>
    80003aa0:	00477d13          	andi	s10,a4,4
    80003aa4:	00007997          	auipc	s3,0x7
    80003aa8:	95298993          	addi	s3,s3,-1710 # 8000a3f6 <uip_flags>
    80003aac:	440d0c63          	beqz	s10,80003f04 <uip_process+0xc8c>
    80003ab0:	00040ca3          	sb	zero,25(s0)
    80003ab4:	00005517          	auipc	a0,0x5
    80003ab8:	73450513          	addi	a0,a0,1844 # 800091e8 <pow10.0+0x1f0>
    80003abc:	db8fc0ef          	jal	ra,80000074 <uip_log>
    80003ac0:	02000793          	li	a5,32
    80003ac4:	00f98023          	sb	a5,0(s3)
    80003ac8:	5d1000ef          	jal	ra,80004898 <dhcpc_appcall>
    80003acc:	905ff06f          	j	800033d0 <uip_process+0x158>
    80003ad0:	02040413          	addi	s0,s0,32
    80003ad4:	f8f41ae3          	bne	s0,a5,80003a68 <uip_process+0x7f0>
    80003ad8:	02f4c783          	lbu	a5,47(s1)
    80003adc:	00200713          	li	a4,2
    80003ae0:	03f7f793          	andi	a5,a5,63
    80003ae4:	04e79663          	bne	a5,a4,80003b30 <uip_process+0x8b8>
    80003ae8:	00007a17          	auipc	s4,0x7
    80003aec:	8e6a0a13          	addi	s4,s4,-1818 # 8000a3ce <tmp16>
    80003af0:	00007797          	auipc	a5,0x7
    80003af4:	8c078523          	sb	zero,-1846(a5) # 8000a3ba <c>
    80003af8:	00ca1023          	sh	a2,0(s4)
    80003afc:	00006717          	auipc	a4,0x6
    80003b00:	44c70713          	addi	a4,a4,1100 # 80009f48 <uip_listenports>
    80003b04:	00000793          	li	a5,0
    80003b08:	00000693          	li	a3,0
    80003b0c:	02800593          	li	a1,40
    80003b10:	0006051b          	sext.w	a0,a2
    80003b14:	12b79a63          	bne	a5,a1,80003c48 <uip_process+0x9d0>
    80003b18:	00068663          	beqz	a3,80003b24 <uip_process+0x8ac>
    80003b1c:	00007717          	auipc	a4,0x7
    80003b20:	88f70f23          	sb	a5,-1890(a4) # 8000a3ba <c>
    80003b24:	02a95783          	lhu	a5,42(s2)
    80003b28:	0017879b          	addiw	a5,a5,1
    80003b2c:	02f91523          	sh	a5,42(s2)
    80003b30:	02f4c783          	lbu	a5,47(s1)
    80003b34:	0047f793          	andi	a5,a5,4
    80003b38:	88079ce3          	bnez	a5,800033d0 <uip_process+0x158>
    80003b3c:	02495783          	lhu	a5,36(s2)
    80003b40:	02b4c603          	lbu	a2,43(s1)
    80003b44:	0294c683          	lbu	a3,41(s1)
    80003b48:	0017879b          	addiw	a5,a5,1
    80003b4c:	02f91223          	sh	a5,36(s2)
    80003b50:	02800793          	li	a5,40
    80003b54:	00fc9023          	sh	a5,0(s9)
    80003b58:	000017b7          	lui	a5,0x1
    80003b5c:	45078793          	addi	a5,a5,1104 # 1450 <_start-0x7fffebb0>
    80003b60:	02f49723          	sh	a5,46(s1)
    80003b64:	02c4d783          	lhu	a5,44(s1)
    80003b68:	0284c703          	lbu	a4,40(s1)
    80003b6c:	0016869b          	addiw	a3,a3,1
    80003b70:	02f49423          	sh	a5,40(s1)
    80003b74:	0274c783          	lbu	a5,39(s1)
    80003b78:	02c483a3          	sb	a2,39(s1)
    80003b7c:	0264c603          	lbu	a2,38(s1)
    80003b80:	0ff6f693          	zext.b	a3,a3
    80003b84:	02e48623          	sb	a4,44(s1)
    80003b88:	00007597          	auipc	a1,0x7
    80003b8c:	82c58923          	sb	a2,-1998(a1) # 8000a3ba <c>
    80003b90:	02a4c583          	lbu	a1,42(s1)
    80003b94:	02f485a3          	sb	a5,43(s1)
    80003b98:	02c48523          	sb	a2,42(s1)
    80003b9c:	02b48323          	sb	a1,38(s1)
    80003ba0:	02d486a3          	sb	a3,45(s1)
    80003ba4:	02069663          	bnez	a3,80003bd0 <uip_process+0x958>
    80003ba8:	0017071b          	addiw	a4,a4,1
    80003bac:	0ff77713          	zext.b	a4,a4
    80003bb0:	02e48623          	sb	a4,44(s1)
    80003bb4:	00071e63          	bnez	a4,80003bd0 <uip_process+0x958>
    80003bb8:	0017879b          	addiw	a5,a5,1
    80003bbc:	0ff7f793          	zext.b	a5,a5
    80003bc0:	02f485a3          	sb	a5,43(s1)
    80003bc4:	00079663          	bnez	a5,80003bd0 <uip_process+0x958>
    80003bc8:	0016061b          	addiw	a2,a2,1
    80003bcc:	02c48523          	sb	a2,42(s1)
    80003bd0:	0224d783          	lhu	a5,34(s1)
    80003bd4:	00006717          	auipc	a4,0x6
    80003bd8:	7ef71d23          	sh	a5,2042(a4) # 8000a3ce <tmp16>
    80003bdc:	0244d703          	lhu	a4,36(s1)
    80003be0:	02f49223          	sh	a5,36(s1)
    80003be4:	01a4d783          	lhu	a5,26(s1)
    80003be8:	02e49123          	sh	a4,34(s1)
    80003bec:	00f49f23          	sh	a5,30(s1)
    80003bf0:	01c4d783          	lhu	a5,28(s1)
    80003bf4:	02f49023          	sh	a5,32(s1)
    80003bf8:	000c5783          	lhu	a5,0(s8)
    80003bfc:	00f49d23          	sh	a5,26(s1)
    80003c00:	002c5783          	lhu	a5,2(s8)
    80003c04:	00f49e23          	sh	a5,28(s1)
    80003c08:	04000793          	li	a5,64
    80003c0c:	00f48b23          	sb	a5,22(s1)
    80003c10:	00006797          	auipc	a5,0x6
    80003c14:	7ec7d783          	lhu	a5,2028(a5) # 8000a3fc <uip_len>
    80003c18:	0087971b          	slliw	a4,a5,0x8
    80003c1c:	0087d793          	srli	a5,a5,0x8
    80003c20:	00e7e7b3          	or	a5,a5,a4
    80003c24:	00f49823          	sh	a5,16(s1)
    80003c28:	00006797          	auipc	a5,0x6
    80003c2c:	86079923          	sh	zero,-1934(a5) # 8000949a <uip_buf+0x32>
    80003c30:	00006797          	auipc	a5,0x6
    80003c34:	86079623          	sh	zero,-1940(a5) # 8000949c <uip_buf+0x34>
    80003c38:	a40ff0ef          	jal	ra,80002e78 <uip_tcpchksum>
    80003c3c:	fff54513          	not	a0,a0
    80003c40:	02a49923          	sh	a0,50(s1)
    80003c44:	9d5ff06f          	j	80003618 <uip_process+0x3a0>
    80003c48:	00075e83          	lhu	t4,0(a4)
    80003c4c:	0017879b          	addiw	a5,a5,1
    80003c50:	00270713          	addi	a4,a4,2
    80003c54:	00100693          	li	a3,1
    80003c58:	ebd51ee3          	bne	a0,t4,80003b14 <uip_process+0x89c>
    80003c5c:	00006797          	auipc	a5,0x6
    80003c60:	74078f23          	sb	zero,1886(a5) # 8000a3ba <c>
    80003c64:	00006717          	auipc	a4,0x6
    80003c68:	de470713          	addi	a4,a4,-540 # 80009a48 <uip_conns>
    80003c6c:	00000793          	li	a5,0
    80003c70:	00000693          	li	a3,0
    80003c74:	00000413          	li	s0,0
    80003c78:	02800f13          	li	t5,40
    80003c7c:	00700293          	li	t0,7
    80003c80:	0ff7ff93          	zext.b	t6,a5
    80003c84:	03e79663          	bne	a5,t5,80003cb0 <uip_process+0xa38>
    80003c88:	00068663          	beqz	a3,80003c94 <uip_process+0xa1c>
    80003c8c:	00006717          	auipc	a4,0x6
    80003c90:	72f70723          	sb	a5,1838(a4) # 8000a3ba <c>
    80003c94:	04041063          	bnez	s0,80003cd4 <uip_process+0xa5c>
    80003c98:	02895783          	lhu	a5,40(s2)
    80003c9c:	00005517          	auipc	a0,0x5
    80003ca0:	52450513          	addi	a0,a0,1316 # 800091c0 <pow10.0+0x1c8>
    80003ca4:	0017879b          	addiw	a5,a5,1
    80003ca8:	02f91423          	sh	a5,40(s2)
    80003cac:	a1dff06f          	j	800036c8 <uip_process+0x450>
    80003cb0:	01974e83          	lbu	t4,25(a4)
    80003cb4:	0007851b          	sext.w	a0,a5
    80003cb8:	00070593          	mv	a1,a4
    80003cbc:	0c0e9463          	bnez	t4,80003d84 <uip_process+0xb0c>
    80003cc0:	00068663          	beqz	a3,80003ccc <uip_process+0xa54>
    80003cc4:	00006797          	auipc	a5,0x6
    80003cc8:	6ff78b23          	sb	t6,1782(a5) # 8000a3ba <c>
    80003ccc:	00551793          	slli	a5,a0,0x5
    80003cd0:	00fe0433          	add	s0,t3,a5
    80003cd4:	40000793          	li	a5,1024
    80003cd8:	00f41b23          	sh	a5,22(s0)
    80003cdc:	000307b7          	lui	a5,0x30
    80003ce0:	10378793          	addi	a5,a5,259 # 30103 <_start-0x7ffcfefd>
    80003ce4:	00f42c23          	sw	a5,24(s0)
    80003ce8:	00006797          	auipc	a5,0x6
    80003cec:	6e07a783          	lw	a5,1760(a5) # 8000a3c8 <iss>
    80003cf0:	00f42623          	sw	a5,12(s0)
    80003cf4:	00100793          	li	a5,1
    80003cf8:	00f41823          	sh	a5,16(s0)
    80003cfc:	0264d783          	lhu	a5,38(s1)
    80003d00:	00c41223          	sh	a2,4(s0)
    80003d04:	00641323          	sh	t1,6(s0)
    80003d08:	00f41423          	sh	a5,8(s0)
    80003d0c:	0284d783          	lhu	a5,40(s1)
    80003d10:	01141023          	sh	a7,0(s0)
    80003d14:	01041123          	sh	a6,2(s0)
    80003d18:	00f41523          	sh	a5,10(s0)
    80003d1c:	00100513          	li	a0,1
    80003d20:	008bb023          	sd	s0,0(s7)
    80003d24:	88cff0ef          	jal	ra,80002db0 <uip_add_rcv_nxt>
    80003d28:	02e4c783          	lbu	a5,46(s1)
    80003d2c:	05000713          	li	a4,80
    80003d30:	0f07f693          	andi	a3,a5,240
    80003d34:	0ed77a63          	bgeu	a4,a3,80003e28 <uip_process+0xbb0>
    80003d38:	0047d79b          	srliw	a5,a5,0x4
    80003d3c:	ffb7879b          	addiw	a5,a5,-5
    80003d40:	00006717          	auipc	a4,0x6
    80003d44:	66070d23          	sb	zero,1658(a4) # 8000a3ba <c>
    80003d48:	0027979b          	slliw	a5,a5,0x2
    80003d4c:	00000693          	li	a3,0
    80003d50:	00100513          	li	a0,1
    80003d54:	00200813          	li	a6,2
    80003d58:	00400893          	li	a7,4
    80003d5c:	0009871b          	sext.w	a4,s3
    80003d60:	00f9da63          	bge	s3,a5,80003d74 <uip_process+0xafc>
    80003d64:	0367061b          	addiw	a2,a4,54
    80003d68:	00c48633          	add	a2,s1,a2
    80003d6c:	00064583          	lbu	a1,0(a2)
    80003d70:	04059063          	bnez	a1,80003db0 <uip_process+0xb38>
    80003d74:	0a068a63          	beqz	a3,80003e28 <uip_process+0xbb0>
    80003d78:	00006797          	auipc	a5,0x6
    80003d7c:	65378123          	sb	s3,1602(a5) # 8000a3ba <c>
    80003d80:	0a80006f          	j	80003e28 <uip_process+0xbb0>
    80003d84:	005e9a63          	bne	t4,t0,80003d98 <uip_process+0xb20>
    80003d88:	00040a63          	beqz	s0,80003d9c <uip_process+0xb24>
    80003d8c:	01a74503          	lbu	a0,26(a4)
    80003d90:	01a44683          	lbu	a3,26(s0)
    80003d94:	00a6e463          	bltu	a3,a0,80003d9c <uip_process+0xb24>
    80003d98:	00040593          	mv	a1,s0
    80003d9c:	0017879b          	addiw	a5,a5,1
    80003da0:	02070713          	addi	a4,a4,32
    80003da4:	00058413          	mv	s0,a1
    80003da8:	00100693          	li	a3,1
    80003dac:	ed5ff06f          	j	80003c80 <uip_process+0xa08>
    80003db0:	00a59a63          	bne	a1,a0,80003dc4 <uip_process+0xb4c>
    80003db4:	0019899b          	addiw	s3,s3,1
    80003db8:	0ff9f993          	zext.b	s3,s3
    80003dbc:	00100693          	li	a3,1
    80003dc0:	f9dff06f          	j	80003d5c <uip_process+0xae4>
    80003dc4:	0377061b          	addiw	a2,a4,55
    80003dc8:	00c48633          	add	a2,s1,a2
    80003dcc:	00064603          	lbu	a2,0(a2)
    80003dd0:	13059263          	bne	a1,a6,80003ef4 <uip_process+0xc7c>
    80003dd4:	13161063          	bne	a2,a7,80003ef4 <uip_process+0xc7c>
    80003dd8:	00068663          	beqz	a3,80003de4 <uip_process+0xb6c>
    80003ddc:	00006797          	auipc	a5,0x6
    80003de0:	5d378f23          	sb	s3,1502(a5) # 8000a3ba <c>
    80003de4:	0387079b          	addiw	a5,a4,56
    80003de8:	00f487b3          	add	a5,s1,a5
    80003dec:	0397071b          	addiw	a4,a4,57
    80003df0:	0007c783          	lbu	a5,0(a5)
    80003df4:	00e48733          	add	a4,s1,a4
    80003df8:	00074703          	lbu	a4,0(a4)
    80003dfc:	0087979b          	slliw	a5,a5,0x8
    80003e00:	5a600693          	li	a3,1446
    80003e04:	00e7e7b3          	or	a5,a5,a4
    80003e08:	03079793          	slli	a5,a5,0x30
    80003e0c:	0307d793          	srli	a5,a5,0x30
    80003e10:	00fa1023          	sh	a5,0(s4)
    80003e14:	00078713          	mv	a4,a5
    80003e18:	00f6f463          	bgeu	a3,a5,80003e20 <uip_process+0xba8>
    80003e1c:	5a600713          	li	a4,1446
    80003e20:	00e41923          	sh	a4,18(s0)
    80003e24:	00e41a23          	sh	a4,20(s0)
    80003e28:	01000693          	li	a3,16
    80003e2c:	40200793          	li	a5,1026
    80003e30:	02f49b23          	sh	a5,54(s1)
    80003e34:	ffffa7b7          	lui	a5,0xffffa
    80003e38:	60578793          	addi	a5,a5,1541 # ffffffffffffa605 <__stack_end+0xffffffff7fefa605>
    80003e3c:	0026e693          	ori	a3,a3,2
    80003e40:	02f49c23          	sh	a5,56(s1)
    80003e44:	02c00793          	li	a5,44
    80003e48:	00006717          	auipc	a4,0x6
    80003e4c:	5af71a23          	sh	a5,1460(a4) # 8000a3fc <uip_len>
    80003e50:	02d487a3          	sb	a3,47(s1)
    80003e54:	06000793          	li	a5,96
    80003e58:	02f48723          	sb	a5,46(s1)
    80003e5c:	00844783          	lbu	a5,8(s0)
    80003e60:	02f48523          	sb	a5,42(s1)
    80003e64:	00944783          	lbu	a5,9(s0)
    80003e68:	02f485a3          	sb	a5,43(s1)
    80003e6c:	00a44783          	lbu	a5,10(s0)
    80003e70:	02f48623          	sb	a5,44(s1)
    80003e74:	00b44783          	lbu	a5,11(s0)
    80003e78:	02f486a3          	sb	a5,45(s1)
    80003e7c:	00c44783          	lbu	a5,12(s0)
    80003e80:	02f48323          	sb	a5,38(s1)
    80003e84:	00d44783          	lbu	a5,13(s0)
    80003e88:	02f483a3          	sb	a5,39(s1)
    80003e8c:	00e44783          	lbu	a5,14(s0)
    80003e90:	02f48423          	sb	a5,40(s1)
    80003e94:	00f44783          	lbu	a5,15(s0)
    80003e98:	02f484a3          	sb	a5,41(s1)
    80003e9c:	00600793          	li	a5,6
    80003ea0:	00f48ba3          	sb	a5,23(s1)
    80003ea4:	00445783          	lhu	a5,4(s0)
    80003ea8:	02f49123          	sh	a5,34(s1)
    80003eac:	00645783          	lhu	a5,6(s0)
    80003eb0:	02f49223          	sh	a5,36(s1)
    80003eb4:	00006797          	auipc	a5,0x6
    80003eb8:	54478793          	addi	a5,a5,1348 # 8000a3f8 <uip_hostaddr>
    80003ebc:	0007d703          	lhu	a4,0(a5)
    80003ec0:	0027d783          	lhu	a5,2(a5)
    80003ec4:	00e49d23          	sh	a4,26(s1)
    80003ec8:	00f49e23          	sh	a5,28(s1)
    80003ecc:	00045783          	lhu	a5,0(s0)
    80003ed0:	00f49f23          	sh	a5,30(s1)
    80003ed4:	00245783          	lhu	a5,2(s0)
    80003ed8:	02f49023          	sh	a5,32(s1)
    80003edc:	01944783          	lbu	a5,25(s0)
    80003ee0:	0107f793          	andi	a5,a5,16
    80003ee4:	5a078e63          	beqz	a5,800044a0 <uip_process+0x1228>
    80003ee8:	00005797          	auipc	a5,0x5
    80003eec:	5a079823          	sh	zero,1456(a5) # 80009498 <uip_buf+0x30>
    80003ef0:	d19ff06f          	j	80003c08 <uip_process+0x990>
    80003ef4:	e80600e3          	beqz	a2,80003d74 <uip_process+0xafc>
    80003ef8:	00c9863b          	addw	a2,s3,a2
    80003efc:	0ff67993          	zext.b	s3,a2
    80003f00:	ebdff06f          	j	80003dbc <uip_process+0xb44>
    80003f04:	02e4c783          	lbu	a5,46(s1)
    80003f08:	feca0a1b          	addiw	s4,s4,-20
    80003f0c:	00006d97          	auipc	s11,0x6
    80003f10:	4aed8d93          	addi	s11,s11,1198 # 8000a3ba <c>
    80003f14:	0047d79b          	srliw	a5,a5,0x4
    80003f18:	0027979b          	slliw	a5,a5,0x2
    80003f1c:	0ff7f793          	zext.b	a5,a5
    80003f20:	40fa0a3b          	subw	s4,s4,a5
    80003f24:	030a1a13          	slli	s4,s4,0x30
    80003f28:	030a5a13          	srli	s4,s4,0x30
    80003f2c:	00fd8023          	sb	a5,0(s11)
    80003f30:	014c9023          	sh	s4,0(s9)
    80003f34:	00f6f693          	andi	a3,a3,15
    80003f38:	00200793          	li	a5,2
    80003f3c:	00f69863          	bne	a3,a5,80003f4c <uip_process+0xcd4>
    80003f40:	03f77793          	andi	a5,a4,63
    80003f44:	01200693          	li	a3,18
    80003f48:	02d78463          	beq	a5,a3,80003f70 <uip_process+0xcf8>
    80003f4c:	000a1663          	bnez	s4,80003f58 <uip_process+0xce0>
    80003f50:	00377793          	andi	a5,a4,3
    80003f54:	00078e63          	beqz	a5,80003f70 <uip_process+0xcf8>
    80003f58:	0264d683          	lhu	a3,38(s1)
    80003f5c:	00845783          	lhu	a5,8(s0)
    80003f60:	4cf69263          	bne	a3,a5,80004424 <uip_process+0x11ac>
    80003f64:	0284d683          	lhu	a3,40(s1)
    80003f68:	00a45783          	lhu	a5,10(s0)
    80003f6c:	4af69c63          	bne	a3,a5,80004424 <uip_process+0x11ac>
    80003f70:	01077713          	andi	a4,a4,16
    80003f74:	0c070a63          	beqz	a4,80004048 <uip_process+0xdd0>
    80003f78:	01045583          	lhu	a1,16(s0)
    80003f7c:	0c058663          	beqz	a1,80004048 <uip_process+0xdd0>
    80003f80:	00c40513          	addi	a0,s0,12
    80003f84:	d99fe0ef          	jal	ra,80002d1c <uip_add32>
    80003f88:	00006797          	auipc	a5,0x6
    80003f8c:	44878793          	addi	a5,a5,1096 # 8000a3d0 <uip_acc32>
    80003f90:	02a4c683          	lbu	a3,42(s1)
    80003f94:	0007c703          	lbu	a4,0(a5)
    80003f98:	0ae69863          	bne	a3,a4,80004048 <uip_process+0xdd0>
    80003f9c:	02b4c683          	lbu	a3,43(s1)
    80003fa0:	0017c703          	lbu	a4,1(a5)
    80003fa4:	0ae69263          	bne	a3,a4,80004048 <uip_process+0xdd0>
    80003fa8:	02c4c683          	lbu	a3,44(s1)
    80003fac:	0027c703          	lbu	a4,2(a5)
    80003fb0:	08e69c63          	bne	a3,a4,80004048 <uip_process+0xdd0>
    80003fb4:	0007a703          	lw	a4,0(a5)
    80003fb8:	02d4c683          	lbu	a3,45(s1)
    80003fbc:	0037c783          	lbu	a5,3(a5)
    80003fc0:	08f69463          	bne	a3,a5,80004048 <uip_process+0xdd0>
    80003fc4:	01b44783          	lbu	a5,27(s0)
    80003fc8:	00e42623          	sw	a4,12(s0)
    80003fcc:	06079463          	bnez	a5,80004034 <uip_process+0xdbc>
    80003fd0:	01644783          	lbu	a5,22(s0)
    80003fd4:	01844503          	lbu	a0,24(s0)
    80003fd8:	01a44583          	lbu	a1,26(s0)
    80003fdc:	0037d713          	srli	a4,a5,0x3
    80003fe0:	40b506bb          	subw	a3,a0,a1
    80003fe4:	40e686bb          	subw	a3,a3,a4
    80003fe8:	00d787b3          	add	a5,a5,a3
    80003fec:	0186961b          	slliw	a2,a3,0x18
    80003ff0:	0ff7f793          	zext.b	a5,a5
    80003ff4:	4186561b          	sraiw	a2,a2,0x18
    80003ff8:	00f40b23          	sb	a5,22(s0)
    80003ffc:	00065a63          	bgez	a2,80004010 <uip_process+0xd98>
    80004000:	40a7073b          	subw	a4,a4,a0
    80004004:	00b7073b          	addw	a4,a4,a1
    80004008:	0187161b          	slliw	a2,a4,0x18
    8000400c:	4186561b          	sraiw	a2,a2,0x18
    80004010:	01744703          	lbu	a4,23(s0)
    80004014:	0037d79b          	srliw	a5,a5,0x3
    80004018:	0027569b          	srliw	a3,a4,0x2
    8000401c:	40d7073b          	subw	a4,a4,a3
    80004020:	00c7073b          	addw	a4,a4,a2
    80004024:	0ff77713          	zext.b	a4,a4
    80004028:	00e787bb          	addw	a5,a5,a4
    8000402c:	00e40ba3          	sb	a4,23(s0)
    80004030:	00f40c23          	sb	a5,24(s0)
    80004034:	00100793          	li	a5,1
    80004038:	00f98023          	sb	a5,0(s3)
    8000403c:	01844783          	lbu	a5,24(s0)
    80004040:	00041823          	sh	zero,16(s0)
    80004044:	00f40d23          	sb	a5,26(s0)
    80004048:	01944703          	lbu	a4,25(s0)
    8000404c:	00700693          	li	a3,7
    80004050:	00f77793          	andi	a5,a4,15
    80004054:	fff7879b          	addiw	a5,a5,-1
    80004058:	0ff7f793          	zext.b	a5,a5
    8000405c:	b6f6ea63          	bltu	a3,a5,800033d0 <uip_process+0x158>
    80004060:	00005697          	auipc	a3,0x5
    80004064:	1d068693          	addi	a3,a3,464 # 80009230 <pow10.0+0x238>
    80004068:	00279793          	slli	a5,a5,0x2
    8000406c:	00d787b3          	add	a5,a5,a3
    80004070:	0007a783          	lw	a5,0(a5)
    80004074:	00d787b3          	add	a5,a5,a3
    80004078:	00078067          	jr	a5
    8000407c:	0009c783          	lbu	a5,0(s3)
    80004080:	0017f793          	andi	a5,a5,1
    80004084:	b4078663          	beqz	a5,800033d0 <uip_process+0x158>
    80004088:	00300793          	li	a5,3
    8000408c:	000cd503          	lhu	a0,0(s9)
    80004090:	00f40ca3          	sb	a5,25(s0)
    80004094:	04000793          	li	a5,64
    80004098:	00f98023          	sb	a5,0(s3)
    8000409c:	00041823          	sh	zero,16(s0)
    800040a0:	00050863          	beqz	a0,800040b0 <uip_process+0xe38>
    800040a4:	04200793          	li	a5,66
    800040a8:	00f98023          	sb	a5,0(s3)
    800040ac:	d05fe0ef          	jal	ra,80002db0 <uip_add_rcv_nxt>
    800040b0:	00006797          	auipc	a5,0x6
    800040b4:	36079023          	sh	zero,864(a5) # 8000a410 <uip_slen>
    800040b8:	a5cff06f          	j	80003314 <uip_process+0x9c>
    800040bc:	0009c783          	lbu	a5,0(s3)
    800040c0:	0017f793          	andi	a5,a5,1
    800040c4:	12078a63          	beqz	a5,800041f8 <uip_process+0xf80>
    800040c8:	02f4c783          	lbu	a5,47(s1)
    800040cc:	01200713          	li	a4,18
    800040d0:	03f7f793          	andi	a5,a5,63
    800040d4:	12e79263          	bne	a5,a4,800041f8 <uip_process+0xf80>
    800040d8:	02e4c783          	lbu	a5,46(s1)
    800040dc:	05000713          	li	a4,80
    800040e0:	0f07f693          	andi	a3,a5,240
    800040e4:	0cd77663          	bgeu	a4,a3,800041b0 <uip_process+0xf38>
    800040e8:	0047d79b          	srliw	a5,a5,0x4
    800040ec:	ffb7879b          	addiw	a5,a5,-5
    800040f0:	00006717          	auipc	a4,0x6
    800040f4:	2c070523          	sb	zero,714(a4) # 8000a3ba <c>
    800040f8:	0027979b          	slliw	a5,a5,0x2
    800040fc:	00000693          	li	a3,0
    80004100:	00100513          	li	a0,1
    80004104:	00200813          	li	a6,2
    80004108:	00400893          	li	a7,4
    8000410c:	000d071b          	sext.w	a4,s10
    80004110:	00fd5a63          	bge	s10,a5,80004124 <uip_process+0xeac>
    80004114:	0367061b          	addiw	a2,a4,54
    80004118:	00c48633          	add	a2,s1,a2
    8000411c:	00064583          	lbu	a1,0(a2)
    80004120:	00059863          	bnez	a1,80004130 <uip_process+0xeb8>
    80004124:	08068663          	beqz	a3,800041b0 <uip_process+0xf38>
    80004128:	01ad8023          	sb	s10,0(s11)
    8000412c:	0840006f          	j	800041b0 <uip_process+0xf38>
    80004130:	00a59a63          	bne	a1,a0,80004144 <uip_process+0xecc>
    80004134:	001d0d1b          	addiw	s10,s10,1
    80004138:	0ffd7d13          	zext.b	s10,s10
    8000413c:	00100693          	li	a3,1
    80004140:	fcdff06f          	j	8000410c <uip_process+0xe94>
    80004144:	0377061b          	addiw	a2,a4,55
    80004148:	00c48633          	add	a2,s1,a2
    8000414c:	00064603          	lbu	a2,0(a2)
    80004150:	09059c63          	bne	a1,a6,800041e8 <uip_process+0xf70>
    80004154:	09161a63          	bne	a2,a7,800041e8 <uip_process+0xf70>
    80004158:	00068463          	beqz	a3,80004160 <uip_process+0xee8>
    8000415c:	01ad8023          	sb	s10,0(s11)
    80004160:	00005697          	auipc	a3,0x5
    80004164:	30868693          	addi	a3,a3,776 # 80009468 <uip_buf>
    80004168:	0387079b          	addiw	a5,a4,56
    8000416c:	00f687b3          	add	a5,a3,a5
    80004170:	0397071b          	addiw	a4,a4,57
    80004174:	00e686b3          	add	a3,a3,a4
    80004178:	0007c783          	lbu	a5,0(a5)
    8000417c:	0006c703          	lbu	a4,0(a3)
    80004180:	5a600693          	li	a3,1446
    80004184:	0087979b          	slliw	a5,a5,0x8
    80004188:	00e7e7b3          	or	a5,a5,a4
    8000418c:	03079793          	slli	a5,a5,0x30
    80004190:	0307d793          	srli	a5,a5,0x30
    80004194:	00006717          	auipc	a4,0x6
    80004198:	22f71d23          	sh	a5,570(a4) # 8000a3ce <tmp16>
    8000419c:	00078713          	mv	a4,a5
    800041a0:	00f6f463          	bgeu	a3,a5,800041a8 <uip_process+0xf30>
    800041a4:	5a600713          	li	a4,1446
    800041a8:	00e41923          	sh	a4,18(s0)
    800041ac:	00e41a23          	sh	a4,20(s0)
    800041b0:	00300793          	li	a5,3
    800041b4:	00f40ca3          	sb	a5,25(s0)
    800041b8:	0264d783          	lhu	a5,38(s1)
    800041bc:	00100513          	li	a0,1
    800041c0:	00f41423          	sh	a5,8(s0)
    800041c4:	0284d783          	lhu	a5,40(s1)
    800041c8:	00f41523          	sh	a5,10(s0)
    800041cc:	be5fe0ef          	jal	ra,80002db0 <uip_add_rcv_nxt>
    800041d0:	04200793          	li	a5,66
    800041d4:	00f98023          	sb	a5,0(s3)
    800041d8:	00041823          	sh	zero,16(s0)
    800041dc:	00006797          	auipc	a5,0x6
    800041e0:	22079023          	sh	zero,544(a5) # 8000a3fc <uip_len>
    800041e4:	ecdff06f          	j	800040b0 <uip_process+0xe38>
    800041e8:	f2060ee3          	beqz	a2,80004124 <uip_process+0xeac>
    800041ec:	00cd063b          	addw	a2,s10,a2
    800041f0:	0ff67d13          	zext.b	s10,a2
    800041f4:	f49ff06f          	j	8000413c <uip_process+0xec4>
    800041f8:	02000793          	li	a5,32
    800041fc:	00f98023          	sb	a5,0(s3)
    80004200:	698000ef          	jal	ra,80004898 <dhcpc_appcall>
    80004204:	000bb783          	ld	a5,0(s7)
    80004208:	00078ca3          	sb	zero,25(a5)
    8000420c:	925ff06f          	j	80003b30 <uip_process+0x8b8>
    80004210:	02f4c783          	lbu	a5,47(s1)
    80004214:	0017f693          	andi	a3,a5,1
    80004218:	06068a63          	beqz	a3,8000428c <uip_process+0x1014>
    8000421c:	01077693          	andi	a3,a4,16
    80004220:	06069663          	bnez	a3,8000428c <uip_process+0x1014>
    80004224:	01045783          	lhu	a5,16(s0)
    80004228:	9a079463          	bnez	a5,800033d0 <uip_process+0x158>
    8000422c:	000cd503          	lhu	a0,0(s9)
    80004230:	0015051b          	addiw	a0,a0,1
    80004234:	03051513          	slli	a0,a0,0x30
    80004238:	03055513          	srli	a0,a0,0x30
    8000423c:	b75fe0ef          	jal	ra,80002db0 <uip_add_rcv_nxt>
    80004240:	0009c783          	lbu	a5,0(s3)
    80004244:	0107e713          	ori	a4,a5,16
    80004248:	00e98023          	sb	a4,0(s3)
    8000424c:	000cd703          	lhu	a4,0(s9)
    80004250:	00070663          	beqz	a4,8000425c <uip_process+0xfe4>
    80004254:	0127e793          	ori	a5,a5,18
    80004258:	00f98023          	sb	a5,0(s3)
    8000425c:	63c000ef          	jal	ra,80004898 <dhcpc_appcall>
    80004260:	00100793          	li	a5,1
    80004264:	00f41823          	sh	a5,16(s0)
    80004268:	00800793          	li	a5,8
    8000426c:	00f40ca3          	sb	a5,25(s0)
    80004270:	00040da3          	sb	zero,27(s0)
    80004274:	01100793          	li	a5,17
    80004278:	02f487a3          	sb	a5,47(s1)
    8000427c:	02800793          	li	a5,40
    80004280:	00006717          	auipc	a4,0x6
    80004284:	16f71e23          	sh	a5,380(a4) # 8000a3fc <uip_len>
    80004288:	a54ff06f          	j	800034dc <uip_process+0x264>
    8000428c:	0207f793          	andi	a5,a5,32
    80004290:	02078a63          	beqz	a5,800042c4 <uip_process+0x104c>
    80004294:	0344d783          	lhu	a5,52(s1)
    80004298:	000cd683          	lhu	a3,0(s9)
    8000429c:	0087961b          	slliw	a2,a5,0x8
    800042a0:	0087d793          	srli	a5,a5,0x8
    800042a4:	00c7e7b3          	or	a5,a5,a2
    800042a8:	000ab603          	ld	a2,0(s5)
    800042ac:	03079793          	slli	a5,a5,0x30
    800042b0:	0307d793          	srli	a5,a5,0x30
    800042b4:	00f60633          	add	a2,a2,a5
    800042b8:	40f687bb          	subw	a5,a3,a5
    800042bc:	00cab023          	sd	a2,0(s5)
    800042c0:	00fc9023          	sh	a5,0(s9)
    800042c4:	000cd503          	lhu	a0,0(s9)
    800042c8:	00050e63          	beqz	a0,800042e4 <uip_process+0x106c>
    800042cc:	01077713          	andi	a4,a4,16
    800042d0:	00071a63          	bnez	a4,800042e4 <uip_process+0x106c>
    800042d4:	0009c783          	lbu	a5,0(s3)
    800042d8:	0027e793          	ori	a5,a5,2
    800042dc:	00f98023          	sb	a5,0(s3)
    800042e0:	ad1fe0ef          	jal	ra,80002db0 <uip_add_rcv_nxt>
    800042e4:	0304c783          	lbu	a5,48(s1)
    800042e8:	0314c703          	lbu	a4,49(s1)
    800042ec:	01445683          	lhu	a3,20(s0)
    800042f0:	0087979b          	slliw	a5,a5,0x8
    800042f4:	00e787bb          	addw	a5,a5,a4
    800042f8:	03079793          	slli	a5,a5,0x30
    800042fc:	0307d793          	srli	a5,a5,0x30
    80004300:	00006717          	auipc	a4,0x6
    80004304:	0ce70713          	addi	a4,a4,206 # 8000a3ce <tmp16>
    80004308:	00f71023          	sh	a5,0(a4)
    8000430c:	00f6e463          	bltu	a3,a5,80004314 <uip_process+0x109c>
    80004310:	00079463          	bnez	a5,80004318 <uip_process+0x10a0>
    80004314:	00d71023          	sh	a3,0(a4)
    80004318:	00075783          	lhu	a5,0(a4)
    8000431c:	00f41923          	sh	a5,18(s0)
    80004320:	0009c783          	lbu	a5,0(s3)
    80004324:	0037f793          	andi	a5,a5,3
    80004328:	8a078463          	beqz	a5,800033d0 <uip_process+0x158>
    8000432c:	d85ff06f          	j	800040b0 <uip_process+0xe38>
    80004330:	0107f713          	andi	a4,a5,16
    80004334:	00070e63          	beqz	a4,80004350 <uip_process+0x10d8>
    80004338:	00006797          	auipc	a5,0x6
    8000433c:	0c079c23          	sh	zero,216(a5) # 8000a410 <uip_slen>
    80004340:	00100793          	li	a5,1
    80004344:	00f41823          	sh	a5,16(s0)
    80004348:	00400793          	li	a5,4
    8000434c:	f21ff06f          	j	8000426c <uip_process+0xff4>
    80004350:	00006717          	auipc	a4,0x6
    80004354:	0c070713          	addi	a4,a4,192 # 8000a410 <uip_slen>
    80004358:	00075683          	lhu	a3,0(a4)
    8000435c:	02068663          	beqz	a3,80004388 <uip_process+0x1110>
    80004360:	0017f793          	andi	a5,a5,1
    80004364:	00078463          	beqz	a5,8000436c <uip_process+0x10f4>
    80004368:	00041823          	sh	zero,16(s0)
    8000436c:	01045783          	lhu	a5,16(s0)
    80004370:	02079063          	bnez	a5,80004390 <uip_process+0x1118>
    80004374:	01245783          	lhu	a5,18(s0)
    80004378:	00d7f463          	bgeu	a5,a3,80004380 <uip_process+0x1108>
    8000437c:	00f71023          	sh	a5,0(a4)
    80004380:	00075783          	lhu	a5,0(a4)
    80004384:	00f41823          	sh	a5,16(s0)
    80004388:	00040da3          	sb	zero,27(s0)
    8000438c:	920ff06f          	j	800034ac <uip_process+0x234>
    80004390:	00f71023          	sh	a5,0(a4)
    80004394:	ff5ff06f          	j	80004388 <uip_process+0x1110>
    80004398:	00006797          	auipc	a5,0x6
    8000439c:	05e7c783          	lbu	a5,94(a5) # 8000a3f6 <uip_flags>
    800043a0:	0027f793          	andi	a5,a5,2
    800043a4:	00079463          	bnez	a5,800043ac <uip_process+0x1134>
    800043a8:	828ff06f          	j	800033d0 <uip_process+0x158>
    800043ac:	02800793          	li	a5,40
    800043b0:	00006717          	auipc	a4,0x6
    800043b4:	04f71623          	sh	a5,76(a4) # 8000a3fc <uip_len>
    800043b8:	01000793          	li	a5,16
    800043bc:	91cff06f          	j	800034d8 <uip_process+0x260>
    800043c0:	0009c783          	lbu	a5,0(s3)
    800043c4:	0017f793          	andi	a5,a5,1
    800043c8:	00079463          	bnez	a5,800043d0 <uip_process+0x1158>
    800043cc:	804ff06f          	j	800033d0 <uip_process+0x158>
    800043d0:	00040ca3          	sb	zero,25(s0)
    800043d4:	01000793          	li	a5,16
    800043d8:	eecff06f          	j	80003ac4 <uip_process+0x84c>
    800043dc:	000cd503          	lhu	a0,0(s9)
    800043e0:	00050463          	beqz	a0,800043e8 <uip_process+0x1170>
    800043e4:	9cdfe0ef          	jal	ra,80002db0 <uip_add_rcv_nxt>
    800043e8:	02f4c703          	lbu	a4,47(s1)
    800043ec:	0009c783          	lbu	a5,0(s3)
    800043f0:	00177713          	andi	a4,a4,1
    800043f4:	0017f793          	andi	a5,a5,1
    800043f8:	04070063          	beqz	a4,80004438 <uip_process+0x11c0>
    800043fc:	02078863          	beqz	a5,8000442c <uip_process+0x11b4>
    80004400:	00700793          	li	a5,7
    80004404:	00f40ca3          	sb	a5,25(s0)
    80004408:	00040d23          	sb	zero,26(s0)
    8000440c:	00041823          	sh	zero,16(s0)
    80004410:	00100513          	li	a0,1
    80004414:	99dfe0ef          	jal	ra,80002db0 <uip_add_rcv_nxt>
    80004418:	01000793          	li	a5,16
    8000441c:	00f98023          	sb	a5,0(s3)
    80004420:	478000ef          	jal	ra,80004898 <dhcpc_appcall>
    80004424:	01000793          	li	a5,16
    80004428:	e51ff06f          	j	80004278 <uip_process+0x1000>
    8000442c:	00600793          	li	a5,6
    80004430:	00f40ca3          	sb	a5,25(s0)
    80004434:	fddff06f          	j	80004410 <uip_process+0x1198>
    80004438:	02078e63          	beqz	a5,80004474 <uip_process+0x11fc>
    8000443c:	00500793          	li	a5,5
    80004440:	00f40ca3          	sb	a5,25(s0)
    80004444:	00041823          	sh	zero,16(s0)
    80004448:	f89fe06f          	j	800033d0 <uip_process+0x158>
    8000444c:	000cd503          	lhu	a0,0(s9)
    80004450:	00050463          	beqz	a0,80004458 <uip_process+0x11e0>
    80004454:	95dfe0ef          	jal	ra,80002db0 <uip_add_rcv_nxt>
    80004458:	02f4c783          	lbu	a5,47(s1)
    8000445c:	0017f793          	andi	a5,a5,1
    80004460:	00078a63          	beqz	a5,80004474 <uip_process+0x11fc>
    80004464:	00700793          	li	a5,7
    80004468:	00f40ca3          	sb	a5,25(s0)
    8000446c:	00040d23          	sb	zero,26(s0)
    80004470:	fa1ff06f          	j	80004410 <uip_process+0x1198>
    80004474:	000cd783          	lhu	a5,0(s9)
    80004478:	fa0796e3          	bnez	a5,80004424 <uip_process+0x11ac>
    8000447c:	f55fe06f          	j	800033d0 <uip_process+0x158>
    80004480:	0009c783          	lbu	a5,0(s3)
    80004484:	0017f793          	andi	a5,a5,1
    80004488:	00079463          	bnez	a5,80004490 <uip_process+0x1218>
    8000448c:	f45fe06f          	j	800033d0 <uip_process+0x158>
    80004490:	00700793          	li	a5,7
    80004494:	00f40ca3          	sb	a5,25(s0)
    80004498:	00040d23          	sb	zero,26(s0)
    8000449c:	f35fe06f          	j	800033d0 <uip_process+0x158>
    800044a0:	ffffa7b7          	lui	a5,0xffffa
    800044a4:	60578793          	addi	a5,a5,1541 # ffffffffffffa605 <__stack_end+0xffffffff7fefa605>
    800044a8:	02f49823          	sh	a5,48(s1)
    800044ac:	f5cff06f          	j	80003c08 <uip_process+0x990>

00000000800044b0 <htons>:
    800044b0:	0085179b          	slliw	a5,a0,0x8
    800044b4:	0085551b          	srliw	a0,a0,0x8
    800044b8:	00a7e533          	or	a0,a5,a0
    800044bc:	03051513          	slli	a0,a0,0x30
    800044c0:	03055513          	srli	a0,a0,0x30
    800044c4:	00008067          	ret

00000000800044c8 <uip_send>:
    800044c8:	00050793          	mv	a5,a0
    800044cc:	02b05463          	blez	a1,800044f4 <uip_send+0x2c>
    800044d0:	03059613          	slli	a2,a1,0x30
    800044d4:	03065613          	srli	a2,a2,0x30
    800044d8:	00006717          	auipc	a4,0x6
    800044dc:	f2c71c23          	sh	a2,-200(a4) # 8000a410 <uip_slen>
    800044e0:	00006517          	auipc	a0,0x6
    800044e4:	f2853503          	ld	a0,-216(a0) # 8000a408 <uip_sappdata>
    800044e8:	00f50663          	beq	a0,a5,800044f4 <uip_send+0x2c>
    800044ec:	00078593          	mv	a1,a5
    800044f0:	7f10206f          	j	800074e0 <memcpy>
    800044f4:	00008067          	ret

00000000800044f8 <uiplib_ipaddrconv>:
    800044f8:	00400693          	li	a3,4
    800044fc:	00000793          	li	a5,0
    80004500:	02e00813          	li	a6,46
    80004504:	00900893          	li	a7,9
    80004508:	00a00313          	li	t1,10
    8000450c:	00450e13          	addi	t3,a0,4
    80004510:	05c50e63          	beq	a0,t3,8000456c <uiplib_ipaddrconv+0x74>
    80004514:	00054703          	lbu	a4,0(a0)
    80004518:	01070463          	beq	a4,a6,80004520 <uiplib_ipaddrconv+0x28>
    8000451c:	02071863          	bnez	a4,8000454c <uiplib_ipaddrconv+0x54>
    80004520:	00f58023          	sb	a5,0(a1)
    80004524:	00158593          	addi	a1,a1,1
    80004528:	00000793          	li	a5,0
    8000452c:	00150513          	addi	a0,a0,1
    80004530:	01070463          	beq	a4,a6,80004538 <uiplib_ipaddrconv+0x40>
    80004534:	fc071ee3          	bnez	a4,80004510 <uiplib_ipaddrconv+0x18>
    80004538:	fff6869b          	addiw	a3,a3,-1
    8000453c:	0ff6f693          	zext.b	a3,a3
    80004540:	fc0696e3          	bnez	a3,8000450c <uiplib_ipaddrconv+0x14>
    80004544:	00100513          	li	a0,1
    80004548:	00008067          	ret
    8000454c:	fd07061b          	addiw	a2,a4,-48
    80004550:	0ff67613          	zext.b	a2,a2
    80004554:	00c8ec63          	bltu	a7,a2,8000456c <uiplib_ipaddrconv+0x74>
    80004558:	026787bb          	mulw	a5,a5,t1
    8000455c:	00e787bb          	addw	a5,a5,a4
    80004560:	fd078793          	addi	a5,a5,-48
    80004564:	0ff7f793          	zext.b	a5,a5
    80004568:	fc5ff06f          	j	8000452c <uiplib_ipaddrconv+0x34>
    8000456c:	00000513          	li	a0,0
    80004570:	00008067          	ret

0000000080004574 <create_msg>:
    80004574:	fe010113          	addi	sp,sp,-32
    80004578:	00113c23          	sd	ra,24(sp)
    8000457c:	00813823          	sd	s0,16(sp)
    80004580:	00913423          	sd	s1,8(sp)
    80004584:	10100793          	li	a5,257
    80004588:	00006497          	auipc	s1,0x6
    8000458c:	db848493          	addi	s1,s1,-584 # 8000a340 <s>
    80004590:	00f51023          	sh	a5,0(a0)
    80004594:	0284a783          	lw	a5,40(s1)
    80004598:	00050413          	mv	s0,a0
    8000459c:	000501a3          	sb	zero,3(a0)
    800045a0:	00f50123          	sb	a5,2(a0)
    800045a4:	00400613          	li	a2,4
    800045a8:	00004597          	auipc	a1,0x4
    800045ac:	9a058593          	addi	a1,a1,-1632 # 80007f48 <xid>
    800045b0:	00450513          	addi	a0,a0,4
    800045b4:	72d020ef          	jal	ra,800074e0 <memcpy>
    800045b8:	08000793          	li	a5,128
    800045bc:	00f41523          	sh	a5,10(s0)
    800045c0:	00041423          	sh	zero,8(s0)
    800045c4:	00400613          	li	a2,4
    800045c8:	00006597          	auipc	a1,0x6
    800045cc:	e3058593          	addi	a1,a1,-464 # 8000a3f8 <uip_hostaddr>
    800045d0:	00c40513          	addi	a0,s0,12
    800045d4:	70d020ef          	jal	ra,800074e0 <memcpy>
    800045d8:	00400613          	li	a2,4
    800045dc:	00000593          	li	a1,0
    800045e0:	01040513          	addi	a0,s0,16
    800045e4:	024030ef          	jal	ra,80007608 <memset>
    800045e8:	00400613          	li	a2,4
    800045ec:	00000593          	li	a1,0
    800045f0:	01440513          	addi	a0,s0,20
    800045f4:	014030ef          	jal	ra,80007608 <memset>
    800045f8:	00400613          	li	a2,4
    800045fc:	00000593          	li	a1,0
    80004600:	01840513          	addi	a0,s0,24
    80004604:	004030ef          	jal	ra,80007608 <memset>
    80004608:	0284a603          	lw	a2,40(s1)
    8000460c:	0204b583          	ld	a1,32(s1)
    80004610:	01c40513          	addi	a0,s0,28
    80004614:	6cd020ef          	jal	ra,800074e0 <memcpy>
    80004618:	0284a783          	lw	a5,40(s1)
    8000461c:	01000613          	li	a2,16
    80004620:	00000593          	li	a1,0
    80004624:	01c78513          	addi	a0,a5,28
    80004628:	40f60633          	sub	a2,a2,a5
    8000462c:	00a40533          	add	a0,s0,a0
    80004630:	7d9020ef          	jal	ra,80007608 <memset>
    80004634:	04000613          	li	a2,64
    80004638:	00000593          	li	a1,0
    8000463c:	02c40513          	addi	a0,s0,44
    80004640:	7c9020ef          	jal	ra,80007608 <memset>
    80004644:	08000613          	li	a2,128
    80004648:	00000593          	li	a1,0
    8000464c:	06c40513          	addi	a0,s0,108
    80004650:	7b9020ef          	jal	ra,80007608 <memset>
    80004654:	0ec40513          	addi	a0,s0,236
    80004658:	01013403          	ld	s0,16(sp)
    8000465c:	01813083          	ld	ra,24(sp)
    80004660:	00813483          	ld	s1,8(sp)
    80004664:	00400613          	li	a2,4
    80004668:	00004597          	auipc	a1,0x4
    8000466c:	8d858593          	addi	a1,a1,-1832 # 80007f40 <magic_cookie>
    80004670:	02010113          	addi	sp,sp,32
    80004674:	66d0206f          	j	800074e0 <memcpy>

0000000080004678 <parse_msg>:
    80004678:	fa010113          	addi	sp,sp,-96
    8000467c:	04813823          	sd	s0,80(sp)
    80004680:	04113c23          	sd	ra,88(sp)
    80004684:	04913423          	sd	s1,72(sp)
    80004688:	05213023          	sd	s2,64(sp)
    8000468c:	03313c23          	sd	s3,56(sp)
    80004690:	03413823          	sd	s4,48(sp)
    80004694:	03513423          	sd	s5,40(sp)
    80004698:	03613023          	sd	s6,32(sp)
    8000469c:	01713c23          	sd	s7,24(sp)
    800046a0:	01813823          	sd	s8,16(sp)
    800046a4:	01913423          	sd	s9,8(sp)
    800046a8:	01a13023          	sd	s10,0(sp)
    800046ac:	00006417          	auipc	s0,0x6
    800046b0:	d2c43403          	ld	s0,-724(s0) # 8000a3d8 <uip_appdata>
    800046b4:	00044703          	lbu	a4,0(s0)
    800046b8:	00200793          	li	a5,2
    800046bc:	04f70263          	beq	a4,a5,80004700 <parse_msg+0x88>
    800046c0:	00000493          	li	s1,0
    800046c4:	05813083          	ld	ra,88(sp)
    800046c8:	05013403          	ld	s0,80(sp)
    800046cc:	04013903          	ld	s2,64(sp)
    800046d0:	03813983          	ld	s3,56(sp)
    800046d4:	03013a03          	ld	s4,48(sp)
    800046d8:	02813a83          	ld	s5,40(sp)
    800046dc:	02013b03          	ld	s6,32(sp)
    800046e0:	01813b83          	ld	s7,24(sp)
    800046e4:	01013c03          	ld	s8,16(sp)
    800046e8:	00813c83          	ld	s9,8(sp)
    800046ec:	00013d03          	ld	s10,0(sp)
    800046f0:	00048513          	mv	a0,s1
    800046f4:	04813483          	ld	s1,72(sp)
    800046f8:	06010113          	addi	sp,sp,96
    800046fc:	00008067          	ret
    80004700:	00400613          	li	a2,4
    80004704:	00004597          	auipc	a1,0x4
    80004708:	84458593          	addi	a1,a1,-1980 # 80007f48 <xid>
    8000470c:	00440513          	addi	a0,s0,4
    80004710:	559020ef          	jal	ra,80007468 <memcmp>
    80004714:	fa0516e3          	bnez	a0,800046c0 <parse_msg+0x48>
    80004718:	00006797          	auipc	a5,0x6
    8000471c:	c2878793          	addi	a5,a5,-984 # 8000a340 <s>
    80004720:	0287a603          	lw	a2,40(a5)
    80004724:	0207b583          	ld	a1,32(a5)
    80004728:	01c40513          	addi	a0,s0,28
    8000472c:	53d020ef          	jal	ra,80007468 <memcmp>
    80004730:	f80518e3          	bnez	a0,800046c0 <parse_msg+0x48>
    80004734:	01040593          	addi	a1,s0,16
    80004738:	00400613          	li	a2,4
    8000473c:	00006517          	auipc	a0,0x6
    80004740:	c3850513          	addi	a0,a0,-968 # 8000a374 <s+0x34>
    80004744:	59d020ef          	jal	ra,800074e0 <memcpy>
    80004748:	0f040413          	addi	s0,s0,240
    8000474c:	00006917          	auipc	s2,0x6
    80004750:	cb095903          	lhu	s2,-848(s2) # 8000a3fc <uip_len>
    80004754:	01240933          	add	s2,s0,s2
    80004758:	00000493          	li	s1,0
    8000475c:	03300993          	li	s3,51
    80004760:	00006a17          	auipc	s4,0x6
    80004764:	c10a0a13          	addi	s4,s4,-1008 # 8000a370 <s+0x30>
    80004768:	03600a93          	li	s5,54
    8000476c:	00006b17          	auipc	s6,0x6
    80004770:	c00b0b13          	addi	s6,s6,-1024 # 8000a36c <s+0x2c>
    80004774:	0ff00b93          	li	s7,255
    80004778:	03500c13          	li	s8,53
    8000477c:	00300c93          	li	s9,3
    80004780:	00006d17          	auipc	s10,0x6
    80004784:	c00d0d13          	addi	s10,s10,-1024 # 8000a380 <s+0x40>
    80004788:	f3247ee3          	bgeu	s0,s2,800046c4 <parse_msg+0x4c>
    8000478c:	00044783          	lbu	a5,0(s0)
    80004790:	09378663          	beq	a5,s3,8000481c <parse_msg+0x1a4>
    80004794:	02f9e463          	bltu	s3,a5,800047bc <parse_msg+0x144>
    80004798:	05978863          	beq	a5,s9,800047e8 <parse_msg+0x170>
    8000479c:	00600713          	li	a4,6
    800047a0:	04e78c63          	beq	a5,a4,800047f8 <parse_msg+0x180>
    800047a4:	00100713          	li	a4,1
    800047a8:	02e78463          	beq	a5,a4,800047d0 <parse_msg+0x158>
    800047ac:	00144783          	lbu	a5,1(s0)
    800047b0:	00278793          	addi	a5,a5,2
    800047b4:	00f40433          	add	s0,s0,a5
    800047b8:	fd1ff06f          	j	80004788 <parse_msg+0x110>
    800047bc:	05578863          	beq	a5,s5,8000480c <parse_msg+0x194>
    800047c0:	f17782e3          	beq	a5,s7,800046c4 <parse_msg+0x4c>
    800047c4:	ff8794e3          	bne	a5,s8,800047ac <parse_msg+0x134>
    800047c8:	00244483          	lbu	s1,2(s0)
    800047cc:	fe1ff06f          	j	800047ac <parse_msg+0x134>
    800047d0:	00400613          	li	a2,4
    800047d4:	00240593          	addi	a1,s0,2
    800047d8:	00006517          	auipc	a0,0x6
    800047dc:	ba050513          	addi	a0,a0,-1120 # 8000a378 <s+0x38>
    800047e0:	501020ef          	jal	ra,800074e0 <memcpy>
    800047e4:	fc9ff06f          	j	800047ac <parse_msg+0x134>
    800047e8:	00400613          	li	a2,4
    800047ec:	00240593          	addi	a1,s0,2
    800047f0:	000d0513          	mv	a0,s10
    800047f4:	fedff06f          	j	800047e0 <parse_msg+0x168>
    800047f8:	00400613          	li	a2,4
    800047fc:	00240593          	addi	a1,s0,2
    80004800:	00006517          	auipc	a0,0x6
    80004804:	b7c50513          	addi	a0,a0,-1156 # 8000a37c <s+0x3c>
    80004808:	fd9ff06f          	j	800047e0 <parse_msg+0x168>
    8000480c:	00400613          	li	a2,4
    80004810:	00240593          	addi	a1,s0,2
    80004814:	000b0513          	mv	a0,s6
    80004818:	fc9ff06f          	j	800047e0 <parse_msg+0x168>
    8000481c:	00400613          	li	a2,4
    80004820:	00240593          	addi	a1,s0,2
    80004824:	000a0513          	mv	a0,s4
    80004828:	fb9ff06f          	j	800047e0 <parse_msg+0x168>

000000008000482c <dhcpc_init>:
    8000482c:	fd010113          	addi	sp,sp,-48
    80004830:	02813023          	sd	s0,32(sp)
    80004834:	00913c23          	sd	s1,24(sp)
    80004838:	00006797          	auipc	a5,0x6
    8000483c:	b0078523          	sb	zero,-1270(a5) # 8000a342 <s+0x2>
    80004840:	00006497          	auipc	s1,0x6
    80004844:	b0048493          	addi	s1,s1,-1280 # 8000a340 <s>
    80004848:	00004437          	lui	s0,0x4
    8000484c:	02a4b023          	sd	a0,32(s1)
    80004850:	02b4a423          	sw	a1,40(s1)
    80004854:	fff00793          	li	a5,-1
    80004858:	30040593          	addi	a1,s0,768 # 4300 <_start-0x7fffbd00>
    8000485c:	00810513          	addi	a0,sp,8
    80004860:	02113423          	sd	ra,40(sp)
    80004864:	00f12423          	sw	a5,8(sp)
    80004868:	fe4fe0ef          	jal	ra,8000304c <uip_udp_new>
    8000486c:	00a4b423          	sd	a0,8(s1)
    80004870:	00050663          	beqz	a0,8000487c <dhcpc_init+0x50>
    80004874:	40040413          	addi	s0,s0,1024
    80004878:	00851223          	sh	s0,4(a0)
    8000487c:	02813083          	ld	ra,40(sp)
    80004880:	02013403          	ld	s0,32(sp)
    80004884:	00006797          	auipc	a5,0x6
    80004888:	aa079e23          	sh	zero,-1348(a5) # 8000a340 <s>
    8000488c:	01813483          	ld	s1,24(sp)
    80004890:	03010113          	addi	sp,sp,48
    80004894:	00008067          	ret

0000000080004898 <dhcpc_appcall>:
    80004898:	fd010113          	addi	sp,sp,-48
    8000489c:	02813023          	sd	s0,32(sp)
    800048a0:	00006417          	auipc	s0,0x6
    800048a4:	aa040413          	addi	s0,s0,-1376 # 8000a340 <s>
    800048a8:	00045783          	lhu	a5,0(s0)
    800048ac:	02113423          	sd	ra,40(sp)
    800048b0:	00913c23          	sd	s1,24(sp)
    800048b4:	01213823          	sd	s2,16(sp)
    800048b8:	01313423          	sd	s3,8(sp)
    800048bc:	10800713          	li	a4,264
    800048c0:	0ae78663          	beq	a5,a4,8000496c <dhcpc_appcall+0xd4>
    800048c4:	0007869b          	sext.w	a3,a5
    800048c8:	12100713          	li	a4,289
    800048cc:	1ce68863          	beq	a3,a4,80004a9c <dhcpc_appcall+0x204>
    800048d0:	10079a63          	bnez	a5,800049e4 <dhcpc_appcall+0x14c>
    800048d4:	00244783          	lbu	a5,2(s0)
    800048d8:	00079a63          	bnez	a5,800048ec <dhcpc_appcall+0x54>
    800048dc:	00100793          	li	a5,1
    800048e0:	00f40123          	sb	a5,2(s0)
    800048e4:	3e800793          	li	a5,1000
    800048e8:	00f41c23          	sh	a5,24(s0)
    800048ec:	00244903          	lbu	s2,2(s0)
    800048f0:	00100993          	li	s3,1
    800048f4:	0f391e63          	bne	s2,s3,800049f0 <dhcpc_appcall+0x158>
    800048f8:	00006997          	auipc	s3,0x6
    800048fc:	ae098993          	addi	s3,s3,-1312 # 8000a3d8 <uip_appdata>
    80004900:	0009b483          	ld	s1,0(s3)
    80004904:	00048513          	mv	a0,s1
    80004908:	c6dff0ef          	jal	ra,80004574 <create_msg>
    8000490c:	03500793          	li	a5,53
    80004910:	0ef48823          	sb	a5,240(s1)
    80004914:	03700793          	li	a5,55
    80004918:	0009b503          	ld	a0,0(s3)
    8000491c:	0ef489a3          	sb	a5,243(s1)
    80004920:	00300793          	li	a5,3
    80004924:	0ef48a23          	sb	a5,244(s1)
    80004928:	0ef48b23          	sb	a5,246(s1)
    8000492c:	00600793          	li	a5,6
    80004930:	0ef48ba3          	sb	a5,247(s1)
    80004934:	0f948593          	addi	a1,s1,249
    80004938:	fff00793          	li	a5,-1
    8000493c:	0ef48c23          	sb	a5,248(s1)
    80004940:	40a585bb          	subw	a1,a1,a0
    80004944:	0f2488a3          	sb	s2,241(s1)
    80004948:	0f248923          	sb	s2,242(s1)
    8000494c:	0f248aa3          	sb	s2,245(s1)
    80004950:	b79ff0ef          	jal	ra,800044c8 <uip_send>
    80004954:	01845583          	lhu	a1,24(s0)
    80004958:	00006517          	auipc	a0,0x6
    8000495c:	9f850513          	addi	a0,a0,-1544 # 8000a350 <s+0x10>
    80004960:	87dfd0ef          	jal	ra,800021dc <timer_set>
    80004964:	10800793          	li	a5,264
    80004968:	00f41023          	sh	a5,0(s0)
    8000496c:	00006497          	auipc	s1,0x6
    80004970:	a8a48493          	addi	s1,s1,-1398 # 8000a3f6 <uip_flags>
    80004974:	0004c783          	lbu	a5,0(s1)
    80004978:	0027f793          	andi	a5,a5,2
    8000497c:	04078263          	beqz	a5,800049c0 <dhcpc_appcall+0x128>
    80004980:	cf9ff0ef          	jal	ra,80004678 <parse_msg>
    80004984:	00200793          	li	a5,2
    80004988:	04f50c63          	beq	a0,a5,800049e0 <dhcpc_appcall+0x148>
    8000498c:	01845783          	lhu	a5,24(s0)
    80004990:	0000f737          	lui	a4,0xf
    80004994:	a5f70713          	addi	a4,a4,-1441 # ea5f <_start-0x7fff15a1>
    80004998:	00f76663          	bltu	a4,a5,800049a4 <dhcpc_appcall+0x10c>
    8000499c:	0017979b          	slliw	a5,a5,0x1
    800049a0:	00f41c23          	sh	a5,24(s0)
    800049a4:	02813083          	ld	ra,40(sp)
    800049a8:	02013403          	ld	s0,32(sp)
    800049ac:	01813483          	ld	s1,24(sp)
    800049b0:	01013903          	ld	s2,16(sp)
    800049b4:	00813983          	ld	s3,8(sp)
    800049b8:	03010113          	addi	sp,sp,48
    800049bc:	00008067          	ret
    800049c0:	00006517          	auipc	a0,0x6
    800049c4:	99050513          	addi	a0,a0,-1648 # 8000a350 <s+0x10>
    800049c8:	87dfd0ef          	jal	ra,80002244 <timer_expired>
    800049cc:	fc050ce3          	beqz	a0,800049a4 <dhcpc_appcall+0x10c>
    800049d0:	0004c783          	lbu	a5,0(s1)
    800049d4:	0027f793          	andi	a5,a5,2
    800049d8:	fa078ae3          	beqz	a5,8000498c <dhcpc_appcall+0xf4>
    800049dc:	fa5ff06f          	j	80004980 <dhcpc_appcall+0xe8>
    800049e0:	00a40123          	sb	a0,2(s0)
    800049e4:	00006797          	auipc	a5,0x6
    800049e8:	94079e23          	sh	zero,-1700(a5) # 8000a340 <s>
    800049ec:	fb9ff06f          	j	800049a4 <dhcpc_appcall+0x10c>
    800049f0:	3e800793          	li	a5,1000
    800049f4:	00f41c23          	sh	a5,24(s0)
    800049f8:	00200793          	li	a5,2
    800049fc:	10f91063          	bne	s2,a5,80004afc <dhcpc_appcall+0x264>
    80004a00:	00006917          	auipc	s2,0x6
    80004a04:	9d890913          	addi	s2,s2,-1576 # 8000a3d8 <uip_appdata>
    80004a08:	00093483          	ld	s1,0(s2)
    80004a0c:	00048513          	mv	a0,s1
    80004a10:	b65ff0ef          	jal	ra,80004574 <create_msg>
    80004a14:	03500793          	li	a5,53
    80004a18:	0ef48823          	sb	a5,240(s1)
    80004a1c:	00300793          	li	a5,3
    80004a20:	0f3488a3          	sb	s3,241(s1)
    80004a24:	0ef48923          	sb	a5,242(s1)
    80004a28:	00400993          	li	s3,4
    80004a2c:	03600793          	li	a5,54
    80004a30:	0ef489a3          	sb	a5,243(s1)
    80004a34:	00400613          	li	a2,4
    80004a38:	00006597          	auipc	a1,0x6
    80004a3c:	93458593          	addi	a1,a1,-1740 # 8000a36c <s+0x2c>
    80004a40:	0f348a23          	sb	s3,244(s1)
    80004a44:	0f548513          	addi	a0,s1,245
    80004a48:	299020ef          	jal	ra,800074e0 <memcpy>
    80004a4c:	03200793          	li	a5,50
    80004a50:	00400613          	li	a2,4
    80004a54:	0ef48ca3          	sb	a5,249(s1)
    80004a58:	00006597          	auipc	a1,0x6
    80004a5c:	91c58593          	addi	a1,a1,-1764 # 8000a374 <s+0x34>
    80004a60:	0f348d23          	sb	s3,250(s1)
    80004a64:	0fb48513          	addi	a0,s1,251
    80004a68:	279020ef          	jal	ra,800074e0 <memcpy>
    80004a6c:	00093503          	ld	a0,0(s2)
    80004a70:	fff00793          	li	a5,-1
    80004a74:	10048593          	addi	a1,s1,256
    80004a78:	0ef48fa3          	sb	a5,255(s1)
    80004a7c:	40a585bb          	subw	a1,a1,a0
    80004a80:	a49ff0ef          	jal	ra,800044c8 <uip_send>
    80004a84:	01845583          	lhu	a1,24(s0)
    80004a88:	00006517          	auipc	a0,0x6
    80004a8c:	8c850513          	addi	a0,a0,-1848 # 8000a350 <s+0x10>
    80004a90:	f4cfd0ef          	jal	ra,800021dc <timer_set>
    80004a94:	12100793          	li	a5,289
    80004a98:	00f41023          	sh	a5,0(s0)
    80004a9c:	00006497          	auipc	s1,0x6
    80004aa0:	95a48493          	addi	s1,s1,-1702 # 8000a3f6 <uip_flags>
    80004aa4:	0004c783          	lbu	a5,0(s1)
    80004aa8:	0027f793          	andi	a5,a5,2
    80004aac:	00078e63          	beqz	a5,80004ac8 <dhcpc_appcall+0x230>
    80004ab0:	bc9ff0ef          	jal	ra,80004678 <parse_msg>
    80004ab4:	00500793          	li	a5,5
    80004ab8:	02f51663          	bne	a0,a5,80004ae4 <dhcpc_appcall+0x24c>
    80004abc:	00300793          	li	a5,3
    80004ac0:	00f40123          	sb	a5,2(s0)
    80004ac4:	f21ff06f          	j	800049e4 <dhcpc_appcall+0x14c>
    80004ac8:	00006517          	auipc	a0,0x6
    80004acc:	88850513          	addi	a0,a0,-1912 # 8000a350 <s+0x10>
    80004ad0:	f74fd0ef          	jal	ra,80002244 <timer_expired>
    80004ad4:	ec0508e3          	beqz	a0,800049a4 <dhcpc_appcall+0x10c>
    80004ad8:	0004c783          	lbu	a5,0(s1)
    80004adc:	0027f793          	andi	a5,a5,2
    80004ae0:	fc0798e3          	bnez	a5,80004ab0 <dhcpc_appcall+0x218>
    80004ae4:	01845783          	lhu	a5,24(s0)
    80004ae8:	00002737          	lui	a4,0x2
    80004aec:	71070713          	addi	a4,a4,1808 # 2710 <_start-0x7fffd8f0>
    80004af0:	eef76ae3          	bltu	a4,a5,800049e4 <dhcpc_appcall+0x14c>
    80004af4:	3e87879b          	addiw	a5,a5,1000
    80004af8:	ea9ff06f          	j	800049a0 <dhcpc_appcall+0x108>
    80004afc:	00006517          	auipc	a0,0x6
    80004b00:	84450513          	addi	a0,a0,-1980 # 8000a340 <s>
    80004b04:	869fb0ef          	jal	ra,8000036c <dhcpc_configured>
    80004b08:	eddff06f          	j	800049e4 <dhcpc_appcall+0x14c>

0000000080004b0c <dhcpc_request>:
    80004b0c:	00006797          	auipc	a5,0x6
    80004b10:	8367c783          	lbu	a5,-1994(a5) # 8000a342 <s+0x2>
    80004b14:	00079a63          	bnez	a5,80004b28 <dhcpc_request+0x1c>
    80004b18:	00006797          	auipc	a5,0x6
    80004b1c:	8e079023          	sh	zero,-1824(a5) # 8000a3f8 <uip_hostaddr>
    80004b20:	00006797          	auipc	a5,0x6
    80004b24:	8c079d23          	sh	zero,-1830(a5) # 8000a3fa <uip_hostaddr+0x2>
    80004b28:	00008067          	ret

0000000080004b2c <__adddf3>:
    80004b2c:	fff00813          	li	a6,-1
    80004b30:	fe010113          	addi	sp,sp,-32
    80004b34:	00c85713          	srli	a4,a6,0xc
    80004b38:	00a777b3          	and	a5,a4,a0
    80004b3c:	00813823          	sd	s0,16(sp)
    80004b40:	00913423          	sd	s1,8(sp)
    80004b44:	03455413          	srli	s0,a0,0x34
    80004b48:	03f55493          	srli	s1,a0,0x3f
    80004b4c:	0345d513          	srli	a0,a1,0x34
    80004b50:	7ff47413          	andi	s0,s0,2047
    80004b54:	7ff57513          	andi	a0,a0,2047
    80004b58:	00b77733          	and	a4,a4,a1
    80004b5c:	40a406bb          	subw	a3,s0,a0
    80004b60:	00113c23          	sd	ra,24(sp)
    80004b64:	01213023          	sd	s2,0(sp)
    80004b68:	03f5d593          	srli	a1,a1,0x3f
    80004b6c:	00379793          	slli	a5,a5,0x3
    80004b70:	00371713          	slli	a4,a4,0x3
    80004b74:	0006861b          	sext.w	a2,a3
    80004b78:	1ab49063          	bne	s1,a1,80004d18 <__adddf3+0x1ec>
    80004b7c:	0ac05a63          	blez	a2,80004c30 <__adddf3+0x104>
    80004b80:	06051863          	bnez	a0,80004bf0 <__adddf3+0xc4>
    80004b84:	04070863          	beqz	a4,80004bd4 <__adddf3+0xa8>
    80004b88:	fff6861b          	addiw	a2,a3,-1
    80004b8c:	04061063          	bnez	a2,80004bcc <__adddf3+0xa0>
    80004b90:	00e787b3          	add	a5,a5,a4
    80004b94:	0377d713          	srli	a4,a5,0x37
    80004b98:	00177713          	andi	a4,a4,1
