
uip_test.elf:     file format elf64-littleriscv


Disassembly of section .text:

0000000080000000 <_start>:
    80000000:	00100117          	auipc	sp,0x100
    80000004:	00010113          	mv	sp,sp
    80000008:	06100913          	li	s2,97
    8000000c:	00001337          	lui	t1,0x1
    80000010:	01230023          	sb	s2,0(t1) # 1000 <_start-0x7ffff000>
    80000014:	06200913          	li	s2,98
    80000018:	00001337          	lui	t1,0x1
    8000001c:	01230023          	sb	s2,0(t1) # 1000 <_start-0x7ffff000>
    80000020:	00a00913          	li	s2,10
    80000024:	00001337          	lui	t1,0x1
    80000028:	01230023          	sb	s2,0(t1) # 1000 <_start-0x7ffff000>
    8000002c:	0040006f          	j	80000030 <reset_vector>

0000000080000030 <reset_vector>:
    80000030:	07200913          	li	s2,114
    80000034:	00001337          	lui	t1,0x1
    80000038:	01230023          	sb	s2,0(t1) # 1000 <_start-0x7ffff000>
    8000003c:	00a00913          	li	s2,10
    80000040:	00001337          	lui	t1,0x1
    80000044:	01230023          	sb	s2,0(t1) # 1000 <_start-0x7ffff000>
    80000048:	00009517          	auipc	a0,0x9
    8000004c:	34850513          	addi	a0,a0,840 # 80009390 <_impure_ptr>
    80000050:	0000a597          	auipc	a1,0xa
    80000054:	36058593          	addi	a1,a1,864 # 8000a3b0 <global_clock_time>
    80000058:	00b57663          	bgeu	a0,a1,80000064 <reset_vector+0x34>
    8000005c:	00450513          	addi	a0,a0,4
    80000060:	feb56ee3          	bltu	a0,a1,8000005c <reset_vector+0x2c>
    80000064:	068000ef          	jal	ra,800000cc <main>
    80000068:	c0001073          	unimp
    8000006c:	0000                	unimp
    8000006e:	0000                	unimp
    80000070:	0000                	unimp
    80000072:	0000                	unimp

0000000080000074 <uip_log>:
    80000074:	00008067          	ret

0000000080000078 <uip_appcall>:
    80000078:	00008067          	ret

000000008000007c <_putchar>:
    8000007c:	000017b7          	lui	a5,0x1
    80000080:	00a78023          	sb	a0,0(a5) # 1000 <_start-0x7ffff000>
    80000084:	00008067          	ret

0000000080000088 <juice_netcrard_send>:
    80000088:	00000793          	li	a5,0
    8000008c:	0000d6b7          	lui	a3,0xd
    80000090:	0007871b          	sext.w	a4,a5
    80000094:	02b74063          	blt	a4,a1,800000b4 <juice_netcrard_send+0x2c>
    80000098:	0000d7b7          	lui	a5,0xd
    8000009c:	4085d71b          	sraiw	a4,a1,0x8
    800000a0:	5ee78223          	sb	a4,1508(a5) # d5e4 <_start-0x7fff2a1c>
    800000a4:	00100713          	li	a4,1
    800000a8:	5eb78323          	sb	a1,1510(a5)
    800000ac:	5ee78423          	sb	a4,1512(a5)
    800000b0:	00008067          	ret
    800000b4:	00f50733          	add	a4,a0,a5
    800000b8:	00074603          	lbu	a2,0(a4)
    800000bc:	00f68733          	add	a4,a3,a5
    800000c0:	00178793          	addi	a5,a5,1
    800000c4:	00c703a3          	sb	a2,7(a4)
    800000c8:	fc9ff06f          	j	80000090 <juice_netcrard_send+0x8>

00000000800000cc <main>:
    800000cc:	fa010113          	addi	sp,sp,-96 # 800fffa0 <heap_end.0+0xf5b60>
    800000d0:	00009517          	auipc	a0,0x9
    800000d4:	de050513          	addi	a0,a0,-544 # 80008eb0 <__malloc_av_+0x810>
    800000d8:	04113c23          	sd	ra,88(sp)
    800000dc:	04813823          	sd	s0,80(sp)
    800000e0:	04913423          	sd	s1,72(sp)
    800000e4:	03413823          	sd	s4,48(sp)
    800000e8:	03513423          	sd	s5,40(sp)
    800000ec:	05213023          	sd	s2,64(sp)
    800000f0:	03313c23          	sd	s3,56(sp)
    800000f4:	03613023          	sd	s6,32(sp)
    800000f8:	01713c23          	sd	s7,24(sp)
    800000fc:	209010ef          	jal	ra,80001b04 <printf>
    80000100:	1f400593          	li	a1,500
    80000104:	00010513          	mv	a0,sp
    80000108:	0d4020ef          	jal	ra,800021dc <timer_set>
    8000010c:	000025b7          	lui	a1,0x2
    80000110:	71058593          	addi	a1,a1,1808 # 2710 <_start-0x7fffd8f0>
    80000114:	00810513          	addi	a0,sp,8
    80000118:	0c4020ef          	jal	ra,800021dc <timer_set>
    8000011c:	35c020ef          	jal	ra,80002478 <uip_arp_init>
    80000120:	569020ef          	jal	ra,80002e88 <uip_init>
    80000124:	00009517          	auipc	a0,0x9
    80000128:	da450513          	addi	a0,a0,-604 # 80008ec8 <__malloc_av_+0x828>
    8000012c:	1d9010ef          	jal	ra,80001b04 <printf>
    80000130:	00009417          	auipc	s0,0x9
    80000134:	26040413          	addi	s0,s0,608 # 80009390 <_impure_ptr>
    80000138:	00043783          	ld	a5,0(s0)
    8000013c:	00001a37          	lui	s4,0x1
    80000140:	0000a497          	auipc	s1,0xa
    80000144:	2bc48493          	addi	s1,s1,700 # 8000a3fc <uip_len>
    80000148:	0107b503          	ld	a0,16(a5)
    8000014c:	800a0a93          	addi	s5,s4,-2048 # 800 <_start-0x7ffff800>
    80000150:	0cc060ef          	jal	ra,8000621c <fflush>
    80000154:	0000a517          	auipc	a0,0xa
    80000158:	29c50513          	addi	a0,a0,668 # 8000a3f0 <uip_ethaddr>
    8000015c:	01200793          	li	a5,18
    80000160:	00f50023          	sb	a5,0(a0)
    80000164:	03400793          	li	a5,52
    80000168:	00f500a3          	sb	a5,1(a0)
    8000016c:	05600793          	li	a5,86
    80000170:	00f50123          	sb	a5,2(a0)
    80000174:	07800793          	li	a5,120
    80000178:	00f501a3          	sb	a5,3(a0)
    8000017c:	f9000793          	li	a5,-112
    80000180:	00f50223          	sb	a5,4(a0)
    80000184:	fac00793          	li	a5,-84
    80000188:	00600593          	li	a1,6
    8000018c:	00f502a3          	sb	a5,5(a0)
    80000190:	69c040ef          	jal	ra,8000482c <dhcpc_init>
    80000194:	00009517          	auipc	a0,0x9
    80000198:	d4450513          	addi	a0,a0,-700 # 80008ed8 <__malloc_av_+0x838>
    8000019c:	169010ef          	jal	ra,80001b04 <printf>
    800001a0:	00043783          	ld	a5,0(s0)
    800001a4:	0107b503          	ld	a0,16(a5)
    800001a8:	074060ef          	jal	ra,8000621c <fflush>
    800001ac:	161040ef          	jal	ra,80004b0c <dhcpc_request>
    800001b0:	00009517          	auipc	a0,0x9
    800001b4:	d3850513          	addi	a0,a0,-712 # 80008ee8 <__malloc_av_+0x848>
    800001b8:	14d010ef          	jal	ra,80001b04 <printf>
    800001bc:	00043783          	ld	a5,0(s0)
    800001c0:	00009417          	auipc	s0,0x9
    800001c4:	2a840413          	addi	s0,s0,680 # 80009468 <uip_buf>
    800001c8:	0107b503          	ld	a0,16(a5)
    800001cc:	050060ef          	jal	ra,8000621c <fflush>
    800001d0:	0000db37          	lui	s6,0xd
    800001d4:	0000e9b7          	lui	s3,0xe
    800001d8:	bc99c703          	lbu	a4,-1079(s3) # dbc9 <_start-0x7fff2437>
    800001dc:	00100793          	li	a5,1
    800001e0:	10f71663          	bne	a4,a5,800002ec <main+0x220>
    800001e4:	bc69c703          	lbu	a4,-1082(s3)
    800001e8:	bc79c783          	lbu	a5,-1081(s3)
    800001ec:	00871713          	slli	a4,a4,0x8
    800001f0:	00e787bb          	addw	a5,a5,a4
    800001f4:	03079793          	slli	a5,a5,0x30
    800001f8:	0307d793          	srli	a5,a5,0x30
    800001fc:	00000713          	li	a4,0
    80000200:	0007861b          	sext.w	a2,a5
    80000204:	03071693          	slli	a3,a4,0x30
    80000208:	0306d693          	srli	a3,a3,0x30
    8000020c:	0cc6e463          	bltu	a3,a2,800002d4 <main+0x208>
    80000210:	bc0984a3          	sb	zero,-1079(s3)
    80000214:	00f49023          	sh	a5,0(s1)
    80000218:	0e079063          	bnez	a5,800002f8 <main+0x22c>
    8000021c:	00010513          	mv	a0,sp
    80000220:	024020ef          	jal	ra,80002244 <timer_expired>
    80000224:	fa050ae3          	beqz	a0,800001d8 <main+0x10c>
    80000228:	00010513          	mv	a0,sp
    8000022c:	7dd010ef          	jal	ra,80002208 <timer_reset>
    80000230:	0000a917          	auipc	s2,0xa
    80000234:	81890913          	addi	s2,s2,-2024 # 80009a48 <uip_conns>
    80000238:	0000a997          	auipc	s3,0xa
    8000023c:	d1098993          	addi	s3,s3,-752 # 80009f48 <uip_listenports>
    80000240:	0000ab97          	auipc	s7,0xa
    80000244:	1a0b8b93          	addi	s7,s7,416 # 8000a3e0 <uip_conn>
    80000248:	00200513          	li	a0,2
    8000024c:	012bb023          	sd	s2,0(s7)
    80000250:	028030ef          	jal	ra,80003278 <uip_process>
    80000254:	0004d783          	lhu	a5,0(s1)
    80000258:	00078a63          	beqz	a5,8000026c <main+0x1a0>
    8000025c:	538020ef          	jal	ra,80002794 <uip_arp_out>
    80000260:	0004d583          	lhu	a1,0(s1)
    80000264:	00040513          	mv	a0,s0
    80000268:	e21ff0ef          	jal	ra,80000088 <juice_netcrard_send>
    8000026c:	02090913          	addi	s2,s2,32
    80000270:	fd391ce3          	bne	s2,s3,80000248 <main+0x17c>
    80000274:	0000a917          	auipc	s2,0xa
    80000278:	d5c90913          	addi	s2,s2,-676 # 80009fd0 <uip_udp_conns>
    8000027c:	0000a997          	auipc	s3,0xa
    80000280:	0c498993          	addi	s3,s3,196 # 8000a340 <s>
    80000284:	0000ab97          	auipc	s7,0xa
    80000288:	194b8b93          	addi	s7,s7,404 # 8000a418 <uip_udp_conn>
    8000028c:	00500513          	li	a0,5
    80000290:	012bb023          	sd	s2,0(s7)
    80000294:	7e5020ef          	jal	ra,80003278 <uip_process>
    80000298:	0004d783          	lhu	a5,0(s1)
    8000029c:	00078a63          	beqz	a5,800002b0 <main+0x1e4>
    800002a0:	4f4020ef          	jal	ra,80002794 <uip_arp_out>
    800002a4:	0004d583          	lhu	a1,0(s1)
    800002a8:	00040513          	mv	a0,s0
    800002ac:	dddff0ef          	jal	ra,80000088 <juice_netcrard_send>
    800002b0:	05890913          	addi	s2,s2,88
    800002b4:	fd391ce3          	bne	s2,s3,8000028c <main+0x1c0>
    800002b8:	00810513          	addi	a0,sp,8
    800002bc:	789010ef          	jal	ra,80002244 <timer_expired>
    800002c0:	f0050ae3          	beqz	a0,800001d4 <main+0x108>
    800002c4:	00810513          	addi	a0,sp,8
    800002c8:	741010ef          	jal	ra,80002208 <timer_reset>
    800002cc:	228020ef          	jal	ra,800024f4 <uip_arp_timer>
    800002d0:	f01ff06f          	j	800001d0 <main+0x104>
    800002d4:	00eb06b3          	add	a3,s6,a4
    800002d8:	5e96c583          	lbu	a1,1513(a3) # d5e9 <_start-0x7fff2a17>
    800002dc:	008706b3          	add	a3,a4,s0
    800002e0:	00170713          	addi	a4,a4,1
    800002e4:	00b68023          	sb	a1,0(a3)
    800002e8:	f1dff06f          	j	80000204 <main+0x138>
    800002ec:	0000a797          	auipc	a5,0xa
    800002f0:	10079823          	sh	zero,272(a5) # 8000a3fc <uip_len>
    800002f4:	f29ff06f          	j	8000021c <main+0x150>
    800002f8:	00d44903          	lbu	s2,13(s0)
    800002fc:	00c44783          	lbu	a5,12(s0)
    80000300:	000a8513          	mv	a0,s5
    80000304:	00891913          	slli	s2,s2,0x8
    80000308:	00f96933          	or	s2,s2,a5
    8000030c:	1a4040ef          	jal	ra,800044b0 <htons>
    80000310:	0005051b          	sext.w	a0,a0
    80000314:	02a91463          	bne	s2,a0,8000033c <main+0x270>
    80000318:	00100513          	li	a0,1
    8000031c:	75d020ef          	jal	ra,80003278 <uip_process>
    80000320:	0004d783          	lhu	a5,0(s1)
    80000324:	ee078ce3          	beqz	a5,8000021c <main+0x150>
    80000328:	46c020ef          	jal	ra,80002794 <uip_arp_out>
    8000032c:	0004d583          	lhu	a1,0(s1)
    80000330:	00040513          	mv	a0,s0
    80000334:	d55ff0ef          	jal	ra,80000088 <juice_netcrard_send>
    80000338:	ee5ff06f          	j	8000021c <main+0x150>
    8000033c:	00d44903          	lbu	s2,13(s0)
    80000340:	00c44783          	lbu	a5,12(s0)
    80000344:	806a0513          	addi	a0,s4,-2042
    80000348:	00891913          	slli	s2,s2,0x8
    8000034c:	00f96933          	or	s2,s2,a5
    80000350:	160040ef          	jal	ra,800044b0 <htons>
    80000354:	0005051b          	sext.w	a0,a0
    80000358:	eca912e3          	bne	s2,a0,8000021c <main+0x150>
    8000035c:	264020ef          	jal	ra,800025c0 <uip_arp_arpin>
    80000360:	0004d583          	lhu	a1,0(s1)
    80000364:	ea058ce3          	beqz	a1,8000021c <main+0x150>
    80000368:	fc9ff06f          	j	80000330 <main+0x264>

000000008000036c <dhcpc_configured>:
    8000036c:	fd010113          	addi	sp,sp,-48
    80000370:	02813023          	sd	s0,32(sp)
    80000374:	00050413          	mv	s0,a0
    80000378:	03455503          	lhu	a0,52(a0)
    8000037c:	02113423          	sd	ra,40(sp)
    80000380:	00913c23          	sd	s1,24(sp)
    80000384:	01213823          	sd	s2,16(sp)
    80000388:	01313423          	sd	s3,8(sp)
    8000038c:	124040ef          	jal	ra,800044b0 <htons>
    80000390:	00050493          	mv	s1,a0
    80000394:	03445503          	lhu	a0,52(s0)
    80000398:	118040ef          	jal	ra,800044b0 <htons>
    8000039c:	00050993          	mv	s3,a0
    800003a0:	03645503          	lhu	a0,54(s0)
    800003a4:	10c040ef          	jal	ra,800044b0 <htons>
    800003a8:	00050913          	mv	s2,a0
    800003ac:	03645503          	lhu	a0,54(s0)
    800003b0:	100040ef          	jal	ra,800044b0 <htons>
    800003b4:	0089569b          	srliw	a3,s2,0x8
    800003b8:	0084d59b          	srliw	a1,s1,0x8
    800003bc:	03069693          	slli	a3,a3,0x30
    800003c0:	03059593          	slli	a1,a1,0x30
    800003c4:	0ff57713          	zext.b	a4,a0
    800003c8:	0ff9f613          	zext.b	a2,s3
    800003cc:	0306d693          	srli	a3,a3,0x30
    800003d0:	0305d593          	srli	a1,a1,0x30
    800003d4:	00009517          	auipc	a0,0x9
    800003d8:	b2450513          	addi	a0,a0,-1244 # 80008ef8 <__malloc_av_+0x858>
    800003dc:	728010ef          	jal	ra,80001b04 <printf>
    800003e0:	03845503          	lhu	a0,56(s0)
    800003e4:	0cc040ef          	jal	ra,800044b0 <htons>
    800003e8:	00050493          	mv	s1,a0
    800003ec:	03845503          	lhu	a0,56(s0)
    800003f0:	0c0040ef          	jal	ra,800044b0 <htons>
    800003f4:	00050993          	mv	s3,a0
    800003f8:	03a45503          	lhu	a0,58(s0)
    800003fc:	0b4040ef          	jal	ra,800044b0 <htons>
    80000400:	00050913          	mv	s2,a0
    80000404:	03a45503          	lhu	a0,58(s0)
    80000408:	0a8040ef          	jal	ra,800044b0 <htons>
    8000040c:	0089569b          	srliw	a3,s2,0x8
    80000410:	0084d59b          	srliw	a1,s1,0x8
    80000414:	03069693          	slli	a3,a3,0x30
    80000418:	03059593          	slli	a1,a1,0x30
    8000041c:	0ff57713          	zext.b	a4,a0
    80000420:	0ff9f613          	zext.b	a2,s3
    80000424:	0306d693          	srli	a3,a3,0x30
    80000428:	0305d593          	srli	a1,a1,0x30
    8000042c:	00009517          	auipc	a0,0x9
    80000430:	aec50513          	addi	a0,a0,-1300 # 80008f18 <__malloc_av_+0x878>
    80000434:	6d0010ef          	jal	ra,80001b04 <printf>
    80000438:	03c45503          	lhu	a0,60(s0)
    8000043c:	074040ef          	jal	ra,800044b0 <htons>
    80000440:	00050493          	mv	s1,a0
    80000444:	03c45503          	lhu	a0,60(s0)
    80000448:	068040ef          	jal	ra,800044b0 <htons>
    8000044c:	00050993          	mv	s3,a0
    80000450:	03e45503          	lhu	a0,62(s0)
    80000454:	05c040ef          	jal	ra,800044b0 <htons>
    80000458:	00050913          	mv	s2,a0
    8000045c:	03e45503          	lhu	a0,62(s0)
    80000460:	050040ef          	jal	ra,800044b0 <htons>
    80000464:	0089569b          	srliw	a3,s2,0x8
    80000468:	0084d59b          	srliw	a1,s1,0x8
    8000046c:	03069693          	slli	a3,a3,0x30
    80000470:	03059593          	slli	a1,a1,0x30
    80000474:	0ff57713          	zext.b	a4,a0
    80000478:	0ff9f613          	zext.b	a2,s3
    8000047c:	0306d693          	srli	a3,a3,0x30
    80000480:	0305d593          	srli	a1,a1,0x30
    80000484:	00009517          	auipc	a0,0x9
    80000488:	ab450513          	addi	a0,a0,-1356 # 80008f38 <__malloc_av_+0x898>
    8000048c:	678010ef          	jal	ra,80001b04 <printf>
    80000490:	04045503          	lhu	a0,64(s0)
    80000494:	01c040ef          	jal	ra,800044b0 <htons>
    80000498:	00050493          	mv	s1,a0
    8000049c:	04045503          	lhu	a0,64(s0)
    800004a0:	010040ef          	jal	ra,800044b0 <htons>
    800004a4:	00050993          	mv	s3,a0
    800004a8:	04245503          	lhu	a0,66(s0)
    800004ac:	004040ef          	jal	ra,800044b0 <htons>
    800004b0:	00050913          	mv	s2,a0
    800004b4:	04245503          	lhu	a0,66(s0)
    800004b8:	7f9030ef          	jal	ra,800044b0 <htons>
    800004bc:	0084d59b          	srliw	a1,s1,0x8
    800004c0:	0089569b          	srliw	a3,s2,0x8
    800004c4:	03069693          	slli	a3,a3,0x30
    800004c8:	03059593          	slli	a1,a1,0x30
    800004cc:	0ff57713          	zext.b	a4,a0
    800004d0:	0306d693          	srli	a3,a3,0x30
    800004d4:	0ff9f613          	zext.b	a2,s3
    800004d8:	0305d593          	srli	a1,a1,0x30
    800004dc:	00009517          	auipc	a0,0x9
    800004e0:	a7c50513          	addi	a0,a0,-1412 # 80008f58 <__malloc_av_+0x8b8>
    800004e4:	620010ef          	jal	ra,80001b04 <printf>
    800004e8:	03045503          	lhu	a0,48(s0)
    800004ec:	7c5030ef          	jal	ra,800044b0 <htons>
    800004f0:	00050493          	mv	s1,a0
    800004f4:	03245503          	lhu	a0,50(s0)
    800004f8:	01049493          	slli	s1,s1,0x10
    800004fc:	7b5030ef          	jal	ra,800044b0 <htons>
    80000500:	00a485b3          	add	a1,s1,a0
    80000504:	00009517          	auipc	a0,0x9
    80000508:	a7450513          	addi	a0,a0,-1420 # 80008f78 <__malloc_av_+0x8d8>
    8000050c:	5f8010ef          	jal	ra,80001b04 <printf>
    80000510:	03445703          	lhu	a4,52(s0)
    80000514:	0000a797          	auipc	a5,0xa
    80000518:	ee478793          	addi	a5,a5,-284 # 8000a3f8 <uip_hostaddr>
    8000051c:	00e79023          	sh	a4,0(a5)
    80000520:	03645703          	lhu	a4,54(s0)
    80000524:	00e79123          	sh	a4,2(a5)
    80000528:	03845703          	lhu	a4,56(s0)
    8000052c:	0000a797          	auipc	a5,0xa
    80000530:	ed478793          	addi	a5,a5,-300 # 8000a400 <uip_netmask>
    80000534:	00e79023          	sh	a4,0(a5)
    80000538:	03a45703          	lhu	a4,58(s0)
    8000053c:	00e79123          	sh	a4,2(a5)
    80000540:	04045703          	lhu	a4,64(s0)
    80000544:	0000a797          	auipc	a5,0xa
    80000548:	ea478793          	addi	a5,a5,-348 # 8000a3e8 <uip_draddr>
    8000054c:	00e79023          	sh	a4,0(a5)
    80000550:	04245703          	lhu	a4,66(s0)
    80000554:	00e79123          	sh	a4,2(a5)
    80000558:	0000006f          	j	80000558 <dhcpc_configured+0x1ec>

000000008000055c <_out_buffer>:
    8000055c:	00d67663          	bgeu	a2,a3,80000568 <_out_buffer+0xc>
    80000560:	00c585b3          	add	a1,a1,a2
    80000564:	00a58023          	sb	a0,0(a1)
    80000568:	00008067          	ret

000000008000056c <_out_null>:
    8000056c:	00008067          	ret

0000000080000570 <_out_rev>:
    80000570:	fa010113          	addi	sp,sp,-96
    80000574:	04913423          	sd	s1,72(sp)
    80000578:	05213023          	sd	s2,64(sp)
    8000057c:	03313c23          	sd	s3,56(sp)
    80000580:	03413823          	sd	s4,48(sp)
    80000584:	03513423          	sd	s5,40(sp)
    80000588:	03613023          	sd	s6,32(sp)
    8000058c:	01713c23          	sd	s7,24(sp)
    80000590:	01813823          	sd	s8,16(sp)
    80000594:	00078493          	mv	s1,a5
    80000598:	04113c23          	sd	ra,88(sp)
    8000059c:	04813823          	sd	s0,80(sp)
    800005a0:	01913423          	sd	s9,8(sp)
    800005a4:	01a13023          	sd	s10,0(sp)
    800005a8:	0038f793          	andi	a5,a7,3
    800005ac:	00050a93          	mv	s5,a0
    800005b0:	00058b13          	mv	s6,a1
    800005b4:	00060913          	mv	s2,a2
    800005b8:	00068b93          	mv	s7,a3
    800005bc:	00070c13          	mv	s8,a4
    800005c0:	00080993          	mv	s3,a6
    800005c4:	00088a13          	mv	s4,a7
    800005c8:	08078663          	beqz	a5,80000654 <_out_rev+0xe4>
    800005cc:	00c48433          	add	s0,s1,a2
    800005d0:	00040513          	mv	a0,s0
    800005d4:	40940633          	sub	a2,s0,s1
    800005d8:	08049663          	bnez	s1,80000664 <_out_rev+0xf4>
    800005dc:	002a7a13          	andi	s4,s4,2
    800005e0:	000a0c63          	beqz	s4,800005f8 <_out_rev+0x88>
    800005e4:	02099993          	slli	s3,s3,0x20
    800005e8:	41240433          	sub	s0,s0,s2
    800005ec:	0209d993          	srli	s3,s3,0x20
    800005f0:	00890533          	add	a0,s2,s0
    800005f4:	09346663          	bltu	s0,s3,80000680 <_out_rev+0x110>
    800005f8:	05813083          	ld	ra,88(sp)
    800005fc:	05013403          	ld	s0,80(sp)
    80000600:	04813483          	ld	s1,72(sp)
    80000604:	04013903          	ld	s2,64(sp)
    80000608:	03813983          	ld	s3,56(sp)
    8000060c:	03013a03          	ld	s4,48(sp)
    80000610:	02813a83          	ld	s5,40(sp)
    80000614:	02013b03          	ld	s6,32(sp)
    80000618:	01813b83          	ld	s7,24(sp)
    8000061c:	01013c03          	ld	s8,16(sp)
    80000620:	00813c83          	ld	s9,8(sp)
    80000624:	00013d03          	ld	s10,0(sp)
    80000628:	06010113          	addi	sp,sp,96
    8000062c:	00008067          	ret
    80000630:	000b8693          	mv	a3,s7
    80000634:	000b0593          	mv	a1,s6
    80000638:	02000513          	li	a0,32
    8000063c:	00160d13          	addi	s10,a2,1
    80000640:	000a80e7          	jalr	s5
    80000644:	000d0613          	mv	a2,s10
    80000648:	00cc87b3          	add	a5,s9,a2
    8000064c:	fe87e2e3          	bltu	a5,s0,80000630 <_out_rev+0xc0>
    80000650:	f7dff06f          	j	800005cc <_out_rev+0x5c>
    80000654:	02081413          	slli	s0,a6,0x20
    80000658:	02045413          	srli	s0,s0,0x20
    8000065c:	40c48cb3          	sub	s9,s1,a2
    80000660:	fe9ff06f          	j	80000648 <_out_rev+0xd8>
    80000664:	fff48493          	addi	s1,s1,-1
    80000668:	009c07b3          	add	a5,s8,s1
    8000066c:	0007c503          	lbu	a0,0(a5)
    80000670:	000b8693          	mv	a3,s7
    80000674:	000b0593          	mv	a1,s6
    80000678:	000a80e7          	jalr	s5
    8000067c:	f55ff06f          	j	800005d0 <_out_rev+0x60>
    80000680:	00050613          	mv	a2,a0
    80000684:	000b8693          	mv	a3,s7
    80000688:	000b0593          	mv	a1,s6
    8000068c:	02000513          	li	a0,32
    80000690:	000a80e7          	jalr	s5
    80000694:	00140413          	addi	s0,s0,1
    80000698:	f59ff06f          	j	800005f0 <_out_rev+0x80>

000000008000069c <_ntoa_long>:
    8000069c:	fc010113          	addi	sp,sp,-64
    800006a0:	02113c23          	sd	ra,56(sp)
    800006a4:	02813823          	sd	s0,48(sp)
    800006a8:	02913423          	sd	s1,40(sp)
    800006ac:	00080e13          	mv	t3,a6
    800006b0:	00088e93          	mv	t4,a7
    800006b4:	04012803          	lw	a6,64(sp)
    800006b8:	04812883          	lw	a7,72(sp)
    800006bc:	00071463          	bnez	a4,800006c4 <_ntoa_long+0x28>
    800006c0:	fef8f893          	andi	a7,a7,-17
    800006c4:	4008f393          	andi	t2,a7,1024
    800006c8:	00038463          	beqz	t2,800006d0 <_ntoa_long+0x34>
    800006cc:	04070c63          	beqz	a4,80000724 <_ntoa_long+0x88>
    800006d0:	0208ff13          	andi	t5,a7,32
    800006d4:	06100313          	li	t1,97
    800006d8:	000f0463          	beqz	t5,800006e0 <_ntoa_long+0x44>
    800006dc:	04100313          	li	t1,65
    800006e0:	00070f93          	mv	t6,a4
    800006e4:	00010293          	mv	t0,sp
    800006e8:	00000713          	li	a4,0
    800006ec:	00900493          	li	s1,9
    800006f0:	ff630f1b          	addiw	t5,t1,-10
    800006f4:	02000413          	li	s0,32
    800006f8:	03cff0b3          	remu	ra,t6,t3
    800006fc:	0ff0f313          	zext.b	t1,ra
    80000700:	0614e463          	bltu	s1,ra,80000768 <_ntoa_long+0xcc>
    80000704:	0303031b          	addiw	t1,t1,48
    80000708:	0ff37313          	zext.b	t1,t1
    8000070c:	00628023          	sb	t1,0(t0)
    80000710:	00170713          	addi	a4,a4,1
    80000714:	03cfd333          	divu	t1,t6,t3
    80000718:	01cfe663          	bltu	t6,t3,80000724 <_ntoa_long+0x88>
    8000071c:	00128293          	addi	t0,t0,1
    80000720:	04871063          	bne	a4,s0,80000760 <_ntoa_long+0xc4>
    80000724:	0028ff13          	andi	t5,a7,2
    80000728:	00088313          	mv	t1,a7
    8000072c:	060f1a63          	bnez	t5,800007a0 <_ntoa_long+0x104>
    80000730:	0018ff13          	andi	t5,a7,1
    80000734:	00080c63          	beqz	a6,8000074c <_ntoa_long+0xb0>
    80000738:	000f0a63          	beqz	t5,8000074c <_ntoa_long+0xb0>
    8000073c:	00079663          	bnez	a5,80000748 <_ntoa_long+0xac>
    80000740:	00c37313          	andi	t1,t1,12
    80000744:	00030463          	beqz	t1,8000074c <_ntoa_long+0xb0>
    80000748:	fff8081b          	addiw	a6,a6,-1
    8000074c:	020e9f93          	slli	t6,t4,0x20
    80000750:	020fdf93          	srli	t6,t6,0x20
    80000754:	02000313          	li	t1,32
    80000758:	03000293          	li	t0,48
    8000075c:	0200006f          	j	8000077c <_ntoa_long+0xe0>
    80000760:	00030f93          	mv	t6,t1
    80000764:	f95ff06f          	j	800006f8 <_ntoa_long+0x5c>
    80000768:	006f033b          	addw	t1,t5,t1
    8000076c:	f9dff06f          	j	80000708 <_ntoa_long+0x6c>
    80000770:	00e100b3          	add	ra,sp,a4
    80000774:	00508023          	sb	t0,0(ra)
    80000778:	00170713          	addi	a4,a4,1
    8000077c:	01f77463          	bgeu	a4,t6,80000784 <_ntoa_long+0xe8>
    80000780:	fe6718e3          	bne	a4,t1,80000770 <_ntoa_long+0xd4>
    80000784:	02081f93          	slli	t6,a6,0x20
    80000788:	020fdf93          	srli	t6,t6,0x20
    8000078c:	01f00313          	li	t1,31
    80000790:	03000293          	li	t0,48
    80000794:	000f0663          	beqz	t5,800007a0 <_ntoa_long+0x104>
    80000798:	01f77463          	bgeu	a4,t6,800007a0 <_ntoa_long+0x104>
    8000079c:	06e37263          	bgeu	t1,a4,80000800 <_ntoa_long+0x164>
    800007a0:	0108f313          	andi	t1,a7,16
    800007a4:	0a030c63          	beqz	t1,8000085c <_ntoa_long+0x1c0>
    800007a8:	06039663          	bnez	t2,80000814 <_ntoa_long+0x178>
    800007ac:	06070463          	beqz	a4,80000814 <_ntoa_long+0x178>
    800007b0:	020e9e93          	slli	t4,t4,0x20
    800007b4:	020ede93          	srli	t4,t4,0x20
    800007b8:	01d70863          	beq	a4,t4,800007c8 <_ntoa_long+0x12c>
    800007bc:	02081313          	slli	t1,a6,0x20
    800007c0:	02035313          	srli	t1,t1,0x20
    800007c4:	04671863          	bne	a4,t1,80000814 <_ntoa_long+0x178>
    800007c8:	fff70313          	addi	t1,a4,-1
    800007cc:	04030263          	beqz	t1,80000810 <_ntoa_long+0x174>
    800007d0:	01000e93          	li	t4,16
    800007d4:	ffe70713          	addi	a4,a4,-2
    800007d8:	05de0263          	beq	t3,t4,8000081c <_ntoa_long+0x180>
    800007dc:	00030713          	mv	a4,t1
    800007e0:	00200313          	li	t1,2
    800007e4:	046e1e63          	bne	t3,t1,80000840 <_ntoa_long+0x1a4>
    800007e8:	01f00313          	li	t1,31
    800007ec:	08e36863          	bltu	t1,a4,8000087c <_ntoa_long+0x1e0>
    800007f0:	02070313          	addi	t1,a4,32
    800007f4:	00230333          	add	t1,t1,sp
    800007f8:	06200e13          	li	t3,98
    800007fc:	03c0006f          	j	80000838 <_ntoa_long+0x19c>
    80000800:	00e100b3          	add	ra,sp,a4
    80000804:	00508023          	sb	t0,0(ra)
    80000808:	00170713          	addi	a4,a4,1
    8000080c:	f89ff06f          	j	80000794 <_ntoa_long+0xf8>
    80000810:	00000713          	li	a4,0
    80000814:	01000313          	li	t1,16
    80000818:	fc6e14e3          	bne	t3,t1,800007e0 <_ntoa_long+0x144>
    8000081c:	0208f313          	andi	t1,a7,32
    80000820:	06031e63          	bnez	t1,8000089c <_ntoa_long+0x200>
    80000824:	01f00313          	li	t1,31
    80000828:	04e36a63          	bltu	t1,a4,8000087c <_ntoa_long+0x1e0>
    8000082c:	02070313          	addi	t1,a4,32
    80000830:	00230333          	add	t1,t1,sp
    80000834:	07800e13          	li	t3,120
    80000838:	ffc30023          	sb	t3,-32(t1)
    8000083c:	00170713          	addi	a4,a4,1
    80000840:	01f00313          	li	t1,31
    80000844:	02e36c63          	bltu	t1,a4,8000087c <_ntoa_long+0x1e0>
    80000848:	02070313          	addi	t1,a4,32
    8000084c:	00230333          	add	t1,t1,sp
    80000850:	03000e13          	li	t3,48
    80000854:	ffc30023          	sb	t3,-32(t1)
    80000858:	00170713          	addi	a4,a4,1
    8000085c:	01f00313          	li	t1,31
    80000860:	00e36e63          	bltu	t1,a4,8000087c <_ntoa_long+0x1e0>
    80000864:	04078863          	beqz	a5,800008b4 <_ntoa_long+0x218>
    80000868:	02070793          	addi	a5,a4,32
    8000086c:	002787b3          	add	a5,a5,sp
    80000870:	02d00313          	li	t1,45
    80000874:	fe678023          	sb	t1,-32(a5)
    80000878:	00170713          	addi	a4,a4,1
    8000087c:	00070793          	mv	a5,a4
    80000880:	00010713          	mv	a4,sp
    80000884:	cedff0ef          	jal	ra,80000570 <_out_rev>
    80000888:	03813083          	ld	ra,56(sp)
    8000088c:	03013403          	ld	s0,48(sp)
    80000890:	02813483          	ld	s1,40(sp)
    80000894:	04010113          	addi	sp,sp,64
    80000898:	00008067          	ret
    8000089c:	01f00313          	li	t1,31
    800008a0:	fce36ee3          	bltu	t1,a4,8000087c <_ntoa_long+0x1e0>
    800008a4:	02070313          	addi	t1,a4,32
    800008a8:	00230333          	add	t1,t1,sp
    800008ac:	05800e13          	li	t3,88
    800008b0:	f89ff06f          	j	80000838 <_ntoa_long+0x19c>
    800008b4:	0048f793          	andi	a5,a7,4
    800008b8:	00078a63          	beqz	a5,800008cc <_ntoa_long+0x230>
    800008bc:	02070793          	addi	a5,a4,32
    800008c0:	002787b3          	add	a5,a5,sp
    800008c4:	02b00313          	li	t1,43
    800008c8:	fadff06f          	j	80000874 <_ntoa_long+0x1d8>
    800008cc:	0088f793          	andi	a5,a7,8
    800008d0:	fa0786e3          	beqz	a5,8000087c <_ntoa_long+0x1e0>
    800008d4:	02070793          	addi	a5,a4,32
    800008d8:	002787b3          	add	a5,a5,sp
    800008dc:	02000313          	li	t1,32
    800008e0:	f95ff06f          	j	80000874 <_ntoa_long+0x1d8>

00000000800008e4 <_etoa>:
    800008e4:	f6010113          	addi	sp,sp,-160
    800008e8:	05713c23          	sd	s7,88(sp)
    800008ec:	05813823          	sd	s8,80(sp)
    800008f0:	00050b93          	mv	s7,a0
    800008f4:	00058c13          	mv	s8,a1
    800008f8:	00070513          	mv	a0,a4
    800008fc:	00070593          	mv	a1,a4
    80000900:	08913423          	sd	s1,136(sp)
    80000904:	09213023          	sd	s2,128(sp)
    80000908:	07313c23          	sd	s3,120(sp)
    8000090c:	07613023          	sd	s6,96(sp)
    80000910:	05913423          	sd	s9,72(sp)
    80000914:	08113c23          	sd	ra,152(sp)
    80000918:	08813823          	sd	s0,144(sp)
    8000091c:	07413823          	sd	s4,112(sp)
    80000920:	07513423          	sd	s5,104(sp)
    80000924:	05a13023          	sd	s10,64(sp)
    80000928:	03b13c23          	sd	s11,56(sp)
    8000092c:	00c13823          	sd	a2,16(sp)
    80000930:	00068c93          	mv	s9,a3
    80000934:	00070993          	mv	s3,a4
    80000938:	00078913          	mv	s2,a5
    8000093c:	00080b13          	mv	s6,a6
    80000940:	00088493          	mv	s1,a7
    80000944:	1b5040ef          	jal	ra,800052f8 <__eqdf2>
    80000948:	02051663          	bnez	a0,80000974 <_etoa+0x90>
    8000094c:	00007597          	auipc	a1,0x7
    80000950:	54c5b583          	ld	a1,1356(a1) # 80007e98 <__errno+0x10>
    80000954:	00098513          	mv	a0,s3
    80000958:	225040ef          	jal	ra,8000537c <__gedf2>
    8000095c:	00a04c63          	bgtz	a0,80000974 <_etoa+0x90>
    80000960:	00007597          	auipc	a1,0x7
    80000964:	5405b583          	ld	a1,1344(a1) # 80007ea0 <__errno+0x18>
    80000968:	00098513          	mv	a0,s3
    8000096c:	2c9040ef          	jal	ra,80005434 <__ledf2>
    80000970:	06055063          	bgez	a0,800009d0 <_etoa+0xec>
    80000974:	09013403          	ld	s0,144(sp)
    80000978:	01013603          	ld	a2,16(sp)
    8000097c:	09813083          	ld	ra,152(sp)
    80000980:	07013a03          	ld	s4,112(sp)
    80000984:	06813a83          	ld	s5,104(sp)
    80000988:	04013d03          	ld	s10,64(sp)
    8000098c:	03813d83          	ld	s11,56(sp)
    80000990:	00048893          	mv	a7,s1
    80000994:	000b0813          	mv	a6,s6
    80000998:	08813483          	ld	s1,136(sp)
    8000099c:	06013b03          	ld	s6,96(sp)
    800009a0:	00090793          	mv	a5,s2
    800009a4:	00098713          	mv	a4,s3
    800009a8:	08013903          	ld	s2,128(sp)
    800009ac:	07813983          	ld	s3,120(sp)
    800009b0:	000c8693          	mv	a3,s9
    800009b4:	000c0593          	mv	a1,s8
    800009b8:	04813c83          	ld	s9,72(sp)
    800009bc:	05013c03          	ld	s8,80(sp)
    800009c0:	000b8513          	mv	a0,s7
    800009c4:	05813b83          	ld	s7,88(sp)
    800009c8:	0a010113          	addi	sp,sp,160
    800009cc:	3c00006f          	j	80000d8c <_ftoa>
    800009d0:	00000593          	li	a1,0
    800009d4:	00098513          	mv	a0,s3
    800009d8:	25d040ef          	jal	ra,80005434 <__ledf2>
    800009dc:	00098d13          	mv	s10,s3
    800009e0:	00055863          	bgez	a0,800009f0 <_etoa+0x10c>
    800009e4:	fff00713          	li	a4,-1
    800009e8:	03f71713          	slli	a4,a4,0x3f
    800009ec:	00e9cd33          	xor	s10,s3,a4
    800009f0:	4004fd93          	andi	s11,s1,1024
    800009f4:	000d9463          	bnez	s11,800009fc <_etoa+0x118>
    800009f8:	00600913          	li	s2,6
    800009fc:	034d5513          	srli	a0,s10,0x34
    80000a00:	7ff57513          	andi	a0,a0,2047
    80000a04:	c015051b          	addiw	a0,a0,-1023
    80000a08:	34c050ef          	jal	ra,80005d54 <__floatsidf>
    80000a0c:	00007597          	auipc	a1,0x7
    80000a10:	49c5b583          	ld	a1,1180(a1) # 80007ea8 <__errno+0x20>
    80000a14:	2d9040ef          	jal	ra,800054ec <__muldf3>
    80000a18:	00007597          	auipc	a1,0x7
    80000a1c:	4985b583          	ld	a1,1176(a1) # 80007eb0 <__errno+0x28>
    80000a20:	10c040ef          	jal	ra,80004b2c <__adddf3>
    80000a24:	00050413          	mv	s0,a0
    80000a28:	3ff00793          	li	a5,1023
    80000a2c:	00cd1513          	slli	a0,s10,0xc
    80000a30:	03479793          	slli	a5,a5,0x34
    80000a34:	00c55513          	srli	a0,a0,0xc
    80000a38:	00f56533          	or	a0,a0,a5
    80000a3c:	00007597          	auipc	a1,0x7
    80000a40:	47c5b583          	ld	a1,1148(a1) # 80007eb8 <__errno+0x30>
    80000a44:	61d040ef          	jal	ra,80005860 <__subdf3>
    80000a48:	00007597          	auipc	a1,0x7
    80000a4c:	4785b583          	ld	a1,1144(a1) # 80007ec0 <__errno+0x38>
    80000a50:	29d040ef          	jal	ra,800054ec <__muldf3>
    80000a54:	00050593          	mv	a1,a0
    80000a58:	00040513          	mv	a0,s0
    80000a5c:	0d0040ef          	jal	ra,80004b2c <__adddf3>
    80000a60:	290050ef          	jal	ra,80005cf0 <__fixdfsi>
    80000a64:	00050a1b          	sext.w	s4,a0
    80000a68:	000a0513          	mv	a0,s4
    80000a6c:	03412623          	sw	s4,44(sp)
    80000a70:	2e4050ef          	jal	ra,80005d54 <__floatsidf>
    80000a74:	00007597          	auipc	a1,0x7
    80000a78:	4545b583          	ld	a1,1108(a1) # 80007ec8 <__errno+0x40>
    80000a7c:	00050413          	mv	s0,a0
    80000a80:	26d040ef          	jal	ra,800054ec <__muldf3>
    80000a84:	00007597          	auipc	a1,0x7
    80000a88:	44c5b583          	ld	a1,1100(a1) # 80007ed0 <__errno+0x48>
    80000a8c:	0a0040ef          	jal	ra,80004b2c <__adddf3>
    80000a90:	260050ef          	jal	ra,80005cf0 <__fixdfsi>
    80000a94:	0005079b          	sext.w	a5,a0
    80000a98:	00007597          	auipc	a1,0x7
    80000a9c:	4405b583          	ld	a1,1088(a1) # 80007ed8 <__errno+0x50>
    80000aa0:	00040513          	mv	a0,s0
    80000aa4:	00078a93          	mv	s5,a5
    80000aa8:	00f13c23          	sd	a5,24(sp)
    80000aac:	241040ef          	jal	ra,800054ec <__muldf3>
    80000ab0:	01813783          	ld	a5,24(sp)
    80000ab4:	00050413          	mv	s0,a0
    80000ab8:	00078513          	mv	a0,a5
    80000abc:	298050ef          	jal	ra,80005d54 <__floatsidf>
    80000ac0:	00007597          	auipc	a1,0x7
    80000ac4:	4205b583          	ld	a1,1056(a1) # 80007ee0 <__errno+0x58>
    80000ac8:	225040ef          	jal	ra,800054ec <__muldf3>
    80000acc:	00050593          	mv	a1,a0
    80000ad0:	00040513          	mv	a0,s0
    80000ad4:	58d040ef          	jal	ra,80005860 <__subdf3>
    80000ad8:	00050593          	mv	a1,a0
    80000adc:	00a13c23          	sd	a0,24(sp)
    80000ae0:	20d040ef          	jal	ra,800054ec <__muldf3>
    80000ae4:	01813783          	ld	a5,24(sp)
    80000ae8:	00050413          	mv	s0,a0
    80000aec:	00078593          	mv	a1,a5
    80000af0:	00078513          	mv	a0,a5
    80000af4:	02f13023          	sd	a5,32(sp)
    80000af8:	034040ef          	jal	ra,80004b2c <__adddf3>
    80000afc:	00007597          	auipc	a1,0x7
    80000b00:	3ec5b583          	ld	a1,1004(a1) # 80007ee8 <__errno+0x60>
    80000b04:	00a13c23          	sd	a0,24(sp)
    80000b08:	00040513          	mv	a0,s0
    80000b0c:	498040ef          	jal	ra,80004fa4 <__divdf3>
    80000b10:	00007597          	auipc	a1,0x7
    80000b14:	3e05b583          	ld	a1,992(a1) # 80007ef0 <__errno+0x68>
    80000b18:	014040ef          	jal	ra,80004b2c <__adddf3>
    80000b1c:	00050593          	mv	a1,a0
    80000b20:	00040513          	mv	a0,s0
    80000b24:	480040ef          	jal	ra,80004fa4 <__divdf3>
    80000b28:	00007597          	auipc	a1,0x7
    80000b2c:	3d05b583          	ld	a1,976(a1) # 80007ef8 <__errno+0x70>
    80000b30:	7fd030ef          	jal	ra,80004b2c <__adddf3>
    80000b34:	00050593          	mv	a1,a0
    80000b38:	00040513          	mv	a0,s0
    80000b3c:	468040ef          	jal	ra,80004fa4 <__divdf3>
    80000b40:	02013783          	ld	a5,32(sp)
    80000b44:	00050413          	mv	s0,a0
    80000b48:	00007517          	auipc	a0,0x7
    80000b4c:	3b853503          	ld	a0,952(a0) # 80007f00 <__errno+0x78>
    80000b50:	00078593          	mv	a1,a5
    80000b54:	50d040ef          	jal	ra,80005860 <__subdf3>
    80000b58:	00050593          	mv	a1,a0
    80000b5c:	00040513          	mv	a0,s0
    80000b60:	7cd030ef          	jal	ra,80004b2c <__adddf3>
    80000b64:	01813603          	ld	a2,24(sp)
    80000b68:	00050593          	mv	a1,a0
    80000b6c:	00060513          	mv	a0,a2
    80000b70:	434040ef          	jal	ra,80004fa4 <__divdf3>
    80000b74:	00007597          	auipc	a1,0x7
    80000b78:	3945b583          	ld	a1,916(a1) # 80007f08 <__errno+0x80>
    80000b7c:	7b1030ef          	jal	ra,80004b2c <__adddf3>
    80000b80:	3ffa859b          	addiw	a1,s5,1023
    80000b84:	03459593          	slli	a1,a1,0x34
    80000b88:	165040ef          	jal	ra,800054ec <__muldf3>
    80000b8c:	000d0593          	mv	a1,s10
    80000b90:	00050a93          	mv	s5,a0
    80000b94:	7e8040ef          	jal	ra,8000537c <__gedf2>
    80000b98:	00a05e63          	blez	a0,80000bb4 <_etoa+0x2d0>
    80000b9c:	000a8513          	mv	a0,s5
    80000ba0:	00007597          	auipc	a1,0x7
    80000ba4:	3505b583          	ld	a1,848(a1) # 80007ef0 <__errno+0x68>
    80000ba8:	3fc040ef          	jal	ra,80004fa4 <__divdf3>
    80000bac:	fffa0a1b          	addiw	s4,s4,-1
    80000bb0:	00050a93          	mv	s5,a0
    80000bb4:	0c600793          	li	a5,198
    80000bb8:	063a041b          	addiw	s0,s4,99
    80000bbc:	0087b433          	sltu	s0,a5,s0
    80000bc0:	00b4d793          	srli	a5,s1,0xb
    80000bc4:	0017f793          	andi	a5,a5,1
    80000bc8:	00440413          	addi	s0,s0,4
    80000bcc:	04078663          	beqz	a5,80000c18 <_etoa+0x334>
    80000bd0:	00007597          	auipc	a1,0x7
    80000bd4:	3405b583          	ld	a1,832(a1) # 80007f10 <__errno+0x88>
    80000bd8:	000d0513          	mv	a0,s10
    80000bdc:	7a0040ef          	jal	ra,8000537c <__gedf2>
    80000be0:	18054263          	bltz	a0,80000d64 <_etoa+0x480>
    80000be4:	00007597          	auipc	a1,0x7
    80000be8:	3345b583          	ld	a1,820(a1) # 80007f18 <__errno+0x90>
    80000bec:	000d0513          	mv	a0,s10
    80000bf0:	045040ef          	jal	ra,80005434 <__ledf2>
    80000bf4:	16055863          	bgez	a0,80000d64 <_etoa+0x480>
    80000bf8:	0009079b          	sext.w	a5,s2
    80000bfc:	00000913          	li	s2,0
    80000c00:	00fa5663          	bge	s4,a5,80000c0c <_etoa+0x328>
    80000c04:	414787bb          	subw	a5,a5,s4
    80000c08:	fff7891b          	addiw	s2,a5,-1
    80000c0c:	4004e493          	ori	s1,s1,1024
    80000c10:	00000413          	li	s0,0
    80000c14:	00000a13          	li	s4,0
    80000c18:	00000813          	li	a6,0
    80000c1c:	01647463          	bgeu	s0,s6,80000c24 <_etoa+0x340>
    80000c20:	408b083b          	subw	a6,s6,s0
    80000c24:	0024fd93          	andi	s11,s1,2
    80000c28:	000d8663          	beqz	s11,80000c34 <_etoa+0x350>
    80000c2c:	00040463          	beqz	s0,80000c34 <_etoa+0x350>
    80000c30:	00000813          	li	a6,0
    80000c34:	000a0e63          	beqz	s4,80000c50 <_etoa+0x36c>
    80000c38:	000d0513          	mv	a0,s10
    80000c3c:	000a8593          	mv	a1,s5
    80000c40:	01013c23          	sd	a6,24(sp)
    80000c44:	360040ef          	jal	ra,80004fa4 <__divdf3>
    80000c48:	01813803          	ld	a6,24(sp)
    80000c4c:	00050d13          	mv	s10,a0
    80000c50:	00000593          	li	a1,0
    80000c54:	00098513          	mv	a0,s3
    80000c58:	01013c23          	sd	a6,24(sp)
    80000c5c:	7d8040ef          	jal	ra,80005434 <__ledf2>
    80000c60:	01813803          	ld	a6,24(sp)
    80000c64:	00055863          	bgez	a0,80000c74 <_etoa+0x390>
    80000c68:	fff00793          	li	a5,-1
    80000c6c:	03f79793          	slli	a5,a5,0x3f
    80000c70:	01a7cd33          	xor	s10,a5,s10
    80000c74:	01013603          	ld	a2,16(sp)
    80000c78:	fffff8b7          	lui	a7,0xfffff
    80000c7c:	7ff88893          	addi	a7,a7,2047 # fffffffffffff7ff <__stack_end+0xffffffff7feff7ff>
    80000c80:	0114f8b3          	and	a7,s1,a7
    80000c84:	00090793          	mv	a5,s2
    80000c88:	000d0713          	mv	a4,s10
    80000c8c:	000c8693          	mv	a3,s9
    80000c90:	000c0593          	mv	a1,s8
    80000c94:	000b8513          	mv	a0,s7
    80000c98:	0f4000ef          	jal	ra,80000d8c <_ftoa>
    80000c9c:	00050613          	mv	a2,a0
    80000ca0:	08040263          	beqz	s0,80000d24 <_etoa+0x440>
    80000ca4:	0204f493          	andi	s1,s1,32
    80000ca8:	04500513          	li	a0,69
    80000cac:	00049463          	bnez	s1,80000cb4 <_etoa+0x3d0>
    80000cb0:	06500513          	li	a0,101
    80000cb4:	000c8693          	mv	a3,s9
    80000cb8:	000c0593          	mv	a1,s8
    80000cbc:	00160493          	addi	s1,a2,1
    80000cc0:	000b80e7          	jalr	s7
    80000cc4:	41fa571b          	sraiw	a4,s4,0x1f
    80000cc8:	00ea46b3          	xor	a3,s4,a4
    80000ccc:	00500793          	li	a5,5
    80000cd0:	fff4041b          	addiw	s0,s0,-1
    80000cd4:	00f13423          	sd	a5,8(sp)
    80000cd8:	40e6873b          	subw	a4,a3,a4
    80000cdc:	00048613          	mv	a2,s1
    80000ce0:	00813023          	sd	s0,0(sp)
    80000ce4:	00000893          	li	a7,0
    80000ce8:	00a00813          	li	a6,10
    80000cec:	01fa579b          	srliw	a5,s4,0x1f
    80000cf0:	000c8693          	mv	a3,s9
    80000cf4:	000c0593          	mv	a1,s8
    80000cf8:	000b8513          	mv	a0,s7
    80000cfc:	9a1ff0ef          	jal	ra,8000069c <_ntoa_long>
    80000d00:	00050613          	mv	a2,a0
    80000d04:	020d8063          	beqz	s11,80000d24 <_etoa+0x440>
    80000d08:	01013783          	ld	a5,16(sp)
    80000d0c:	020b1b13          	slli	s6,s6,0x20
    80000d10:	020b5b13          	srli	s6,s6,0x20
    80000d14:	40f50433          	sub	s0,a0,a5
    80000d18:	01013783          	ld	a5,16(sp)
    80000d1c:	00878633          	add	a2,a5,s0
    80000d20:	05646a63          	bltu	s0,s6,80000d74 <_etoa+0x490>
    80000d24:	09813083          	ld	ra,152(sp)
    80000d28:	09013403          	ld	s0,144(sp)
    80000d2c:	08813483          	ld	s1,136(sp)
    80000d30:	08013903          	ld	s2,128(sp)
    80000d34:	07813983          	ld	s3,120(sp)
    80000d38:	07013a03          	ld	s4,112(sp)
    80000d3c:	06813a83          	ld	s5,104(sp)
    80000d40:	06013b03          	ld	s6,96(sp)
    80000d44:	05813b83          	ld	s7,88(sp)
    80000d48:	05013c03          	ld	s8,80(sp)
    80000d4c:	04813c83          	ld	s9,72(sp)
    80000d50:	04013d03          	ld	s10,64(sp)
    80000d54:	03813d83          	ld	s11,56(sp)
    80000d58:	00060513          	mv	a0,a2
    80000d5c:	0a010113          	addi	sp,sp,160
    80000d60:	00008067          	ret
    80000d64:	ea090ae3          	beqz	s2,80000c18 <_etoa+0x334>
    80000d68:	ea0d88e3          	beqz	s11,80000c18 <_etoa+0x334>
    80000d6c:	fff9091b          	addiw	s2,s2,-1
    80000d70:	ea9ff06f          	j	80000c18 <_etoa+0x334>
    80000d74:	000c8693          	mv	a3,s9
    80000d78:	000c0593          	mv	a1,s8
    80000d7c:	02000513          	li	a0,32
    80000d80:	000b80e7          	jalr	s7
    80000d84:	00140413          	addi	s0,s0,1
    80000d88:	f91ff06f          	j	80000d18 <_etoa+0x434>

0000000080000d8c <_ftoa>:
    80000d8c:	f5010113          	addi	sp,sp,-176
    80000d90:	09413023          	sd	s4,128(sp)
    80000d94:	07513c23          	sd	s5,120(sp)
    80000d98:	00050a13          	mv	s4,a0
    80000d9c:	00058a93          	mv	s5,a1
    80000da0:	00070513          	mv	a0,a4
    80000da4:	00070593          	mv	a1,a4
    80000da8:	0a813023          	sd	s0,160(sp)
    80000dac:	08913c23          	sd	s1,152(sp)
    80000db0:	09213823          	sd	s2,144(sp)
    80000db4:	09313423          	sd	s3,136(sp)
    80000db8:	07613823          	sd	s6,112(sp)
    80000dbc:	07713423          	sd	s7,104(sp)
    80000dc0:	0a113423          	sd	ra,168(sp)
    80000dc4:	07813023          	sd	s8,96(sp)
    80000dc8:	05913c23          	sd	s9,88(sp)
    80000dcc:	05a13823          	sd	s10,80(sp)
    80000dd0:	05b13423          	sd	s11,72(sp)
    80000dd4:	00060b13          	mv	s6,a2
    80000dd8:	00068b93          	mv	s7,a3
    80000ddc:	00070413          	mv	s0,a4
    80000de0:	00078493          	mv	s1,a5
    80000de4:	00080993          	mv	s3,a6
    80000de8:	00088913          	mv	s2,a7
    80000dec:	50c040ef          	jal	ra,800052f8 <__eqdf2>
    80000df0:	06050263          	beqz	a0,80000e54 <_ftoa+0xc8>
    80000df4:	00090893          	mv	a7,s2
    80000df8:	00098813          	mv	a6,s3
    80000dfc:	00300793          	li	a5,3
    80000e00:	00008717          	auipc	a4,0x8
    80000e04:	1a870713          	addi	a4,a4,424 # 80008fa8 <__malloc_av_+0x908>
    80000e08:	0a013403          	ld	s0,160(sp)
    80000e0c:	0a813083          	ld	ra,168(sp)
    80000e10:	09813483          	ld	s1,152(sp)
    80000e14:	09013903          	ld	s2,144(sp)
    80000e18:	08813983          	ld	s3,136(sp)
    80000e1c:	06013c03          	ld	s8,96(sp)
    80000e20:	05813c83          	ld	s9,88(sp)
    80000e24:	05013d03          	ld	s10,80(sp)
    80000e28:	04813d83          	ld	s11,72(sp)
    80000e2c:	000b8693          	mv	a3,s7
    80000e30:	000b0613          	mv	a2,s6
    80000e34:	06813b83          	ld	s7,104(sp)
    80000e38:	07013b03          	ld	s6,112(sp)
    80000e3c:	000a8593          	mv	a1,s5
    80000e40:	000a0513          	mv	a0,s4
    80000e44:	07813a83          	ld	s5,120(sp)
    80000e48:	08013a03          	ld	s4,128(sp)
    80000e4c:	0b010113          	addi	sp,sp,176
    80000e50:	f20ff06f          	j	80000570 <_out_rev>
    80000e54:	00007597          	auipc	a1,0x7
    80000e58:	04c5b583          	ld	a1,76(a1) # 80007ea0 <__errno+0x18>
    80000e5c:	00040513          	mv	a0,s0
    80000e60:	5d4040ef          	jal	ra,80005434 <__ledf2>
    80000e64:	00055e63          	bgez	a0,80000e80 <_ftoa+0xf4>
    80000e68:	00090893          	mv	a7,s2
    80000e6c:	00098813          	mv	a6,s3
    80000e70:	00400793          	li	a5,4
    80000e74:	00008717          	auipc	a4,0x8
    80000e78:	13c70713          	addi	a4,a4,316 # 80008fb0 <__malloc_av_+0x910>
    80000e7c:	f8dff06f          	j	80000e08 <_ftoa+0x7c>
    80000e80:	00007597          	auipc	a1,0x7
    80000e84:	0185b583          	ld	a1,24(a1) # 80007e98 <__errno+0x10>
    80000e88:	00040513          	mv	a0,s0
    80000e8c:	4f0040ef          	jal	ra,8000537c <__gedf2>
    80000e90:	02a05a63          	blez	a0,80000ec4 <_ftoa+0x138>
    80000e94:	00497793          	andi	a5,s2,4
    80000e98:	00078e63          	beqz	a5,80000eb4 <_ftoa+0x128>
    80000e9c:	00008717          	auipc	a4,0x8
    80000ea0:	0fc70713          	addi	a4,a4,252 # 80008f98 <__malloc_av_+0x8f8>
    80000ea4:	00400793          	li	a5,4
    80000ea8:	00090893          	mv	a7,s2
    80000eac:	00098813          	mv	a6,s3
    80000eb0:	f59ff06f          	j	80000e08 <_ftoa+0x7c>
    80000eb4:	00008717          	auipc	a4,0x8
    80000eb8:	0ec70713          	addi	a4,a4,236 # 80008fa0 <__malloc_av_+0x900>
    80000ebc:	00300793          	li	a5,3
    80000ec0:	fe9ff06f          	j	80000ea8 <_ftoa+0x11c>
    80000ec4:	00007597          	auipc	a1,0x7
    80000ec8:	05c5b583          	ld	a1,92(a1) # 80007f20 <__errno+0x98>
    80000ecc:	00040513          	mv	a0,s0
    80000ed0:	4ac040ef          	jal	ra,8000537c <__gedf2>
    80000ed4:	00a04c63          	bgtz	a0,80000eec <_ftoa+0x160>
    80000ed8:	00007597          	auipc	a1,0x7
    80000edc:	0505b583          	ld	a1,80(a1) # 80007f28 <__errno+0xa0>
    80000ee0:	00040513          	mv	a0,s0
    80000ee4:	550040ef          	jal	ra,80005434 <__ledf2>
    80000ee8:	06055063          	bgez	a0,80000f48 <_ftoa+0x1bc>
    80000eec:	00040713          	mv	a4,s0
    80000ef0:	0a013403          	ld	s0,160(sp)
    80000ef4:	0a813083          	ld	ra,168(sp)
    80000ef8:	06013c03          	ld	s8,96(sp)
    80000efc:	05813c83          	ld	s9,88(sp)
    80000f00:	05013d03          	ld	s10,80(sp)
    80000f04:	04813d83          	ld	s11,72(sp)
    80000f08:	00090893          	mv	a7,s2
    80000f0c:	00098813          	mv	a6,s3
    80000f10:	09013903          	ld	s2,144(sp)
    80000f14:	08813983          	ld	s3,136(sp)
    80000f18:	00048793          	mv	a5,s1
    80000f1c:	000b8693          	mv	a3,s7
    80000f20:	09813483          	ld	s1,152(sp)
    80000f24:	06813b83          	ld	s7,104(sp)
    80000f28:	000b0613          	mv	a2,s6
    80000f2c:	000a8593          	mv	a1,s5
    80000f30:	07013b03          	ld	s6,112(sp)
    80000f34:	07813a83          	ld	s5,120(sp)
    80000f38:	000a0513          	mv	a0,s4
    80000f3c:	08013a03          	ld	s4,128(sp)
    80000f40:	0b010113          	addi	sp,sp,176
    80000f44:	9a1ff06f          	j	800008e4 <_etoa>
    80000f48:	00000593          	li	a1,0
    80000f4c:	00040513          	mv	a0,s0
    80000f50:	4e4040ef          	jal	ra,80005434 <__ledf2>
    80000f54:	12055a63          	bgez	a0,80001088 <_ftoa+0x2fc>
    80000f58:	00040593          	mv	a1,s0
    80000f5c:	00000513          	li	a0,0
    80000f60:	101040ef          	jal	ra,80005860 <__subdf3>
    80000f64:	00100793          	li	a5,1
    80000f68:	00050413          	mv	s0,a0
    80000f6c:	00f13023          	sd	a5,0(sp)
    80000f70:	40097793          	andi	a5,s2,1024
    80000f74:	10078e63          	beqz	a5,80001090 <_ftoa+0x304>
    80000f78:	00000c93          	li	s9,0
    80000f7c:	00900713          	li	a4,9
    80000f80:	03000693          	li	a3,48
    80000f84:	02000613          	li	a2,32
    80000f88:	00977e63          	bgeu	a4,s1,80000fa4 <_ftoa+0x218>
    80000f8c:	020c8793          	addi	a5,s9,32
    80000f90:	002785b3          	add	a1,a5,sp
    80000f94:	00d58023          	sb	a3,0(a1)
    80000f98:	001c8c93          	addi	s9,s9,1
    80000f9c:	fff4849b          	addiw	s1,s1,-1
    80000fa0:	fecc94e3          	bne	s9,a2,80000f88 <_ftoa+0x1fc>
    80000fa4:	00040513          	mv	a0,s0
    80000fa8:	549040ef          	jal	ra,80005cf0 <__fixdfsi>
    80000fac:	02049713          	slli	a4,s1,0x20
    80000fb0:	01d75613          	srli	a2,a4,0x1d
    80000fb4:	00008717          	auipc	a4,0x8
    80000fb8:	04470713          	addi	a4,a4,68 # 80008ff8 <pow10.0>
    80000fbc:	00c70733          	add	a4,a4,a2
    80000fc0:	00073783          	ld	a5,0(a4)
    80000fc4:	00050d9b          	sext.w	s11,a0
    80000fc8:	00a12a23          	sw	a0,20(sp)
    80000fcc:	000d8513          	mv	a0,s11
    80000fd0:	00f13423          	sd	a5,8(sp)
    80000fd4:	581040ef          	jal	ra,80005d54 <__floatsidf>
    80000fd8:	00050593          	mv	a1,a0
    80000fdc:	00040513          	mv	a0,s0
    80000fe0:	081040ef          	jal	ra,80005860 <__subdf3>
    80000fe4:	00813583          	ld	a1,8(sp)
    80000fe8:	504040ef          	jal	ra,800054ec <__muldf3>
    80000fec:	00050c13          	mv	s8,a0
    80000ff0:	5e5040ef          	jal	ra,80005dd4 <__fixunsdfdi>
    80000ff4:	00050d13          	mv	s10,a0
    80000ff8:	649040ef          	jal	ra,80005e40 <__floatundidf>
    80000ffc:	00050593          	mv	a1,a0
    80001000:	000c0513          	mv	a0,s8
    80001004:	05d040ef          	jal	ra,80005860 <__subdf3>
    80001008:	00007c17          	auipc	s8,0x7
    8000100c:	ec8c3c03          	ld	s8,-312(s8) # 80007ed0 <__errno+0x48>
    80001010:	000c0593          	mv	a1,s8
    80001014:	00a13c23          	sd	a0,24(sp)
    80001018:	364040ef          	jal	ra,8000537c <__gedf2>
    8000101c:	01813603          	ld	a2,24(sp)
    80001020:	06a05c63          	blez	a0,80001098 <_ftoa+0x30c>
    80001024:	001d0d13          	addi	s10,s10,1
    80001028:	000d0513          	mv	a0,s10
    8000102c:	615040ef          	jal	ra,80005e40 <__floatundidf>
    80001030:	00050593          	mv	a1,a0
    80001034:	00813503          	ld	a0,8(sp)
    80001038:	3fc040ef          	jal	ra,80005434 <__ledf2>
    8000103c:	00a04663          	bgtz	a0,80001048 <_ftoa+0x2bc>
    80001040:	001d8d9b          	addiw	s11,s11,1
    80001044:	00000d13          	li	s10,0
    80001048:	06048a63          	beqz	s1,800010bc <_ftoa+0x330>
    8000104c:	02000513          	li	a0,32
    80001050:	00a00593          	li	a1,10
    80001054:	00900813          	li	a6,9
    80001058:	0aac8263          	beq	s9,a0,800010fc <_ftoa+0x370>
    8000105c:	02bd7633          	remu	a2,s10,a1
    80001060:	001c8c93          	addi	s9,s9,1
    80001064:	020c8793          	addi	a5,s9,32
    80001068:	002788b3          	add	a7,a5,sp
    8000106c:	fff4849b          	addiw	s1,s1,-1
    80001070:	0306061b          	addiw	a2,a2,48
    80001074:	fec88fa3          	sb	a2,-1(a7)
    80001078:	02bd5633          	divu	a2,s10,a1
    8000107c:	13a87063          	bgeu	a6,s10,8000119c <_ftoa+0x410>
    80001080:	00060d13          	mv	s10,a2
    80001084:	fd5ff06f          	j	80001058 <_ftoa+0x2cc>
    80001088:	00013023          	sd	zero,0(sp)
    8000108c:	ee5ff06f          	j	80000f70 <_ftoa+0x1e4>
    80001090:	00600493          	li	s1,6
    80001094:	ee5ff06f          	j	80000f78 <_ftoa+0x1ec>
    80001098:	000c0593          	mv	a1,s8
    8000109c:	00060513          	mv	a0,a2
    800010a0:	394040ef          	jal	ra,80005434 <__ledf2>
    800010a4:	fa0542e3          	bltz	a0,80001048 <_ftoa+0x2bc>
    800010a8:	000d0663          	beqz	s10,800010b4 <_ftoa+0x328>
    800010ac:	001d7613          	andi	a2,s10,1
    800010b0:	f8060ce3          	beqz	a2,80001048 <_ftoa+0x2bc>
    800010b4:	001d0d13          	addi	s10,s10,1
    800010b8:	f91ff06f          	j	80001048 <_ftoa+0x2bc>
    800010bc:	000d8513          	mv	a0,s11
    800010c0:	495040ef          	jal	ra,80005d54 <__floatsidf>
    800010c4:	00050593          	mv	a1,a0
    800010c8:	00040513          	mv	a0,s0
    800010cc:	794040ef          	jal	ra,80005860 <__subdf3>
    800010d0:	000c0593          	mv	a1,s8
    800010d4:	00050413          	mv	s0,a0
    800010d8:	35c040ef          	jal	ra,80005434 <__ledf2>
    800010dc:	00055a63          	bgez	a0,800010f0 <_ftoa+0x364>
    800010e0:	000c0593          	mv	a1,s8
    800010e4:	00040513          	mv	a0,s0
    800010e8:	294040ef          	jal	ra,8000537c <__gedf2>
    800010ec:	00a05863          	blez	a0,800010fc <_ftoa+0x370>
    800010f0:	001df713          	andi	a4,s11,1
    800010f4:	00070463          	beqz	a4,800010fc <_ftoa+0x370>
    800010f8:	001d8d9b          	addiw	s11,s11,1
    800010fc:	02000593          	li	a1,32
    80001100:	00a00613          	li	a2,10
    80001104:	02bc8263          	beq	s9,a1,80001128 <_ftoa+0x39c>
    80001108:	02cde73b          	remw	a4,s11,a2
    8000110c:	001c8c93          	addi	s9,s9,1
    80001110:	020c8793          	addi	a5,s9,32
    80001114:	00278533          	add	a0,a5,sp
    80001118:	02cdcdbb          	divw	s11,s11,a2
    8000111c:	0307071b          	addiw	a4,a4,48
    80001120:	fee50fa3          	sb	a4,-1(a0)
    80001124:	fe0d90e3          	bnez	s11,80001104 <_ftoa+0x378>
    80001128:	00397713          	andi	a4,s2,3
    8000112c:	00100693          	li	a3,1
    80001130:	10d71063          	bne	a4,a3,80001230 <_ftoa+0x4a4>
    80001134:	0e098e63          	beqz	s3,80001230 <_ftoa+0x4a4>
    80001138:	00013783          	ld	a5,0(sp)
    8000113c:	00079663          	bnez	a5,80001148 <_ftoa+0x3bc>
    80001140:	00c97713          	andi	a4,s2,12
    80001144:	00070463          	beqz	a4,8000114c <_ftoa+0x3c0>
    80001148:	fff9899b          	addiw	s3,s3,-1
    8000114c:	02099693          	slli	a3,s3,0x20
    80001150:	0206d693          	srli	a3,a3,0x20
    80001154:	02000713          	li	a4,32
    80001158:	03000613          	li	a2,48
    8000115c:	06c0006f          	j	800011c8 <_ftoa+0x43c>
    80001160:	02070713          	addi	a4,a4,32
    80001164:	00270733          	add	a4,a4,sp
    80001168:	00a70023          	sb	a0,0(a4)
    8000116c:	00078713          	mv	a4,a5
    80001170:	04b70063          	beq	a4,a1,800011b0 <_ftoa+0x424>
    80001174:	0007061b          	sext.w	a2,a4
    80001178:	00170793          	addi	a5,a4,1
    8000117c:	fec492e3          	bne	s1,a2,80001160 <_ftoa+0x3d4>
    80001180:	02070713          	addi	a4,a4,32
    80001184:	02010693          	addi	a3,sp,32
    80001188:	00d70733          	add	a4,a4,a3
    8000118c:	02e00613          	li	a2,46
    80001190:	fec70023          	sb	a2,-32(a4)
    80001194:	00078c93          	mv	s9,a5
    80001198:	f65ff06f          	j	800010fc <_ftoa+0x370>
    8000119c:	000c8713          	mv	a4,s9
    800011a0:	02000593          	li	a1,32
    800011a4:	009c84bb          	addw	s1,s9,s1
    800011a8:	03000513          	li	a0,48
    800011ac:	fc5ff06f          	j	80001170 <_ftoa+0x3e4>
    800011b0:	02000c93          	li	s9,32
    800011b4:	f49ff06f          	j	800010fc <_ftoa+0x370>
    800011b8:	020c8793          	addi	a5,s9,32
    800011bc:	002785b3          	add	a1,a5,sp
    800011c0:	00c58023          	sb	a2,0(a1)
    800011c4:	001c8c93          	addi	s9,s9,1
    800011c8:	06dcf463          	bgeu	s9,a3,80001230 <_ftoa+0x4a4>
    800011cc:	feec96e3          	bne	s9,a4,800011b8 <_ftoa+0x42c>
    800011d0:	00090893          	mv	a7,s2
    800011d4:	00098813          	mv	a6,s3
    800011d8:	000c8793          	mv	a5,s9
    800011dc:	02010713          	addi	a4,sp,32
    800011e0:	000b8693          	mv	a3,s7
    800011e4:	000b0613          	mv	a2,s6
    800011e8:	000a8593          	mv	a1,s5
    800011ec:	000a0513          	mv	a0,s4
    800011f0:	b80ff0ef          	jal	ra,80000570 <_out_rev>
    800011f4:	0a813083          	ld	ra,168(sp)
    800011f8:	0a013403          	ld	s0,160(sp)
    800011fc:	09813483          	ld	s1,152(sp)
    80001200:	09013903          	ld	s2,144(sp)
    80001204:	08813983          	ld	s3,136(sp)
    80001208:	08013a03          	ld	s4,128(sp)
    8000120c:	07813a83          	ld	s5,120(sp)
    80001210:	07013b03          	ld	s6,112(sp)
    80001214:	06813b83          	ld	s7,104(sp)
    80001218:	06013c03          	ld	s8,96(sp)
    8000121c:	05813c83          	ld	s9,88(sp)
    80001220:	05013d03          	ld	s10,80(sp)
    80001224:	04813d83          	ld	s11,72(sp)
    80001228:	0b010113          	addi	sp,sp,176
    8000122c:	00008067          	ret
    80001230:	02000713          	li	a4,32
    80001234:	f8ec8ee3          	beq	s9,a4,800011d0 <_ftoa+0x444>
    80001238:	00013783          	ld	a5,0(sp)
    8000123c:	02078063          	beqz	a5,8000125c <_ftoa+0x4d0>
    80001240:	020c8793          	addi	a5,s9,32
    80001244:	02010713          	addi	a4,sp,32
    80001248:	00e78733          	add	a4,a5,a4
    8000124c:	02d00693          	li	a3,45
    80001250:	fed70023          	sb	a3,-32(a4)
    80001254:	001c8c93          	addi	s9,s9,1
    80001258:	f79ff06f          	j	800011d0 <_ftoa+0x444>
    8000125c:	00497693          	andi	a3,s2,4
    80001260:	00068c63          	beqz	a3,80001278 <_ftoa+0x4ec>
    80001264:	020c8793          	addi	a5,s9,32
    80001268:	02010713          	addi	a4,sp,32
    8000126c:	00e78733          	add	a4,a5,a4
    80001270:	02b00693          	li	a3,43
    80001274:	fddff06f          	j	80001250 <_ftoa+0x4c4>
    80001278:	00897693          	andi	a3,s2,8
    8000127c:	f4068ae3          	beqz	a3,800011d0 <_ftoa+0x444>
    80001280:	020c8793          	addi	a5,s9,32
    80001284:	02010693          	addi	a3,sp,32
    80001288:	00d786b3          	add	a3,a5,a3
    8000128c:	fee68023          	sb	a4,-32(a3)
    80001290:	fc5ff06f          	j	80001254 <_ftoa+0x4c8>

0000000080001294 <_out_char>:
    80001294:	00050463          	beqz	a0,8000129c <_out_char+0x8>
    80001298:	de5fe06f          	j	8000007c <_putchar>
    8000129c:	00008067          	ret

00000000800012a0 <_out_fct>:
    800012a0:	00050863          	beqz	a0,800012b0 <_out_fct+0x10>
    800012a4:	0005b783          	ld	a5,0(a1)
    800012a8:	0085b583          	ld	a1,8(a1)
    800012ac:	00078067          	jr	a5
    800012b0:	00008067          	ret

00000000800012b4 <_vsnprintf>:
    800012b4:	f5010113          	addi	sp,sp,-176
    800012b8:	09213823          	sd	s2,144(sp)
    800012bc:	09313423          	sd	s3,136(sp)
    800012c0:	09413023          	sd	s4,128(sp)
    800012c4:	07813023          	sd	s8,96(sp)
    800012c8:	05913c23          	sd	s9,88(sp)
    800012cc:	0a113423          	sd	ra,168(sp)
    800012d0:	0a813023          	sd	s0,160(sp)
    800012d4:	08913c23          	sd	s1,152(sp)
    800012d8:	07513c23          	sd	s5,120(sp)
    800012dc:	07613823          	sd	s6,112(sp)
    800012e0:	07713423          	sd	s7,104(sp)
    800012e4:	05a13823          	sd	s10,80(sp)
    800012e8:	05b13423          	sd	s11,72(sp)
    800012ec:	00058c13          	mv	s8,a1
    800012f0:	00060993          	mv	s3,a2
    800012f4:	00068913          	mv	s2,a3
    800012f8:	00070c93          	mv	s9,a4
    800012fc:	fffffa17          	auipc	s4,0xfffff
    80001300:	270a0a13          	addi	s4,s4,624 # 8000056c <_out_null>
    80001304:	00058463          	beqz	a1,8000130c <_vsnprintf+0x58>
    80001308:	00050a13          	mv	s4,a0
    8000130c:	00010ab7          	lui	s5,0x10
    80001310:	fffa8793          	addi	a5,s5,-1 # ffff <_start-0x7fff0001>
    80001314:	00009b37          	lui	s6,0x9
    80001318:	00f13c23          	sd	a5,24(sp)
    8000131c:	00001bb7          	lui	s7,0x1
    80001320:	041b0793          	addi	a5,s6,65 # 9041 <_start-0x7fff6fbf>
    80001324:	00000493          	li	s1,0
    80001328:	02f13023          	sd	a5,32(sp)
    8000132c:	800b8b93          	addi	s7,s7,-2048 # 800 <_start-0x7ffff800>
    80001330:	00008b17          	auipc	s6,0x8
    80001334:	c88b0b13          	addi	s6,s6,-888 # 80008fb8 <__malloc_av_+0x918>
    80001338:	3f00006f          	j	80001728 <_vsnprintf+0x474>
    8000133c:	02500793          	li	a5,37
    80001340:	00190913          	addi	s2,s2,1
    80001344:	00f50c63          	beq	a0,a5,8000135c <_vsnprintf+0xa8>
    80001348:	00148413          	addi	s0,s1,1
    8000134c:	00098693          	mv	a3,s3
    80001350:	00048613          	mv	a2,s1
    80001354:	000c0593          	mv	a1,s8
    80001358:	1c80006f          	j	80001520 <_vsnprintf+0x26c>
    8000135c:	00000893          	li	a7,0
    80001360:	02b00693          	li	a3,43
    80001364:	02d00513          	li	a0,45
    80001368:	03000813          	li	a6,48
    8000136c:	02000313          	li	t1,32
    80001370:	02300e13          	li	t3,35
    80001374:	0140006f          	j	80001388 <_vsnprintf+0xd4>
    80001378:	04a78463          	beq	a5,a0,800013c0 <_vsnprintf+0x10c>
    8000137c:	03079263          	bne	a5,a6,800013a0 <_vsnprintf+0xec>
    80001380:	0018e893          	ori	a7,a7,1
    80001384:	00060913          	mv	s2,a2
    80001388:	00094783          	lbu	a5,0(s2)
    8000138c:	00190613          	addi	a2,s2,1
    80001390:	02d78c63          	beq	a5,a3,800013c8 <_vsnprintf+0x114>
    80001394:	fef6e2e3          	bltu	a3,a5,80001378 <_vsnprintf+0xc4>
    80001398:	02678c63          	beq	a5,t1,800013d0 <_vsnprintf+0x11c>
    8000139c:	03c78e63          	beq	a5,t3,800013d8 <_vsnprintf+0x124>
    800013a0:	fd07869b          	addiw	a3,a5,-48
    800013a4:	0ff6f693          	zext.b	a3,a3
    800013a8:	00900513          	li	a0,9
    800013ac:	08d56863          	bltu	a0,a3,8000143c <_vsnprintf+0x188>
    800013b0:	00000a93          	li	s5,0
    800013b4:	00900613          	li	a2,9
    800013b8:	00a00813          	li	a6,10
    800013bc:	0340006f          	j	800013f0 <_vsnprintf+0x13c>
    800013c0:	0028e893          	ori	a7,a7,2
    800013c4:	fc1ff06f          	j	80001384 <_vsnprintf+0xd0>
    800013c8:	0048e893          	ori	a7,a7,4
    800013cc:	fb9ff06f          	j	80001384 <_vsnprintf+0xd0>
    800013d0:	0088e893          	ori	a7,a7,8
    800013d4:	fb1ff06f          	j	80001384 <_vsnprintf+0xd0>
    800013d8:	0108e893          	ori	a7,a7,16
    800013dc:	fa9ff06f          	j	80001384 <_vsnprintf+0xd0>
    800013e0:	0358033b          	mulw	t1,a6,s5
    800013e4:	00050913          	mv	s2,a0
    800013e8:	fd03031b          	addiw	t1,t1,-48
    800013ec:	00d30abb          	addw	s5,t1,a3
    800013f0:	00094683          	lbu	a3,0(s2)
    800013f4:	00190513          	addi	a0,s2,1
    800013f8:	fd06879b          	addiw	a5,a3,-48
    800013fc:	0ff7f793          	zext.b	a5,a5
    80001400:	fef670e3          	bgeu	a2,a5,800013e0 <_vsnprintf+0x12c>
    80001404:	00094603          	lbu	a2,0(s2)
    80001408:	02e00693          	li	a3,46
    8000140c:	00000793          	li	a5,0
    80001410:	0ad61663          	bne	a2,a3,800014bc <_vsnprintf+0x208>
    80001414:	00194503          	lbu	a0,1(s2)
    80001418:	00900813          	li	a6,9
    8000141c:	00190693          	addi	a3,s2,1
    80001420:	fd05061b          	addiw	a2,a0,-48
    80001424:	0ff67613          	zext.b	a2,a2
    80001428:	4008e893          	ori	a7,a7,1024
    8000142c:	06c86663          	bltu	a6,a2,80001498 <_vsnprintf+0x1e4>
    80001430:	00900813          	li	a6,9
    80001434:	00a00e93          	li	t4,10
    80001438:	0440006f          	j	8000147c <_vsnprintf+0x1c8>
    8000143c:	02a00693          	li	a3,42
    80001440:	00000a93          	li	s5,0
    80001444:	fcd790e3          	bne	a5,a3,80001404 <_vsnprintf+0x150>
    80001448:	000ca783          	lw	a5,0(s9)
    8000144c:	008c8693          	addi	a3,s9,8
    80001450:	00078a9b          	sext.w	s5,a5
    80001454:	0007d663          	bgez	a5,80001460 <_vsnprintf+0x1ac>
    80001458:	0028e893          	ori	a7,a7,2
    8000145c:	40f00abb          	negw	s5,a5
    80001460:	00068c93          	mv	s9,a3
    80001464:	00060913          	mv	s2,a2
    80001468:	f9dff06f          	j	80001404 <_vsnprintf+0x150>
    8000146c:	02fe87bb          	mulw	a5,t4,a5
    80001470:	000e0693          	mv	a3,t3
    80001474:	fd07879b          	addiw	a5,a5,-48
    80001478:	00a787bb          	addw	a5,a5,a0
    8000147c:	0006c503          	lbu	a0,0(a3)
    80001480:	00168e13          	addi	t3,a3,1
    80001484:	fd05061b          	addiw	a2,a0,-48
    80001488:	0ff67613          	zext.b	a2,a2
    8000148c:	fec870e3          	bgeu	a6,a2,8000146c <_vsnprintf+0x1b8>
    80001490:	00068913          	mv	s2,a3
    80001494:	0280006f          	j	800014bc <_vsnprintf+0x208>
    80001498:	02a00613          	li	a2,42
    8000149c:	fec51ae3          	bne	a0,a2,80001490 <_vsnprintf+0x1dc>
    800014a0:	000ca703          	lw	a4,0(s9)
    800014a4:	008c8693          	addi	a3,s9,8
    800014a8:	0007079b          	sext.w	a5,a4
    800014ac:	00075463          	bgez	a4,800014b4 <_vsnprintf+0x200>
    800014b0:	00000793          	li	a5,0
    800014b4:	00290913          	addi	s2,s2,2
    800014b8:	00068c93          	mv	s9,a3
    800014bc:	00094683          	lbu	a3,0(s2)
    800014c0:	06c00513          	li	a0,108
    800014c4:	00190613          	addi	a2,s2,1
    800014c8:	06a68a63          	beq	a3,a0,8000153c <_vsnprintf+0x288>
    800014cc:	06d56063          	bltu	a0,a3,8000152c <_vsnprintf+0x278>
    800014d0:	06800513          	li	a0,104
    800014d4:	08a68263          	beq	a3,a0,80001558 <_vsnprintf+0x2a4>
    800014d8:	06a00513          	li	a0,106
    800014dc:	06a68463          	beq	a3,a0,80001544 <_vsnprintf+0x290>
    800014e0:	00094503          	lbu	a0,0(s2)
    800014e4:	06700693          	li	a3,103
    800014e8:	00190913          	addi	s2,s2,1
    800014ec:	10a6e063          	bltu	a3,a0,800015ec <_vsnprintf+0x338>
    800014f0:	05700693          	li	a3,87
    800014f4:	08a6e063          	bltu	a3,a0,80001574 <_vsnprintf+0x2c0>
    800014f8:	04500693          	li	a3,69
    800014fc:	0ad50663          	beq	a0,a3,800015a8 <_vsnprintf+0x2f4>
    80001500:	08a6ec63          	bltu	a3,a0,80001598 <_vsnprintf+0x2e4>
    80001504:	02500793          	li	a5,37
    80001508:	e4f510e3          	bne	a0,a5,80001348 <_vsnprintf+0x94>
    8000150c:	00148413          	addi	s0,s1,1
    80001510:	00098693          	mv	a3,s3
    80001514:	00048613          	mv	a2,s1
    80001518:	000c0593          	mv	a1,s8
    8000151c:	02500513          	li	a0,37
    80001520:	000a00e7          	jalr	s4
    80001524:	00040493          	mv	s1,s0
    80001528:	2000006f          	j	80001728 <_vsnprintf+0x474>
    8000152c:	07400513          	li	a0,116
    80001530:	00a68a63          	beq	a3,a0,80001544 <_vsnprintf+0x290>
    80001534:	07a00513          	li	a0,122
    80001538:	fa5ff06f          	j	800014dc <_vsnprintf+0x228>
    8000153c:	00194503          	lbu	a0,1(s2)
    80001540:	00d50663          	beq	a0,a3,8000154c <_vsnprintf+0x298>
    80001544:	1008e893          	ori	a7,a7,256
    80001548:	01c0006f          	j	80001564 <_vsnprintf+0x2b0>
    8000154c:	3008e893          	ori	a7,a7,768
    80001550:	00290913          	addi	s2,s2,2
    80001554:	f8dff06f          	j	800014e0 <_vsnprintf+0x22c>
    80001558:	00194503          	lbu	a0,1(s2)
    8000155c:	00d50863          	beq	a0,a3,8000156c <_vsnprintf+0x2b8>
    80001560:	0808e893          	ori	a7,a7,128
    80001564:	00060913          	mv	s2,a2
    80001568:	f79ff06f          	j	800014e0 <_vsnprintf+0x22c>
    8000156c:	0c08e893          	ori	a7,a7,192
    80001570:	fe1ff06f          	j	80001550 <_vsnprintf+0x29c>
    80001574:	fa85069b          	addiw	a3,a0,-88
    80001578:	0ff6f693          	zext.b	a3,a3
    8000157c:	00f00613          	li	a2,15
    80001580:	dcd664e3          	bltu	a2,a3,80001348 <_vsnprintf+0x94>
    80001584:	00269693          	slli	a3,a3,0x2
    80001588:	016686b3          	add	a3,a3,s6
    8000158c:	0006a683          	lw	a3,0(a3)
    80001590:	016686b3          	add	a3,a3,s6
    80001594:	00068067          	jr	a3
    80001598:	04600693          	li	a3,70
    8000159c:	2ed50a63          	beq	a0,a3,80001890 <_vsnprintf+0x5dc>
    800015a0:	04700693          	li	a3,71
    800015a4:	dad512e3          	bne	a0,a3,80001348 <_vsnprintf+0x94>
    800015a8:	0df57693          	andi	a3,a0,223
    800015ac:	04700613          	li	a2,71
    800015b0:	00c69663          	bne	a3,a2,800015bc <_vsnprintf+0x308>
    800015b4:	0178e8b3          	or	a7,a7,s7
    800015b8:	0fd57513          	andi	a0,a0,253
    800015bc:	04500693          	li	a3,69
    800015c0:	00d51463          	bne	a0,a3,800015c8 <_vsnprintf+0x314>
    800015c4:	0208e893          	ori	a7,a7,32
    800015c8:	000cb703          	ld	a4,0(s9)
    800015cc:	000a8813          	mv	a6,s5
    800015d0:	00098693          	mv	a3,s3
    800015d4:	00048613          	mv	a2,s1
    800015d8:	000c0593          	mv	a1,s8
    800015dc:	000a0513          	mv	a0,s4
    800015e0:	008c8413          	addi	s0,s9,8
    800015e4:	b00ff0ef          	jal	ra,800008e4 <_etoa>
    800015e8:	1380006f          	j	80001720 <_vsnprintf+0x46c>
    800015ec:	f975069b          	addiw	a3,a0,-105
    800015f0:	0ff6f693          	zext.b	a3,a3
    800015f4:	00f00613          	li	a2,15
    800015f8:	d4d668e3          	bltu	a2,a3,80001348 <_vsnprintf+0x94>
    800015fc:	02013703          	ld	a4,32(sp)
    80001600:	00100613          	li	a2,1
    80001604:	00d61633          	sll	a2,a2,a3
    80001608:	00e67633          	and	a2,a2,a4
    8000160c:	04061c63          	bnez	a2,80001664 <_vsnprintf+0x3b0>
    80001610:	00a00613          	li	a2,10
    80001614:	36c68863          	beq	a3,a2,80001984 <_vsnprintf+0x6d0>
    80001618:	00700613          	li	a2,7
    8000161c:	d2c696e3          	bne	a3,a2,80001348 <_vsnprintf+0x94>
    80001620:	000cb703          	ld	a4,0(s9)
    80001624:	0218e413          	ori	s0,a7,33
    80001628:	01000693          	li	a3,16
    8000162c:	00d13023          	sd	a3,0(sp)
    80001630:	00078893          	mv	a7,a5
    80001634:	00048613          	mv	a2,s1
    80001638:	00813423          	sd	s0,8(sp)
    8000163c:	01000813          	li	a6,16
    80001640:	00000793          	li	a5,0
    80001644:	00098693          	mv	a3,s3
    80001648:	000c0593          	mv	a1,s8
    8000164c:	000a0513          	mv	a0,s4
    80001650:	008c8d13          	addi	s10,s9,8
    80001654:	848ff0ef          	jal	ra,8000069c <_ntoa_long>
    80001658:	00050493          	mv	s1,a0
    8000165c:	000d0c93          	mv	s9,s10
    80001660:	0c80006f          	j	80001728 <_vsnprintf+0x474>
    80001664:	07800693          	li	a3,120
    80001668:	01000813          	li	a6,16
    8000166c:	02d50c63          	beq	a0,a3,800016a4 <_vsnprintf+0x3f0>
    80001670:	06200693          	li	a3,98
    80001674:	02d50c63          	beq	a0,a3,800016ac <_vsnprintf+0x3f8>
    80001678:	06f00693          	li	a3,111
    8000167c:	48d50063          	beq	a0,a3,80001afc <_vsnprintf+0x848>
    80001680:	05800693          	li	a3,88
    80001684:	00d50c63          	beq	a0,a3,8000169c <_vsnprintf+0x3e8>
    80001688:	fef8f893          	andi	a7,a7,-17
    8000168c:	00a00813          	li	a6,10
    80001690:	06900693          	li	a3,105
    80001694:	02d50263          	beq	a0,a3,800016b8 <_vsnprintf+0x404>
    80001698:	0180006f          	j	800016b0 <_vsnprintf+0x3fc>
    8000169c:	0208e893          	ori	a7,a7,32
    800016a0:	01000813          	li	a6,16
    800016a4:	ff38f893          	andi	a7,a7,-13
    800016a8:	0100006f          	j	800016b8 <_vsnprintf+0x404>
    800016ac:	00200813          	li	a6,2
    800016b0:	06400693          	li	a3,100
    800016b4:	fed518e3          	bne	a0,a3,800016a4 <_vsnprintf+0x3f0>
    800016b8:	4008f693          	andi	a3,a7,1024
    800016bc:	00068463          	beqz	a3,800016c4 <_vsnprintf+0x410>
    800016c0:	ffe8f893          	andi	a7,a7,-2
    800016c4:	02081813          	slli	a6,a6,0x20
    800016c8:	06900e13          	li	t3,105
    800016cc:	00088693          	mv	a3,a7
    800016d0:	2008f613          	andi	a2,a7,512
    800016d4:	02085813          	srli	a6,a6,0x20
    800016d8:	008c8413          	addi	s0,s9,8
    800016dc:	01c50663          	beq	a0,t3,800016e8 <_vsnprintf+0x434>
    800016e0:	06400e13          	li	t3,100
    800016e4:	13c51863          	bne	a0,t3,80001814 <_vsnprintf+0x560>
    800016e8:	0a060263          	beqz	a2,8000178c <_vsnprintf+0x4d8>
    800016ec:	000cb683          	ld	a3,0(s9)
    800016f0:	01113423          	sd	a7,8(sp)
    800016f4:	01513023          	sd	s5,0(sp)
    800016f8:	43f6d713          	srai	a4,a3,0x3f
    800016fc:	00d74633          	xor	a2,a4,a3
    80001700:	00078893          	mv	a7,a5
    80001704:	40e60733          	sub	a4,a2,a4
    80001708:	03f6d793          	srli	a5,a3,0x3f
    8000170c:	00098693          	mv	a3,s3
    80001710:	00048613          	mv	a2,s1
    80001714:	000c0593          	mv	a1,s8
    80001718:	000a0513          	mv	a0,s4
    8000171c:	f81fe0ef          	jal	ra,8000069c <_ntoa_long>
    80001720:	00050493          	mv	s1,a0
    80001724:	00040c93          	mv	s9,s0
    80001728:	00094503          	lbu	a0,0(s2)
    8000172c:	c00518e3          	bnez	a0,8000133c <_vsnprintf+0x88>
    80001730:	00048613          	mv	a2,s1
    80001734:	0134e463          	bltu	s1,s3,8000173c <_vsnprintf+0x488>
    80001738:	fff98613          	addi	a2,s3,-1
    8000173c:	00098693          	mv	a3,s3
    80001740:	000c0593          	mv	a1,s8
    80001744:	00000513          	li	a0,0
    80001748:	000a00e7          	jalr	s4
    8000174c:	0a813083          	ld	ra,168(sp)
    80001750:	0a013403          	ld	s0,160(sp)
    80001754:	09013903          	ld	s2,144(sp)
    80001758:	08813983          	ld	s3,136(sp)
    8000175c:	08013a03          	ld	s4,128(sp)
    80001760:	07813a83          	ld	s5,120(sp)
    80001764:	07013b03          	ld	s6,112(sp)
    80001768:	06813b83          	ld	s7,104(sp)
    8000176c:	06013c03          	ld	s8,96(sp)
    80001770:	05813c83          	ld	s9,88(sp)
    80001774:	05013d03          	ld	s10,80(sp)
    80001778:	04813d83          	ld	s11,72(sp)
    8000177c:	0004851b          	sext.w	a0,s1
    80001780:	09813483          	ld	s1,152(sp)
    80001784:	0b010113          	addi	sp,sp,176
    80001788:	00008067          	ret
    8000178c:	1008f693          	andi	a3,a7,256
    80001790:	00088613          	mv	a2,a7
    80001794:	02068e63          	beqz	a3,800017d0 <_vsnprintf+0x51c>
    80001798:	000cb683          	ld	a3,0(s9)
    8000179c:	01113423          	sd	a7,8(sp)
    800017a0:	01513023          	sd	s5,0(sp)
    800017a4:	43f6d713          	srai	a4,a3,0x3f
    800017a8:	00d74633          	xor	a2,a4,a3
    800017ac:	00078893          	mv	a7,a5
    800017b0:	40e60733          	sub	a4,a2,a4
    800017b4:	03f6d793          	srli	a5,a3,0x3f
    800017b8:	00098693          	mv	a3,s3
    800017bc:	00048613          	mv	a2,s1
    800017c0:	000c0593          	mv	a1,s8
    800017c4:	000a0513          	mv	a0,s4
    800017c8:	ed5fe0ef          	jal	ra,8000069c <_ntoa_long>
    800017cc:	f55ff06f          	j	80001720 <_vsnprintf+0x46c>
    800017d0:	0408f513          	andi	a0,a7,64
    800017d4:	000ca683          	lw	a3,0(s9)
    800017d8:	02050463          	beqz	a0,80001800 <_vsnprintf+0x54c>
    800017dc:	0ff6f693          	zext.b	a3,a3
    800017e0:	41f6d71b          	sraiw	a4,a3,0x1f
    800017e4:	00e6c633          	xor	a2,a3,a4
    800017e8:	01113423          	sd	a7,8(sp)
    800017ec:	01513023          	sd	s5,0(sp)
    800017f0:	00078893          	mv	a7,a5
    800017f4:	40e6073b          	subw	a4,a2,a4
    800017f8:	01f6d79b          	srliw	a5,a3,0x1f
    800017fc:	fbdff06f          	j	800017b8 <_vsnprintf+0x504>
    80001800:	08067713          	andi	a4,a2,128
    80001804:	fc070ee3          	beqz	a4,800017e0 <_vsnprintf+0x52c>
    80001808:	0106969b          	slliw	a3,a3,0x10
    8000180c:	4106d69b          	sraiw	a3,a3,0x10
    80001810:	fd1ff06f          	j	800017e0 <_vsnprintf+0x52c>
    80001814:	00060e63          	beqz	a2,80001830 <_vsnprintf+0x57c>
    80001818:	000cb703          	ld	a4,0(s9)
    8000181c:	01113423          	sd	a7,8(sp)
    80001820:	01513023          	sd	s5,0(sp)
    80001824:	00078893          	mv	a7,a5
    80001828:	00000793          	li	a5,0
    8000182c:	ee1ff06f          	j	8000170c <_vsnprintf+0x458>
    80001830:	1006f613          	andi	a2,a3,256
    80001834:	00060e63          	beqz	a2,80001850 <_vsnprintf+0x59c>
    80001838:	000cb703          	ld	a4,0(s9)
    8000183c:	01113423          	sd	a7,8(sp)
    80001840:	01513023          	sd	s5,0(sp)
    80001844:	00078893          	mv	a7,a5
    80001848:	00000793          	li	a5,0
    8000184c:	f6dff06f          	j	800017b8 <_vsnprintf+0x504>
    80001850:	0406f613          	andi	a2,a3,64
    80001854:	000ca703          	lw	a4,0(s9)
    80001858:	02060263          	beqz	a2,8000187c <_vsnprintf+0x5c8>
    8000185c:	0ff77713          	zext.b	a4,a4
    80001860:	02071713          	slli	a4,a4,0x20
    80001864:	01113423          	sd	a7,8(sp)
    80001868:	01513023          	sd	s5,0(sp)
    8000186c:	00078893          	mv	a7,a5
    80001870:	02075713          	srli	a4,a4,0x20
    80001874:	00000793          	li	a5,0
    80001878:	f41ff06f          	j	800017b8 <_vsnprintf+0x504>
    8000187c:	0806f693          	andi	a3,a3,128
    80001880:	fe0680e3          	beqz	a3,80001860 <_vsnprintf+0x5ac>
    80001884:	01813683          	ld	a3,24(sp)
    80001888:	00d77733          	and	a4,a4,a3
    8000188c:	fd5ff06f          	j	80001860 <_vsnprintf+0x5ac>
    80001890:	0208e893          	ori	a7,a7,32
    80001894:	000cb703          	ld	a4,0(s9)
    80001898:	000a8813          	mv	a6,s5
    8000189c:	00098693          	mv	a3,s3
    800018a0:	00048613          	mv	a2,s1
    800018a4:	000c0593          	mv	a1,s8
    800018a8:	000a0513          	mv	a0,s4
    800018ac:	008c8413          	addi	s0,s9,8
    800018b0:	cdcff0ef          	jal	ra,80000d8c <_ftoa>
    800018b4:	e6dff06f          	j	80001720 <_vsnprintf+0x46c>
    800018b8:	0028f413          	andi	s0,a7,2
    800018bc:	00100d93          	li	s11,1
    800018c0:	04041863          	bnez	s0,80001910 <_vsnprintf+0x65c>
    800018c4:	00000d13          	li	s10,0
    800018c8:	0140006f          	j	800018dc <_vsnprintf+0x628>
    800018cc:	00098693          	mv	a3,s3
    800018d0:	000c0593          	mv	a1,s8
    800018d4:	02000513          	li	a0,32
    800018d8:	000a00e7          	jalr	s4
    800018dc:	009d0633          	add	a2,s10,s1
    800018e0:	001d0d13          	addi	s10,s10,1
    800018e4:	000d079b          	sext.w	a5,s10
    800018e8:	ff57e2e3          	bltu	a5,s5,800018cc <_vsnprintf+0x618>
    800018ec:	00000793          	li	a5,0
    800018f0:	000a8863          	beqz	s5,80001900 <_vsnprintf+0x64c>
    800018f4:	fffa879b          	addiw	a5,s5,-1
    800018f8:	02079793          	slli	a5,a5,0x20
    800018fc:	0207d793          	srli	a5,a5,0x20
    80001900:	00f484b3          	add	s1,s1,a5
    80001904:	00200d93          	li	s11,2
    80001908:	000a8463          	beqz	s5,80001910 <_vsnprintf+0x65c>
    8000190c:	001a8d9b          	addiw	s11,s5,1
    80001910:	000cc503          	lbu	a0,0(s9)
    80001914:	008c8793          	addi	a5,s9,8
    80001918:	00f13823          	sd	a5,16(sp)
    8000191c:	00098693          	mv	a3,s3
    80001920:	00048613          	mv	a2,s1
    80001924:	000c0593          	mv	a1,s8
    80001928:	00148d13          	addi	s10,s1,1
    8000192c:	000a00e7          	jalr	s4
    80001930:	04040463          	beqz	s0,80001978 <_vsnprintf+0x6c4>
    80001934:	000d8413          	mv	s0,s11
    80001938:	000d0613          	mv	a2,s10
    8000193c:	0200006f          	j	8000195c <_vsnprintf+0x6a8>
    80001940:	00098693          	mv	a3,s3
    80001944:	000c0593          	mv	a1,s8
    80001948:	02000513          	li	a0,32
    8000194c:	00160493          	addi	s1,a2,1
    80001950:	000a00e7          	jalr	s4
    80001954:	0014041b          	addiw	s0,s0,1
    80001958:	00048613          	mv	a2,s1
    8000195c:	ff5462e3          	bltu	s0,s5,80001940 <_vsnprintf+0x68c>
    80001960:	00000713          	li	a4,0
    80001964:	01bae863          	bltu	s5,s11,80001974 <_vsnprintf+0x6c0>
    80001968:	41ba8dbb          	subw	s11,s5,s11
    8000196c:	020d9713          	slli	a4,s11,0x20
    80001970:	02075713          	srli	a4,a4,0x20
    80001974:	00ed0d33          	add	s10,s10,a4
    80001978:	01013c83          	ld	s9,16(sp)
    8000197c:	000d0493          	mv	s1,s10
    80001980:	da9ff06f          	j	80001728 <_vsnprintf+0x474>
    80001984:	008c8713          	addi	a4,s9,8
    80001988:	00e13823          	sd	a4,16(sp)
    8000198c:	000cbd83          	ld	s11,0(s9)
    80001990:	fff00713          	li	a4,-1
    80001994:	00078663          	beqz	a5,800019a0 <_vsnprintf+0x6ec>
    80001998:	02079713          	slli	a4,a5,0x20
    8000199c:	02075713          	srli	a4,a4,0x20
    800019a0:	00ed86b3          	add	a3,s11,a4
    800019a4:	000d8713          	mv	a4,s11
    800019a8:	00074603          	lbu	a2,0(a4)
    800019ac:	00060463          	beqz	a2,800019b4 <_vsnprintf+0x700>
    800019b0:	02e69a63          	bne	a3,a4,800019e4 <_vsnprintf+0x730>
    800019b4:	4008fd13          	andi	s10,a7,1024
    800019b8:	41b70cbb          	subw	s9,a4,s11
    800019bc:	000d0a63          	beqz	s10,800019d0 <_vsnprintf+0x71c>
    800019c0:	00078693          	mv	a3,a5
    800019c4:	00fcf463          	bgeu	s9,a5,800019cc <_vsnprintf+0x718>
    800019c8:	000c8693          	mv	a3,s9
    800019cc:	00068c9b          	sext.w	s9,a3
    800019d0:	0028f413          	andi	s0,a7,2
    800019d4:	06041e63          	bnez	s0,80001a50 <_vsnprintf+0x79c>
    800019d8:	00048613          	mv	a2,s1
    800019dc:	409c883b          	subw	a6,s9,s1
    800019e0:	03c0006f          	j	80001a1c <_vsnprintf+0x768>
    800019e4:	00170713          	addi	a4,a4,1
    800019e8:	fc1ff06f          	j	800019a8 <_vsnprintf+0x6f4>
    800019ec:	00160893          	addi	a7,a2,1
    800019f0:	03012e23          	sw	a6,60(sp)
    800019f4:	02f13823          	sd	a5,48(sp)
    800019f8:	03113423          	sd	a7,40(sp)
    800019fc:	00098693          	mv	a3,s3
    80001a00:	000c0593          	mv	a1,s8
    80001a04:	02000513          	li	a0,32
    80001a08:	000a00e7          	jalr	s4
    80001a0c:	02813883          	ld	a7,40(sp)
    80001a10:	03013783          	ld	a5,48(sp)
    80001a14:	03c12803          	lw	a6,60(sp)
    80001a18:	00088613          	mv	a2,a7
    80001a1c:	00c806bb          	addw	a3,a6,a2
    80001a20:	fd56e6e3          	bltu	a3,s5,800019ec <_vsnprintf+0x738>
    80001a24:	419a863b          	subw	a2,s5,s9
    80001a28:	00000693          	li	a3,0
    80001a2c:	019ae663          	bltu	s5,s9,80001a38 <_vsnprintf+0x784>
    80001a30:	02061693          	slli	a3,a2,0x20
    80001a34:	0206d693          	srli	a3,a3,0x20
    80001a38:	00d484b3          	add	s1,s1,a3
    80001a3c:	00000693          	li	a3,0
    80001a40:	019ae463          	bltu	s5,s9,80001a48 <_vsnprintf+0x794>
    80001a44:	00060693          	mv	a3,a2
    80001a48:	001c871b          	addiw	a4,s9,1
    80001a4c:	00e68cbb          	addw	s9,a3,a4
    80001a50:	00048813          	mv	a6,s1
    80001a54:	0300006f          	j	80001a84 <_vsnprintf+0x7d0>
    80001a58:	00068793          	mv	a5,a3
    80001a5c:	00180893          	addi	a7,a6,1
    80001a60:	02f13823          	sd	a5,48(sp)
    80001a64:	03113423          	sd	a7,40(sp)
    80001a68:	00080613          	mv	a2,a6
    80001a6c:	00098693          	mv	a3,s3
    80001a70:	000c0593          	mv	a1,s8
    80001a74:	000a00e7          	jalr	s4
    80001a78:	02813883          	ld	a7,40(sp)
    80001a7c:	03013783          	ld	a5,48(sp)
    80001a80:	00088813          	mv	a6,a7
    80001a84:	409806b3          	sub	a3,a6,s1
    80001a88:	00dd86b3          	add	a3,s11,a3
    80001a8c:	0006c503          	lbu	a0,0(a3)
    80001a90:	00050863          	beqz	a0,80001aa0 <_vsnprintf+0x7ec>
    80001a94:	fc0d04e3          	beqz	s10,80001a5c <_vsnprintf+0x7a8>
    80001a98:	fff7869b          	addiw	a3,a5,-1
    80001a9c:	fa079ee3          	bnez	a5,80001a58 <_vsnprintf+0x7a4>
    80001aa0:	04040863          	beqz	s0,80001af0 <_vsnprintf+0x83c>
    80001aa4:	00080613          	mv	a2,a6
    80001aa8:	410c843b          	subw	s0,s9,a6
    80001aac:	0240006f          	j	80001ad0 <_vsnprintf+0x81c>
    80001ab0:	03013423          	sd	a6,40(sp)
    80001ab4:	00098693          	mv	a3,s3
    80001ab8:	000c0593          	mv	a1,s8
    80001abc:	02000513          	li	a0,32
    80001ac0:	00160493          	addi	s1,a2,1
    80001ac4:	000a00e7          	jalr	s4
    80001ac8:	02813803          	ld	a6,40(sp)
    80001acc:	00048613          	mv	a2,s1
    80001ad0:	00c407bb          	addw	a5,s0,a2
    80001ad4:	fd57eee3          	bltu	a5,s5,80001ab0 <_vsnprintf+0x7fc>
    80001ad8:	00000793          	li	a5,0
    80001adc:	019ae863          	bltu	s5,s9,80001aec <_vsnprintf+0x838>
    80001ae0:	419a873b          	subw	a4,s5,s9
    80001ae4:	02071793          	slli	a5,a4,0x20
    80001ae8:	0207d793          	srli	a5,a5,0x20
    80001aec:	00f80833          	add	a6,a6,a5
    80001af0:	01013c83          	ld	s9,16(sp)
    80001af4:	00080493          	mv	s1,a6
    80001af8:	c31ff06f          	j	80001728 <_vsnprintf+0x474>
    80001afc:	00800813          	li	a6,8
    80001b00:	b91ff06f          	j	80001690 <_vsnprintf+0x3dc>

0000000080001b04 <printf>:
    80001b04:	fa010113          	addi	sp,sp,-96
    80001b08:	02b13423          	sd	a1,40(sp)
    80001b0c:	02c13823          	sd	a2,48(sp)
    80001b10:	02d13c23          	sd	a3,56(sp)
    80001b14:	04e13023          	sd	a4,64(sp)
    80001b18:	00050693          	mv	a3,a0
    80001b1c:	02810713          	addi	a4,sp,40
    80001b20:	00010593          	mv	a1,sp
    80001b24:	fff00613          	li	a2,-1
    80001b28:	fffff517          	auipc	a0,0xfffff
    80001b2c:	76c50513          	addi	a0,a0,1900 # 80001294 <_out_char>
    80001b30:	00113c23          	sd	ra,24(sp)
    80001b34:	04f13423          	sd	a5,72(sp)
    80001b38:	05013823          	sd	a6,80(sp)
    80001b3c:	05113c23          	sd	a7,88(sp)
    80001b40:	00e13423          	sd	a4,8(sp)
    80001b44:	f70ff0ef          	jal	ra,800012b4 <_vsnprintf>
    80001b48:	01813083          	ld	ra,24(sp)
    80001b4c:	06010113          	addi	sp,sp,96
    80001b50:	00008067          	ret

0000000080001b54 <sprintf_>:
    80001b54:	fb010113          	addi	sp,sp,-80
    80001b58:	02c13023          	sd	a2,32(sp)
    80001b5c:	02d13423          	sd	a3,40(sp)
    80001b60:	02e13823          	sd	a4,48(sp)
    80001b64:	00058693          	mv	a3,a1
    80001b68:	02010713          	addi	a4,sp,32
    80001b6c:	00050593          	mv	a1,a0
    80001b70:	fff00613          	li	a2,-1
    80001b74:	fffff517          	auipc	a0,0xfffff
    80001b78:	9e850513          	addi	a0,a0,-1560 # 8000055c <_out_buffer>
    80001b7c:	00113c23          	sd	ra,24(sp)
    80001b80:	02f13c23          	sd	a5,56(sp)
    80001b84:	05013023          	sd	a6,64(sp)
    80001b88:	05113423          	sd	a7,72(sp)
    80001b8c:	00e13423          	sd	a4,8(sp)
    80001b90:	f24ff0ef          	jal	ra,800012b4 <_vsnprintf>
    80001b94:	01813083          	ld	ra,24(sp)
    80001b98:	05010113          	addi	sp,sp,80
    80001b9c:	00008067          	ret

0000000080001ba0 <snprintf_>:
    80001ba0:	fb010113          	addi	sp,sp,-80
    80001ba4:	02d13423          	sd	a3,40(sp)
    80001ba8:	02e13823          	sd	a4,48(sp)
    80001bac:	00060693          	mv	a3,a2
    80001bb0:	02810713          	addi	a4,sp,40
    80001bb4:	00058613          	mv	a2,a1
    80001bb8:	00050593          	mv	a1,a0
    80001bbc:	fffff517          	auipc	a0,0xfffff
    80001bc0:	9a050513          	addi	a0,a0,-1632 # 8000055c <_out_buffer>
    80001bc4:	00113c23          	sd	ra,24(sp)
    80001bc8:	02f13c23          	sd	a5,56(sp)
    80001bcc:	05013023          	sd	a6,64(sp)
    80001bd0:	05113423          	sd	a7,72(sp)
    80001bd4:	00e13423          	sd	a4,8(sp)
    80001bd8:	edcff0ef          	jal	ra,800012b4 <_vsnprintf>
    80001bdc:	01813083          	ld	ra,24(sp)
    80001be0:	05010113          	addi	sp,sp,80
    80001be4:	00008067          	ret

0000000080001be8 <vprintf_>:
    80001be8:	fe010113          	addi	sp,sp,-32
    80001bec:	00050693          	mv	a3,a0
    80001bf0:	00058713          	mv	a4,a1
    80001bf4:	fff00613          	li	a2,-1
    80001bf8:	00810593          	addi	a1,sp,8
    80001bfc:	fffff517          	auipc	a0,0xfffff
    80001c00:	69850513          	addi	a0,a0,1688 # 80001294 <_out_char>
    80001c04:	00113c23          	sd	ra,24(sp)
    80001c08:	eacff0ef          	jal	ra,800012b4 <_vsnprintf>
    80001c0c:	01813083          	ld	ra,24(sp)
    80001c10:	02010113          	addi	sp,sp,32
    80001c14:	00008067          	ret

0000000080001c18 <vsnprintf_>:
    80001c18:	00068713          	mv	a4,a3
    80001c1c:	00060693          	mv	a3,a2
    80001c20:	00058613          	mv	a2,a1
    80001c24:	00050593          	mv	a1,a0
    80001c28:	fffff517          	auipc	a0,0xfffff
    80001c2c:	93450513          	addi	a0,a0,-1740 # 8000055c <_out_buffer>
    80001c30:	e84ff06f          	j	800012b4 <_vsnprintf>

0000000080001c34 <fctprintf>:
    80001c34:	fa010113          	addi	sp,sp,-96
    80001c38:	02d13c23          	sd	a3,56(sp)
    80001c3c:	04e13023          	sd	a4,64(sp)
    80001c40:	00a13823          	sd	a0,16(sp)
    80001c44:	03810713          	addi	a4,sp,56
    80001c48:	00b13c23          	sd	a1,24(sp)
    80001c4c:	00060693          	mv	a3,a2
    80001c50:	01010593          	addi	a1,sp,16
    80001c54:	fff00613          	li	a2,-1
    80001c58:	fffff517          	auipc	a0,0xfffff
    80001c5c:	64850513          	addi	a0,a0,1608 # 800012a0 <_out_fct>
    80001c60:	02113423          	sd	ra,40(sp)
    80001c64:	04f13423          	sd	a5,72(sp)
    80001c68:	05013823          	sd	a6,80(sp)
    80001c6c:	05113c23          	sd	a7,88(sp)
    80001c70:	00e13423          	sd	a4,8(sp)
    80001c74:	e40ff0ef          	jal	ra,800012b4 <_vsnprintf>
    80001c78:	02813083          	ld	ra,40(sp)
    80001c7c:	06010113          	addi	sp,sp,96
    80001c80:	00008067          	ret

0000000080001c84 <clock_time>:
    80001c84:	00008797          	auipc	a5,0x8
    80001c88:	72c78793          	addi	a5,a5,1836 # 8000a3b0 <global_clock_time>
    80001c8c:	0007b503          	ld	a0,0(a5)
    80001c90:	00150713          	addi	a4,a0,1
    80001c94:	00e7b023          	sd	a4,0(a5)
    80001c98:	03c00793          	li	a5,60
    80001c9c:	02f55533          	divu	a0,a0,a5
    80001ca0:	0005051b          	sext.w	a0,a0
    80001ca4:	00008067          	ret

0000000080001ca8 <data_acked>:
    80001ca8:	03c54683          	lbu	a3,60(a0)
    80001cac:	00600713          	li	a4,6
    80001cb0:	00050793          	mv	a5,a0
    80001cb4:	00000513          	li	a0,0
    80001cb8:	04e69c63          	bne	a3,a4,80001d10 <data_acked+0x68>
    80001cbc:	00008517          	auipc	a0,0x8
    80001cc0:	73a54503          	lbu	a0,1850(a0) # 8000a3f6 <uip_flags>
    80001cc4:	00157513          	andi	a0,a0,1
    80001cc8:	04050463          	beqz	a0,80001d10 <data_acked+0x68>
    80001ccc:	00008717          	auipc	a4,0x8
    80001cd0:	71473703          	ld	a4,1812(a4) # 8000a3e0 <uip_conn>
    80001cd4:	01275603          	lhu	a2,18(a4)
    80001cd8:	0207d683          	lhu	a3,32(a5)
    80001cdc:	0087b703          	ld	a4,8(a5)
    80001ce0:	02d67063          	bgeu	a2,a3,80001d00 <data_acked+0x58>
    80001ce4:	40c686bb          	subw	a3,a3,a2
    80001ce8:	00c70733          	add	a4,a4,a2
    80001cec:	02d79023          	sh	a3,32(a5)
    80001cf0:	00e7b423          	sd	a4,8(a5)
    80001cf4:	00100713          	li	a4,1
    80001cf8:	02e78e23          	sb	a4,60(a5)
    80001cfc:	00008067          	ret
    80001d00:	00d70733          	add	a4,a4,a3
    80001d04:	00e7b423          	sd	a4,8(a5)
    80001d08:	02079023          	sh	zero,32(a5)
    80001d0c:	fe9ff06f          	j	80001cf4 <data_acked+0x4c>
    80001d10:	00008067          	ret

0000000080001d14 <send_data>:
    80001d14:	ff010113          	addi	sp,sp,-16
    80001d18:	00813023          	sd	s0,0(sp)
    80001d1c:	00113423          	sd	ra,8(sp)
    80001d20:	03c54703          	lbu	a4,60(a0)
    80001d24:	00600793          	li	a5,6
    80001d28:	00050413          	mv	s0,a0
    80001d2c:	00f71a63          	bne	a4,a5,80001d40 <send_data+0x2c>
    80001d30:	00008517          	auipc	a0,0x8
    80001d34:	6c654503          	lbu	a0,1734(a0) # 8000a3f6 <uip_flags>
    80001d38:	00457513          	andi	a0,a0,4
    80001d3c:	02050663          	beqz	a0,80001d68 <send_data+0x54>
    80001d40:	00008717          	auipc	a4,0x8
    80001d44:	6a073703          	ld	a4,1696(a4) # 8000a3e0 <uip_conn>
    80001d48:	02045783          	lhu	a5,32(s0)
    80001d4c:	01275583          	lhu	a1,18(a4)
    80001d50:	00843503          	ld	a0,8(s0)
    80001d54:	02f5f263          	bgeu	a1,a5,80001d78 <send_data+0x64>
    80001d58:	770020ef          	jal	ra,800044c8 <uip_send>
    80001d5c:	00600793          	li	a5,6
    80001d60:	02f40e23          	sb	a5,60(s0)
    80001d64:	00100513          	li	a0,1
    80001d68:	00813083          	ld	ra,8(sp)
    80001d6c:	00013403          	ld	s0,0(sp)
    80001d70:	01010113          	addi	sp,sp,16
    80001d74:	00008067          	ret
    80001d78:	00078593          	mv	a1,a5
    80001d7c:	fddff06f          	j	80001d58 <send_data+0x44>

0000000080001d80 <psock_send>:
    80001d80:	00255783          	lhu	a5,2(a0)
    80001d84:	fe010113          	addi	sp,sp,-32
    80001d88:	00813823          	sd	s0,16(sp)
    80001d8c:	00113c23          	sd	ra,24(sp)
    80001d90:	00913423          	sd	s1,8(sp)
    80001d94:	00050413          	mv	s0,a0
    80001d98:	00078c63          	beqz	a5,80001db0 <psock_send+0x30>
    80001d9c:	0cf00713          	li	a4,207
    80001da0:	02e78e63          	beq	a5,a4,80001ddc <psock_send+0x5c>
    80001da4:	00041123          	sh	zero,2(s0)
    80001da8:	00200513          	li	a0,2
    80001dac:	0500006f          	j	80001dfc <psock_send+0x7c>
    80001db0:	00100513          	li	a0,1
    80001db4:	04060463          	beqz	a2,80001dfc <psock_send+0x7c>
    80001db8:	00b43423          	sd	a1,8(s0)
    80001dbc:	02c41023          	sh	a2,32(s0)
    80001dc0:	02040e23          	sb	zero,60(s0)
    80001dc4:	02045783          	lhu	a5,32(s0)
    80001dc8:	00079663          	bnez	a5,80001dd4 <psock_send+0x54>
    80001dcc:	02040e23          	sb	zero,60(s0)
    80001dd0:	fd5ff06f          	j	80001da4 <psock_send+0x24>
    80001dd4:	0cf00793          	li	a5,207
    80001dd8:	00f41123          	sh	a5,2(s0)
    80001ddc:	00040513          	mv	a0,s0
    80001de0:	ec9ff0ef          	jal	ra,80001ca8 <data_acked>
    80001de4:	00050493          	mv	s1,a0
    80001de8:	00040513          	mv	a0,s0
    80001dec:	f29ff0ef          	jal	ra,80001d14 <send_data>
    80001df0:	00a4f533          	and	a0,s1,a0
    80001df4:	0ff57513          	zext.b	a0,a0
    80001df8:	fc0516e3          	bnez	a0,80001dc4 <psock_send+0x44>
    80001dfc:	01813083          	ld	ra,24(sp)
    80001e00:	01013403          	ld	s0,16(sp)
    80001e04:	00813483          	ld	s1,8(sp)
    80001e08:	02010113          	addi	sp,sp,32
    80001e0c:	00008067          	ret

0000000080001e10 <psock_generator_send>:
    80001e10:	00255783          	lhu	a5,2(a0)
    80001e14:	fd010113          	addi	sp,sp,-48
    80001e18:	02813023          	sd	s0,32(sp)
    80001e1c:	01213823          	sd	s2,16(sp)
    80001e20:	01313423          	sd	s3,8(sp)
    80001e24:	02113423          	sd	ra,40(sp)
    80001e28:	00913c23          	sd	s1,24(sp)
    80001e2c:	00050413          	mv	s0,a0
    80001e30:	00058913          	mv	s2,a1
    80001e34:	00060993          	mv	s3,a2
    80001e38:	02078863          	beqz	a5,80001e68 <psock_generator_send+0x58>
    80001e3c:	0ee00713          	li	a4,238
    80001e40:	06e78663          	beq	a5,a4,80001eac <psock_generator_send+0x9c>
    80001e44:	00041123          	sh	zero,2(s0)
    80001e48:	00200513          	li	a0,2
    80001e4c:	02813083          	ld	ra,40(sp)
    80001e50:	02013403          	ld	s0,32(sp)
    80001e54:	01813483          	ld	s1,24(sp)
    80001e58:	01013903          	ld	s2,16(sp)
    80001e5c:	00813983          	ld	s3,8(sp)
    80001e60:	03010113          	addi	sp,sp,48
    80001e64:	00008067          	ret
    80001e68:	00100513          	li	a0,1
    80001e6c:	fe0580e3          	beqz	a1,80001e4c <psock_generator_send+0x3c>
    80001e70:	00060513          	mv	a0,a2
    80001e74:	000580e7          	jalr	a1
    80001e78:	00008797          	auipc	a5,0x8
    80001e7c:	5607b783          	ld	a5,1376(a5) # 8000a3d8 <uip_appdata>
    80001e80:	02a41023          	sh	a0,32(s0)
    80001e84:	00f43423          	sd	a5,8(s0)
    80001e88:	02040e23          	sb	zero,60(s0)
    80001e8c:	00008797          	auipc	a5,0x8
    80001e90:	56a7c783          	lbu	a5,1386(a5) # 8000a3f6 <uip_flags>
    80001e94:	0047f793          	andi	a5,a5,4
    80001e98:	00078663          	beqz	a5,80001ea4 <psock_generator_send+0x94>
    80001e9c:	00098513          	mv	a0,s3
    80001ea0:	000900e7          	jalr	s2
    80001ea4:	0ee00793          	li	a5,238
    80001ea8:	00f41123          	sh	a5,2(s0)
    80001eac:	00040513          	mv	a0,s0
    80001eb0:	df9ff0ef          	jal	ra,80001ca8 <data_acked>
    80001eb4:	00050493          	mv	s1,a0
    80001eb8:	00040513          	mv	a0,s0
    80001ebc:	e59ff0ef          	jal	ra,80001d14 <send_data>
    80001ec0:	00a4f533          	and	a0,s1,a0
    80001ec4:	0ff57513          	zext.b	a0,a0
    80001ec8:	f80502e3          	beqz	a0,80001e4c <psock_generator_send+0x3c>
    80001ecc:	02045783          	lhu	a5,32(s0)
    80001ed0:	fa079ee3          	bnez	a5,80001e8c <psock_generator_send+0x7c>
    80001ed4:	02040e23          	sb	zero,60(s0)
    80001ed8:	f6dff06f          	j	80001e44 <psock_generator_send+0x34>

0000000080001edc <psock_datalen>:
    80001edc:	03852783          	lw	a5,56(a0)
    80001ee0:	03055703          	lhu	a4,48(a0)
    80001ee4:	40e7853b          	subw	a0,a5,a4
    80001ee8:	03051513          	slli	a0,a0,0x30
    80001eec:	03055513          	srli	a0,a0,0x30
    80001ef0:	00008067          	ret

0000000080001ef4 <psock_newdata>:
    80001ef4:	02255783          	lhu	a5,34(a0)
    80001ef8:	02079a63          	bnez	a5,80001f2c <psock_newdata+0x38>
    80001efc:	03c54703          	lbu	a4,60(a0)
    80001f00:	00200793          	li	a5,2
    80001f04:	00f71a63          	bne	a4,a5,80001f18 <psock_newdata+0x24>
    80001f08:	00300793          	li	a5,3
    80001f0c:	02f50e23          	sb	a5,60(a0)
    80001f10:	00000513          	li	a0,0
    80001f14:	00008067          	ret
    80001f18:	00008517          	auipc	a0,0x8
    80001f1c:	4de54503          	lbu	a0,1246(a0) # 8000a3f6 <uip_flags>
    80001f20:	0015551b          	srliw	a0,a0,0x1
    80001f24:	00157513          	andi	a0,a0,1
    80001f28:	00008067          	ret
    80001f2c:	00100513          	li	a0,1
    80001f30:	00008067          	ret

0000000080001f34 <psock_readto>:
    80001f34:	00255783          	lhu	a5,2(a0)
    80001f38:	fe010113          	addi	sp,sp,-32
    80001f3c:	00813823          	sd	s0,16(sp)
    80001f40:	00913423          	sd	s1,8(sp)
    80001f44:	00113c23          	sd	ra,24(sp)
    80001f48:	00050413          	mv	s0,a0
    80001f4c:	00058493          	mv	s1,a1
    80001f50:	00078c63          	beqz	a5,80001f68 <psock_readto+0x34>
    80001f54:	11b00713          	li	a4,283
    80001f58:	02e78863          	beq	a5,a4,80001f88 <psock_readto+0x54>
    80001f5c:	00041123          	sh	zero,2(s0)
    80001f60:	00200513          	li	a0,2
    80001f64:	0bc0006f          	j	80002020 <psock_readto+0xec>
    80001f68:	03855783          	lhu	a5,56(a0)
    80001f6c:	01853703          	ld	a4,24(a0)
    80001f70:	02f51823          	sh	a5,48(a0)
    80001f74:	02e53423          	sd	a4,40(a0)
    80001f78:	02245783          	lhu	a5,34(s0)
    80001f7c:	02079c63          	bnez	a5,80001fb4 <psock_readto+0x80>
    80001f80:	11b00793          	li	a5,283
    80001f84:	00f41123          	sh	a5,2(s0)
    80001f88:	00040513          	mv	a0,s0
    80001f8c:	f69ff0ef          	jal	ra,80001ef4 <psock_newdata>
    80001f90:	08050863          	beqz	a0,80002020 <psock_readto+0xec>
    80001f94:	00200793          	li	a5,2
    80001f98:	02f40e23          	sb	a5,60(s0)
    80001f9c:	00008797          	auipc	a5,0x8
    80001fa0:	43c7b783          	ld	a5,1084(a5) # 8000a3d8 <uip_appdata>
    80001fa4:	00f43823          	sd	a5,16(s0)
    80001fa8:	00008797          	auipc	a5,0x8
    80001fac:	4547d783          	lhu	a5,1108(a5) # 8000a3fc <uip_len>
    80001fb0:	02f41123          	sh	a5,34(s0)
    80001fb4:	03045703          	lhu	a4,48(s0)
    80001fb8:	02245783          	lhu	a5,34(s0)
    80001fbc:	06070c63          	beqz	a4,80002034 <psock_readto+0x100>
    80001fc0:	fa078ce3          	beqz	a5,80001f78 <psock_readto+0x44>
    80001fc4:	01043703          	ld	a4,16(s0)
    80001fc8:	02843783          	ld	a5,40(s0)
    80001fcc:	00074703          	lbu	a4,0(a4)
    80001fd0:	00e78023          	sb	a4,0(a5)
    80001fd4:	01043783          	ld	a5,16(s0)
    80001fd8:	00178793          	addi	a5,a5,1
    80001fdc:	00f43823          	sd	a5,16(s0)
    80001fe0:	02843783          	ld	a5,40(s0)
    80001fe4:	00178793          	addi	a5,a5,1
    80001fe8:	02f43423          	sd	a5,40(s0)
    80001fec:	02245783          	lhu	a5,34(s0)
    80001ff0:	fff7879b          	addiw	a5,a5,-1
    80001ff4:	02f41123          	sh	a5,34(s0)
    80001ff8:	03045783          	lhu	a5,48(s0)
    80001ffc:	fff7879b          	addiw	a5,a5,-1
    80002000:	02f41823          	sh	a5,48(s0)
    80002004:	fae498e3          	bne	s1,a4,80001fb4 <psock_readto+0x80>
    80002008:	03045703          	lhu	a4,48(s0)
    8000200c:	03845783          	lhu	a5,56(s0)
    80002010:	f4f716e3          	bne	a4,a5,80001f5c <psock_readto+0x28>
    80002014:	02040e23          	sb	zero,60(s0)
    80002018:	00041123          	sh	zero,2(s0)
    8000201c:	00000513          	li	a0,0
    80002020:	01813083          	ld	ra,24(sp)
    80002024:	01013403          	ld	s0,16(sp)
    80002028:	00813483          	ld	s1,8(sp)
    8000202c:	02010113          	addi	sp,sp,32
    80002030:	00008067          	ret
    80002034:	f40782e3          	beqz	a5,80001f78 <psock_readto+0x44>
    80002038:	02245783          	lhu	a5,34(s0)
    8000203c:	f2078ee3          	beqz	a5,80001f78 <psock_readto+0x44>
    80002040:	01043703          	ld	a4,16(s0)
    80002044:	fff7879b          	addiw	a5,a5,-1
    80002048:	00074683          	lbu	a3,0(a4)
    8000204c:	00170713          	addi	a4,a4,1
    80002050:	02f41123          	sh	a5,34(s0)
    80002054:	00e43823          	sd	a4,16(s0)
    80002058:	fed490e3          	bne	s1,a3,80002038 <psock_readto+0x104>
    8000205c:	fadff06f          	j	80002008 <psock_readto+0xd4>

0000000080002060 <psock_readbuf>:
    80002060:	00255783          	lhu	a5,2(a0)
    80002064:	ff010113          	addi	sp,sp,-16
    80002068:	00813023          	sd	s0,0(sp)
    8000206c:	00113423          	sd	ra,8(sp)
    80002070:	00050413          	mv	s0,a0
    80002074:	00078c63          	beqz	a5,8000208c <psock_readbuf+0x2c>
    80002078:	13600713          	li	a4,310
    8000207c:	02e78863          	beq	a5,a4,800020ac <psock_readbuf+0x4c>
    80002080:	00041123          	sh	zero,2(s0)
    80002084:	00200513          	li	a0,2
    80002088:	0ec0006f          	j	80002174 <psock_readbuf+0x114>
    8000208c:	03855783          	lhu	a5,56(a0)
    80002090:	01853703          	ld	a4,24(a0)
    80002094:	02f51823          	sh	a5,48(a0)
    80002098:	02e53423          	sd	a4,40(a0)
    8000209c:	02245783          	lhu	a5,34(s0)
    800020a0:	04079263          	bnez	a5,800020e4 <psock_readbuf+0x84>
    800020a4:	13600793          	li	a5,310
    800020a8:	00f41123          	sh	a5,2(s0)
    800020ac:	00040513          	mv	a0,s0
    800020b0:	e45ff0ef          	jal	ra,80001ef4 <psock_newdata>
    800020b4:	0c050063          	beqz	a0,80002174 <psock_readbuf+0x114>
    800020b8:	00007517          	auipc	a0,0x7
    800020bc:	f9050513          	addi	a0,a0,-112 # 80009048 <pow10.0+0x50>
    800020c0:	a45ff0ef          	jal	ra,80001b04 <printf>
    800020c4:	00200793          	li	a5,2
    800020c8:	02f40e23          	sb	a5,60(s0)
    800020cc:	00008797          	auipc	a5,0x8
    800020d0:	30c7b783          	ld	a5,780(a5) # 8000a3d8 <uip_appdata>
    800020d4:	00f43823          	sd	a5,16(s0)
    800020d8:	00008797          	auipc	a5,0x8
    800020dc:	3247d783          	lhu	a5,804(a5) # 8000a3fc <uip_len>
    800020e0:	02f41123          	sh	a5,34(s0)
    800020e4:	02245603          	lhu	a2,34(s0)
    800020e8:	03045783          	lhu	a5,48(s0)
    800020ec:	02843503          	ld	a0,40(s0)
    800020f0:	01043583          	ld	a1,16(s0)
    800020f4:	0006069b          	sext.w	a3,a2
    800020f8:	0007871b          	sext.w	a4,a5
    800020fc:	02f67c63          	bgeu	a2,a5,80002134 <psock_readbuf+0xd4>
    80002100:	3e0050ef          	jal	ra,800074e0 <memcpy>
    80002104:	02245703          	lhu	a4,34(s0)
    80002108:	02843783          	ld	a5,40(s0)
    8000210c:	02041123          	sh	zero,34(s0)
    80002110:	00e787b3          	add	a5,a5,a4
    80002114:	02f43423          	sd	a5,40(s0)
    80002118:	03045783          	lhu	a5,48(s0)
    8000211c:	40e787bb          	subw	a5,a5,a4
    80002120:	02f41823          	sh	a5,48(s0)
    80002124:	01043783          	ld	a5,16(s0)
    80002128:	00e787b3          	add	a5,a5,a4
    8000212c:	00f43823          	sd	a5,16(s0)
    80002130:	f6dff06f          	j	8000209c <psock_readbuf+0x3c>
    80002134:	04e69863          	bne	a3,a4,80002184 <psock_readbuf+0x124>
    80002138:	3a8050ef          	jal	ra,800074e0 <memcpy>
    8000213c:	02245703          	lhu	a4,34(s0)
    80002140:	02843783          	ld	a5,40(s0)
    80002144:	02041823          	sh	zero,48(s0)
    80002148:	02041123          	sh	zero,34(s0)
    8000214c:	00e787b3          	add	a5,a5,a4
    80002150:	02f43423          	sd	a5,40(s0)
    80002154:	01043783          	ld	a5,16(s0)
    80002158:	00e787b3          	add	a5,a5,a4
    8000215c:	00f43823          	sd	a5,16(s0)
    80002160:	03845783          	lhu	a5,56(s0)
    80002164:	f0079ee3          	bnez	a5,80002080 <psock_readbuf+0x20>
    80002168:	02040e23          	sb	zero,60(s0)
    8000216c:	00041123          	sh	zero,2(s0)
    80002170:	00000513          	li	a0,0
    80002174:	00813083          	ld	ra,8(sp)
    80002178:	00013403          	ld	s0,0(sp)
    8000217c:	01010113          	addi	sp,sp,16
    80002180:	00008067          	ret
    80002184:	00078613          	mv	a2,a5
    80002188:	358050ef          	jal	ra,800074e0 <memcpy>
    8000218c:	03045703          	lhu	a4,48(s0)
    80002190:	02843783          	ld	a5,40(s0)
    80002194:	02041823          	sh	zero,48(s0)
    80002198:	00e787b3          	add	a5,a5,a4
    8000219c:	02f43423          	sd	a5,40(s0)
    800021a0:	02245783          	lhu	a5,34(s0)
    800021a4:	40e787bb          	subw	a5,a5,a4
    800021a8:	02f41123          	sh	a5,34(s0)
    800021ac:	01043783          	ld	a5,16(s0)
    800021b0:	00e787b3          	add	a5,a5,a4
    800021b4:	00f43823          	sd	a5,16(s0)
    800021b8:	fa9ff06f          	j	80002160 <psock_readbuf+0x100>

00000000800021bc <psock_init>:
    800021bc:	02050e23          	sb	zero,60(a0)
    800021c0:	02051123          	sh	zero,34(a0)
    800021c4:	00b53c23          	sd	a1,24(a0)
    800021c8:	02c52c23          	sw	a2,56(a0)
    800021cc:	02b53423          	sd	a1,40(a0)
    800021d0:	02c51823          	sh	a2,48(a0)
    800021d4:	00052023          	sw	zero,0(a0)
    800021d8:	00008067          	ret

00000000800021dc <timer_set>:
    800021dc:	ff010113          	addi	sp,sp,-16
    800021e0:	00813023          	sd	s0,0(sp)
    800021e4:	00113423          	sd	ra,8(sp)
    800021e8:	00b52223          	sw	a1,4(a0)
    800021ec:	00050413          	mv	s0,a0
    800021f0:	a95ff0ef          	jal	ra,80001c84 <clock_time>
    800021f4:	00813083          	ld	ra,8(sp)
    800021f8:	00a42023          	sw	a0,0(s0)
    800021fc:	00013403          	ld	s0,0(sp)
    80002200:	01010113          	addi	sp,sp,16
    80002204:	00008067          	ret

0000000080002208 <timer_reset>:
    80002208:	00052703          	lw	a4,0(a0)
    8000220c:	00452783          	lw	a5,4(a0)
    80002210:	00e787bb          	addw	a5,a5,a4
    80002214:	00f52023          	sw	a5,0(a0)
    80002218:	00008067          	ret

000000008000221c <timer_restart>:
    8000221c:	ff010113          	addi	sp,sp,-16
    80002220:	00813023          	sd	s0,0(sp)
    80002224:	00113423          	sd	ra,8(sp)
    80002228:	00050413          	mv	s0,a0
    8000222c:	a59ff0ef          	jal	ra,80001c84 <clock_time>
    80002230:	00813083          	ld	ra,8(sp)
    80002234:	00a42023          	sw	a0,0(s0)
    80002238:	00013403          	ld	s0,0(sp)
    8000223c:	01010113          	addi	sp,sp,16
    80002240:	00008067          	ret

0000000080002244 <timer_expired>:
    80002244:	ff010113          	addi	sp,sp,-16
    80002248:	00813023          	sd	s0,0(sp)
    8000224c:	00113423          	sd	ra,8(sp)
    80002250:	00050413          	mv	s0,a0
    80002254:	a31ff0ef          	jal	ra,80001c84 <clock_time>
    80002258:	00042783          	lw	a5,0(s0)
    8000225c:	00813083          	ld	ra,8(sp)
    80002260:	40f5053b          	subw	a0,a0,a5
    80002264:	00442783          	lw	a5,4(s0)
    80002268:	00013403          	ld	s0,0(sp)
    8000226c:	00f52533          	slt	a0,a0,a5
    80002270:	00154513          	xori	a0,a0,1
    80002274:	0005051b          	sext.w	a0,a0
    80002278:	01010113          	addi	sp,sp,16
    8000227c:	00008067          	ret

0000000080002280 <uip_arp_update.constprop.0>:
    80002280:	00008797          	auipc	a5,0x8
    80002284:	12078da3          	sb	zero,315(a5) # 8000a3bb <i>
    80002288:	00007797          	auipc	a5,0x7
    8000228c:	1e078793          	addi	a5,a5,480 # 80009468 <uip_buf>
    80002290:	01d7c683          	lbu	a3,29(a5)
    80002294:	01f7c603          	lbu	a2,31(a5)
    80002298:	01c7c303          	lbu	t1,28(a5)
    8000229c:	01e7c503          	lbu	a0,30(a5)
    800022a0:	fe010113          	addi	sp,sp,-32
    800022a4:	00007717          	auipc	a4,0x7
    800022a8:	10470713          	addi	a4,a4,260 # 800093a8 <arp_table>
    800022ac:	00869693          	slli	a3,a3,0x8
    800022b0:	00861613          	slli	a2,a2,0x8
    800022b4:	00913423          	sd	s1,8(sp)
    800022b8:	00113c23          	sd	ra,24(sp)
    800022bc:	00813823          	sd	s0,16(sp)
    800022c0:	00000813          	li	a6,0
    800022c4:	00070593          	mv	a1,a4
    800022c8:	00000793          	li	a5,0
    800022cc:	00000893          	li	a7,0
    800022d0:	00070493          	mv	s1,a4
    800022d4:	00800e93          	li	t4,8
    800022d8:	00c00f93          	li	t6,12
    800022dc:	0066e6b3          	or	a3,a3,t1
    800022e0:	00a66633          	or	a2,a2,a0
    800022e4:	0ff7ff13          	zext.b	t5,a5
    800022e8:	0bd79a63          	bne	a5,t4,8000239c <uip_arp_update.constprop.0+0x11c>
    800022ec:	00008797          	auipc	a5,0x8
    800022f0:	0c0787a3          	sb	zero,207(a5) # 8000a3bb <i>
    800022f4:	00007797          	auipc	a5,0x7
    800022f8:	0b478793          	addi	a5,a5,180 # 800093a8 <arp_table>
    800022fc:	00000693          	li	a3,0
    80002300:	00000613          	li	a2,0
    80002304:	00800593          	li	a1,8
    80002308:	0ff6f513          	zext.b	a0,a3
    8000230c:	10b69863          	bne	a3,a1,8000241c <uip_arp_update.constprop.0+0x19c>
    80002310:	00008797          	auipc	a5,0x8
    80002314:	0a078a23          	sb	zero,180(a5) # 8000a3c4 <tmpage>
    80002318:	00008797          	auipc	a5,0x8
    8000231c:	0a0780a3          	sb	zero,161(a5) # 8000a3b9 <c>
    80002320:	00008517          	auipc	a0,0x8
    80002324:	09854503          	lbu	a0,152(a0) # 8000a3b8 <arptime>
    80002328:	0005031b          	sext.w	t1,a0
    8000232c:	00000793          	li	a5,0
    80002330:	00000593          	li	a1,0
    80002334:	00000613          	li	a2,0
    80002338:	00800893          	li	a7,8
    8000233c:	00a74683          	lbu	a3,10(a4)
    80002340:	40d30e3b          	subw	t3,t1,a3
    80002344:	01c65a63          	bge	a2,t3,80002358 <uip_arp_update.constprop.0+0xd8>
    80002348:	40d506bb          	subw	a3,a0,a3
    8000234c:	0ff6f613          	zext.b	a2,a3
    80002350:	00078813          	mv	a6,a5
    80002354:	00100593          	li	a1,1
    80002358:	0017879b          	addiw	a5,a5,1
    8000235c:	0ff7f793          	zext.b	a5,a5
    80002360:	00c70713          	addi	a4,a4,12
    80002364:	fd179ce3          	bne	a5,a7,8000233c <uip_arp_update.constprop.0+0xbc>
    80002368:	00008797          	auipc	a5,0x8
    8000236c:	05178793          	addi	a5,a5,81 # 8000a3b9 <c>
    80002370:	00058863          	beqz	a1,80002380 <uip_arp_update.constprop.0+0x100>
    80002374:	01078023          	sb	a6,0(a5)
    80002378:	00008717          	auipc	a4,0x8
    8000237c:	04c70623          	sb	a2,76(a4) # 8000a3c4 <tmpage>
    80002380:	0007c403          	lbu	s0,0(a5)
    80002384:	00008797          	auipc	a5,0x8
    80002388:	02878ba3          	sb	s0,55(a5) # 8000a3bb <i>
    8000238c:	00c00793          	li	a5,12
    80002390:	02f40433          	mul	s0,s0,a5
    80002394:	00848433          	add	s0,s1,s0
    80002398:	0a40006f          	j	8000243c <uip_arp_update.constprop.0+0x1bc>
    8000239c:	0005de03          	lhu	t3,0(a1)
    800023a0:	03f78533          	mul	a0,a5,t6
    800023a4:	0007841b          	sext.w	s0,a5
    800023a8:	060e0263          	beqz	t3,8000240c <uip_arp_update.constprop.0+0x18c>
    800023ac:	0025d303          	lhu	t1,2(a1)
    800023b0:	04030e63          	beqz	t1,8000240c <uip_arp_update.constprop.0+0x18c>
    800023b4:	04de1c63          	bne	t3,a3,8000240c <uip_arp_update.constprop.0+0x18c>
    800023b8:	04c31a63          	bne	t1,a2,8000240c <uip_arp_update.constprop.0+0x18c>
    800023bc:	00088663          	beqz	a7,800023c8 <uip_arp_update.constprop.0+0x148>
    800023c0:	00008797          	auipc	a5,0x8
    800023c4:	ffe78da3          	sb	t5,-5(a5) # 8000a3bb <i>
    800023c8:	00450513          	addi	a0,a0,4
    800023cc:	00600613          	li	a2,6
    800023d0:	00007597          	auipc	a1,0x7
    800023d4:	0ae58593          	addi	a1,a1,174 # 8000947e <uip_buf+0x16>
    800023d8:	00a48533          	add	a0,s1,a0
    800023dc:	104050ef          	jal	ra,800074e0 <memcpy>
    800023e0:	00c00793          	li	a5,12
    800023e4:	02f40433          	mul	s0,s0,a5
    800023e8:	00848433          	add	s0,s1,s0
    800023ec:	00008797          	auipc	a5,0x8
    800023f0:	fcc7c783          	lbu	a5,-52(a5) # 8000a3b8 <arptime>
    800023f4:	00f40523          	sb	a5,10(s0)
    800023f8:	01813083          	ld	ra,24(sp)
    800023fc:	01013403          	ld	s0,16(sp)
    80002400:	00813483          	ld	s1,8(sp)
    80002404:	02010113          	addi	sp,sp,32
    80002408:	00008067          	ret
    8000240c:	00178793          	addi	a5,a5,1
    80002410:	00c58593          	addi	a1,a1,12
    80002414:	00100893          	li	a7,1
    80002418:	ecdff06f          	j	800022e4 <uip_arp_update.constprop.0+0x64>
    8000241c:	0007d883          	lhu	a7,0(a5)
    80002420:	00078413          	mv	s0,a5
    80002424:	04089263          	bnez	a7,80002468 <uip_arp_update.constprop.0+0x1e8>
    80002428:	0027d883          	lhu	a7,2(a5)
    8000242c:	02089e63          	bnez	a7,80002468 <uip_arp_update.constprop.0+0x1e8>
    80002430:	00060663          	beqz	a2,8000243c <uip_arp_update.constprop.0+0x1bc>
    80002434:	00008797          	auipc	a5,0x8
    80002438:	f8a783a3          	sb	a0,-121(a5) # 8000a3bb <i>
    8000243c:	00400613          	li	a2,4
    80002440:	00007597          	auipc	a1,0x7
    80002444:	04458593          	addi	a1,a1,68 # 80009484 <uip_buf+0x1c>
    80002448:	00040513          	mv	a0,s0
    8000244c:	094050ef          	jal	ra,800074e0 <memcpy>
    80002450:	00600613          	li	a2,6
    80002454:	00007597          	auipc	a1,0x7
    80002458:	02a58593          	addi	a1,a1,42 # 8000947e <uip_buf+0x16>
    8000245c:	00440513          	addi	a0,s0,4
    80002460:	080050ef          	jal	ra,800074e0 <memcpy>
    80002464:	f89ff06f          	j	800023ec <uip_arp_update.constprop.0+0x16c>
    80002468:	0016869b          	addiw	a3,a3,1
    8000246c:	00c78793          	addi	a5,a5,12
    80002470:	00100613          	li	a2,1
    80002474:	e95ff06f          	j	80002308 <uip_arp_update.constprop.0+0x88>

0000000080002478 <uip_arp_init>:
    80002478:	fd010113          	addi	sp,sp,-48
    8000247c:	02813023          	sd	s0,32(sp)
    80002480:	00913c23          	sd	s1,24(sp)
    80002484:	01213823          	sd	s2,16(sp)
    80002488:	01313423          	sd	s3,8(sp)
    8000248c:	02113423          	sd	ra,40(sp)
    80002490:	00000513          	li	a0,0
    80002494:	00008417          	auipc	s0,0x8
    80002498:	f2740413          	addi	s0,s0,-217 # 8000a3bb <i>
    8000249c:	00700493          	li	s1,7
    800024a0:	00007917          	auipc	s2,0x7
    800024a4:	f0890913          	addi	s2,s2,-248 # 800093a8 <arp_table>
    800024a8:	00c00993          	li	s3,12
    800024ac:	00a40023          	sb	a0,0(s0)
    800024b0:	02a4f063          	bgeu	s1,a0,800024d0 <uip_arp_init+0x58>
    800024b4:	02813083          	ld	ra,40(sp)
    800024b8:	02013403          	ld	s0,32(sp)
    800024bc:	01813483          	ld	s1,24(sp)
    800024c0:	01013903          	ld	s2,16(sp)
    800024c4:	00813983          	ld	s3,8(sp)
    800024c8:	03010113          	addi	sp,sp,48
    800024cc:	00008067          	ret
    800024d0:	03350533          	mul	a0,a0,s3
    800024d4:	00400613          	li	a2,4
    800024d8:	00000593          	li	a1,0
    800024dc:	00a90533          	add	a0,s2,a0
    800024e0:	128050ef          	jal	ra,80007608 <memset>
    800024e4:	00044503          	lbu	a0,0(s0)
    800024e8:	0015051b          	addiw	a0,a0,1
    800024ec:	0ff57513          	zext.b	a0,a0
    800024f0:	fbdff06f          	j	800024ac <uip_arp_init+0x34>

00000000800024f4 <uip_arp_timer>:
    800024f4:	fc010113          	addi	sp,sp,-64
    800024f8:	02813823          	sd	s0,48(sp)
    800024fc:	00008417          	auipc	s0,0x8
    80002500:	ebc40413          	addi	s0,s0,-324 # 8000a3b8 <arptime>
    80002504:	00044783          	lbu	a5,0(s0)
    80002508:	02913423          	sd	s1,40(sp)
    8000250c:	03213023          	sd	s2,32(sp)
    80002510:	0017879b          	addiw	a5,a5,1
    80002514:	01313c23          	sd	s3,24(sp)
    80002518:	01413823          	sd	s4,16(sp)
    8000251c:	01513423          	sd	s5,8(sp)
    80002520:	02113c23          	sd	ra,56(sp)
    80002524:	00f40023          	sb	a5,0(s0)
    80002528:	00000513          	li	a0,0
    8000252c:	00008497          	auipc	s1,0x8
    80002530:	e8f48493          	addi	s1,s1,-369 # 8000a3bb <i>
    80002534:	00700a13          	li	s4,7
    80002538:	00007917          	auipc	s2,0x7
    8000253c:	e7090913          	addi	s2,s2,-400 # 800093a8 <arp_table>
    80002540:	00c00993          	li	s3,12
    80002544:	07700a93          	li	s5,119
    80002548:	00a48023          	sb	a0,0(s1)
    8000254c:	02aa7463          	bgeu	s4,a0,80002574 <uip_arp_timer+0x80>
    80002550:	03813083          	ld	ra,56(sp)
    80002554:	03013403          	ld	s0,48(sp)
    80002558:	02813483          	ld	s1,40(sp)
    8000255c:	02013903          	ld	s2,32(sp)
    80002560:	01813983          	ld	s3,24(sp)
    80002564:	01013a03          	ld	s4,16(sp)
    80002568:	00813a83          	ld	s5,8(sp)
    8000256c:	04010113          	addi	sp,sp,64
    80002570:	00008067          	ret
    80002574:	033507b3          	mul	a5,a0,s3
    80002578:	00f907b3          	add	a5,s2,a5
    8000257c:	0007d703          	lhu	a4,0(a5)
    80002580:	0027d683          	lhu	a3,2(a5)
    80002584:	00d76733          	or	a4,a4,a3
    80002588:	02070463          	beqz	a4,800025b0 <uip_arp_timer+0xbc>
    8000258c:	00044703          	lbu	a4,0(s0)
    80002590:	00a7c783          	lbu	a5,10(a5)
    80002594:	40f707bb          	subw	a5,a4,a5
    80002598:	00fadc63          	bge	s5,a5,800025b0 <uip_arp_timer+0xbc>
    8000259c:	03350533          	mul	a0,a0,s3
    800025a0:	00400613          	li	a2,4
    800025a4:	00000593          	li	a1,0
    800025a8:	00a90533          	add	a0,s2,a0
    800025ac:	05c050ef          	jal	ra,80007608 <memset>
    800025b0:	0004c503          	lbu	a0,0(s1)
    800025b4:	0015051b          	addiw	a0,a0,1
    800025b8:	0ff57513          	zext.b	a0,a0
    800025bc:	f8dff06f          	j	80002548 <uip_arp_timer+0x54>

00000000800025c0 <uip_arp_arpin>:
    800025c0:	fe010113          	addi	sp,sp,-32
    800025c4:	01213023          	sd	s2,0(sp)
    800025c8:	00008917          	auipc	s2,0x8
    800025cc:	e3490913          	addi	s2,s2,-460 # 8000a3fc <uip_len>
    800025d0:	00095703          	lhu	a4,0(s2)
    800025d4:	00113c23          	sd	ra,24(sp)
    800025d8:	00813823          	sd	s0,16(sp)
    800025dc:	00913423          	sd	s1,8(sp)
    800025e0:	02900793          	li	a5,41
    800025e4:	02e7e263          	bltu	a5,a4,80002608 <uip_arp_arpin+0x48>
    800025e8:	00008797          	auipc	a5,0x8
    800025ec:	e0079a23          	sh	zero,-492(a5) # 8000a3fc <uip_len>
    800025f0:	01813083          	ld	ra,24(sp)
    800025f4:	01013403          	ld	s0,16(sp)
    800025f8:	00813483          	ld	s1,8(sp)
    800025fc:	00013903          	ld	s2,0(sp)
    80002600:	02010113          	addi	sp,sp,32
    80002604:	00008067          	ret
    80002608:	00007417          	auipc	s0,0x7
    8000260c:	e6040413          	addi	s0,s0,-416 # 80009468 <uip_buf>
    80002610:	00008797          	auipc	a5,0x8
    80002614:	de079623          	sh	zero,-532(a5) # 8000a3fc <uip_len>
    80002618:	01544783          	lbu	a5,21(s0)
    8000261c:	01444703          	lbu	a4,20(s0)
    80002620:	00879793          	slli	a5,a5,0x8
    80002624:	00e7e7b3          	or	a5,a5,a4
    80002628:	10000713          	li	a4,256
    8000262c:	04e78e63          	beq	a5,a4,80002688 <uip_arp_arpin+0xc8>
    80002630:	20000713          	li	a4,512
    80002634:	fae79ee3          	bne	a5,a4,800025f0 <uip_arp_arpin+0x30>
    80002638:	02744783          	lbu	a5,39(s0)
    8000263c:	02644603          	lbu	a2,38(s0)
    80002640:	00008717          	auipc	a4,0x8
    80002644:	db870713          	addi	a4,a4,-584 # 8000a3f8 <uip_hostaddr>
    80002648:	00075683          	lhu	a3,0(a4)
    8000264c:	00879793          	slli	a5,a5,0x8
    80002650:	00c7e7b3          	or	a5,a5,a2
    80002654:	f8f69ee3          	bne	a3,a5,800025f0 <uip_arp_arpin+0x30>
    80002658:	02944783          	lbu	a5,41(s0)
    8000265c:	02844683          	lbu	a3,40(s0)
    80002660:	00275703          	lhu	a4,2(a4)
    80002664:	00879793          	slli	a5,a5,0x8
    80002668:	00d7e7b3          	or	a5,a5,a3
    8000266c:	f8f712e3          	bne	a4,a5,800025f0 <uip_arp_arpin+0x30>
    80002670:	01013403          	ld	s0,16(sp)
    80002674:	01813083          	ld	ra,24(sp)
    80002678:	00813483          	ld	s1,8(sp)
    8000267c:	00013903          	ld	s2,0(sp)
    80002680:	02010113          	addi	sp,sp,32
    80002684:	bfdff06f          	j	80002280 <uip_arp_update.constprop.0>
    80002688:	02744783          	lbu	a5,39(s0)
    8000268c:	02644683          	lbu	a3,38(s0)
    80002690:	00008497          	auipc	s1,0x8
    80002694:	d6848493          	addi	s1,s1,-664 # 8000a3f8 <uip_hostaddr>
    80002698:	0004d703          	lhu	a4,0(s1)
    8000269c:	00879793          	slli	a5,a5,0x8
    800026a0:	00d7e7b3          	or	a5,a5,a3
    800026a4:	f4f716e3          	bne	a4,a5,800025f0 <uip_arp_arpin+0x30>
    800026a8:	02944783          	lbu	a5,41(s0)
    800026ac:	02844683          	lbu	a3,40(s0)
    800026b0:	0024d703          	lhu	a4,2(s1)
    800026b4:	00879793          	slli	a5,a5,0x8
    800026b8:	00d7e7b3          	or	a5,a5,a3
    800026bc:	f2f71ae3          	bne	a4,a5,800025f0 <uip_arp_arpin+0x30>
    800026c0:	bc1ff0ef          	jal	ra,80002280 <uip_arp_update.constprop.0>
    800026c4:	00007797          	auipc	a5,0x7
    800026c8:	da078c23          	sb	zero,-584(a5) # 8000947c <uip_buf+0x14>
    800026cc:	00200793          	li	a5,2
    800026d0:	00600613          	li	a2,6
    800026d4:	00007597          	auipc	a1,0x7
    800026d8:	daa58593          	addi	a1,a1,-598 # 8000947e <uip_buf+0x16>
    800026dc:	00007517          	auipc	a0,0x7
    800026e0:	dac50513          	addi	a0,a0,-596 # 80009488 <uip_buf+0x20>
    800026e4:	00f40aa3          	sb	a5,21(s0)
    800026e8:	5f9040ef          	jal	ra,800074e0 <memcpy>
    800026ec:	00600613          	li	a2,6
    800026f0:	00008597          	auipc	a1,0x8
    800026f4:	d0058593          	addi	a1,a1,-768 # 8000a3f0 <uip_ethaddr>
    800026f8:	00007517          	auipc	a0,0x7
    800026fc:	d8650513          	addi	a0,a0,-634 # 8000947e <uip_buf+0x16>
    80002700:	5e1040ef          	jal	ra,800074e0 <memcpy>
    80002704:	00600613          	li	a2,6
    80002708:	00008597          	auipc	a1,0x8
    8000270c:	ce858593          	addi	a1,a1,-792 # 8000a3f0 <uip_ethaddr>
    80002710:	00007517          	auipc	a0,0x7
    80002714:	d5e50513          	addi	a0,a0,-674 # 8000946e <uip_buf+0x6>
    80002718:	5c9040ef          	jal	ra,800074e0 <memcpy>
    8000271c:	00600613          	li	a2,6
    80002720:	00007597          	auipc	a1,0x7
    80002724:	d6858593          	addi	a1,a1,-664 # 80009488 <uip_buf+0x20>
    80002728:	00040513          	mv	a0,s0
    8000272c:	5b5040ef          	jal	ra,800074e0 <memcpy>
    80002730:	01c44783          	lbu	a5,28(s0)
    80002734:	02f40323          	sb	a5,38(s0)
    80002738:	01d44783          	lbu	a5,29(s0)
    8000273c:	02f403a3          	sb	a5,39(s0)
    80002740:	01e44783          	lbu	a5,30(s0)
    80002744:	02f40423          	sb	a5,40(s0)
    80002748:	01f44783          	lbu	a5,31(s0)
    8000274c:	02f404a3          	sb	a5,41(s0)
    80002750:	0004c783          	lbu	a5,0(s1)
    80002754:	00f40e23          	sb	a5,28(s0)
    80002758:	0004d783          	lhu	a5,0(s1)
    8000275c:	0087d793          	srli	a5,a5,0x8
    80002760:	00f40ea3          	sb	a5,29(s0)
    80002764:	0024c783          	lbu	a5,2(s1)
    80002768:	00f40f23          	sb	a5,30(s0)
    8000276c:	0024d783          	lhu	a5,2(s1)
    80002770:	0087d793          	srli	a5,a5,0x8
    80002774:	00f40fa3          	sb	a5,31(s0)
    80002778:	00800793          	li	a5,8
    8000277c:	00f40623          	sb	a5,12(s0)
    80002780:	00600793          	li	a5,6
    80002784:	00f406a3          	sb	a5,13(s0)
    80002788:	02a00793          	li	a5,42
    8000278c:	00f91023          	sh	a5,0(s2)
    80002790:	e61ff06f          	j	800025f0 <uip_arp_arpin+0x30>

0000000080002794 <uip_arp_out>:
    80002794:	fe010113          	addi	sp,sp,-32
    80002798:	00813823          	sd	s0,16(sp)
    8000279c:	00007417          	auipc	s0,0x7
    800027a0:	ccc40413          	addi	s0,s0,-820 # 80009468 <uip_buf>
    800027a4:	01f44703          	lbu	a4,31(s0)
    800027a8:	01e44783          	lbu	a5,30(s0)
    800027ac:	02044683          	lbu	a3,32(s0)
    800027b0:	00871713          	slli	a4,a4,0x8
    800027b4:	00f76733          	or	a4,a4,a5
    800027b8:	02144783          	lbu	a5,33(s0)
    800027bc:	00113c23          	sd	ra,24(sp)
    800027c0:	00913423          	sd	s1,8(sp)
    800027c4:	00879793          	slli	a5,a5,0x8
    800027c8:	00d7e7b3          	or	a5,a5,a3
    800027cc:	000106b7          	lui	a3,0x10
    800027d0:	01213023          	sd	s2,0(sp)
    800027d4:	00f77633          	and	a2,a4,a5
    800027d8:	fff68693          	addi	a3,a3,-1 # ffff <_start-0x7fff0001>
    800027dc:	04d61c63          	bne	a2,a3,80002834 <uip_arp_out+0xa0>
    800027e0:	00600613          	li	a2,6
    800027e4:	00005597          	auipc	a1,0x5
    800027e8:	75458593          	addi	a1,a1,1876 # 80007f38 <broadcast_ethaddr>
    800027ec:	00040513          	mv	a0,s0
    800027f0:	4f1040ef          	jal	ra,800074e0 <memcpy>
    800027f4:	00600613          	li	a2,6
    800027f8:	00008597          	auipc	a1,0x8
    800027fc:	bf858593          	addi	a1,a1,-1032 # 8000a3f0 <uip_ethaddr>
    80002800:	00007517          	auipc	a0,0x7
    80002804:	c6e50513          	addi	a0,a0,-914 # 8000946e <uip_buf+0x6>
    80002808:	4d9040ef          	jal	ra,800074e0 <memcpy>
    8000280c:	00800793          	li	a5,8
    80002810:	00f40623          	sb	a5,12(s0)
    80002814:	00007797          	auipc	a5,0x7
    80002818:	c60780a3          	sb	zero,-927(a5) # 80009475 <uip_buf+0xd>
    8000281c:	00008797          	auipc	a5,0x8
    80002820:	be07d783          	lhu	a5,-1056(a5) # 8000a3fc <uip_len>
    80002824:	00e7879b          	addiw	a5,a5,14
    80002828:	03079793          	slli	a5,a5,0x30
    8000282c:	0307d793          	srli	a5,a5,0x30
    80002830:	1840006f          	j	800029b4 <uip_arp_out+0x220>
    80002834:	00008917          	auipc	s2,0x8
    80002838:	bc490913          	addi	s2,s2,-1084 # 8000a3f8 <uip_hostaddr>
    8000283c:	00008597          	auipc	a1,0x8
    80002840:	bc458593          	addi	a1,a1,-1084 # 8000a400 <uip_netmask>
    80002844:	00095683          	lhu	a3,0(s2)
    80002848:	0005d603          	lhu	a2,0(a1)
    8000284c:	0025d583          	lhu	a1,2(a1)
    80002850:	00d746b3          	xor	a3,a4,a3
    80002854:	00c6f6b3          	and	a3,a3,a2
    80002858:	00295603          	lhu	a2,2(s2)
    8000285c:	00008497          	auipc	s1,0x8
    80002860:	b6448493          	addi	s1,s1,-1180 # 8000a3c0 <ipaddr>
    80002864:	00c7c633          	xor	a2,a5,a2
    80002868:	00b67633          	and	a2,a2,a1
    8000286c:	00c6e6b3          	or	a3,a3,a2
    80002870:	16068263          	beqz	a3,800029d4 <uip_arp_out+0x240>
    80002874:	00008797          	auipc	a5,0x8
    80002878:	b7478793          	addi	a5,a5,-1164 # 8000a3e8 <uip_draddr>
    8000287c:	0007d703          	lhu	a4,0(a5)
    80002880:	0027d783          	lhu	a5,2(a5)
    80002884:	00e49023          	sh	a4,0(s1)
    80002888:	0004d803          	lhu	a6,0(s1)
    8000288c:	00008717          	auipc	a4,0x8
    80002890:	b20707a3          	sb	zero,-1233(a4) # 8000a3bb <i>
    80002894:	00f49123          	sh	a5,2(s1)
    80002898:	00007597          	auipc	a1,0x7
    8000289c:	b1058593          	addi	a1,a1,-1264 # 800093a8 <arp_table>
    800028a0:	00000713          	li	a4,0
    800028a4:	00000693          	li	a3,0
    800028a8:	00800513          	li	a0,8
    800028ac:	0007879b          	sext.w	a5,a5
    800028b0:	0ff77613          	zext.b	a2,a4
    800028b4:	12a71463          	bne	a4,a0,800029dc <uip_arp_out+0x248>
    800028b8:	00068663          	beqz	a3,800028c4 <uip_arp_out+0x130>
    800028bc:	00008797          	auipc	a5,0x8
    800028c0:	aee78fa3          	sb	a4,-1281(a5) # 8000a3bb <i>
    800028c4:	00600613          	li	a2,6
    800028c8:	0ff00593          	li	a1,255
    800028cc:	00007517          	auipc	a0,0x7
    800028d0:	b9c50513          	addi	a0,a0,-1124 # 80009468 <uip_buf>
    800028d4:	535040ef          	jal	ra,80007608 <memset>
    800028d8:	00600613          	li	a2,6
    800028dc:	00000593          	li	a1,0
    800028e0:	00007517          	auipc	a0,0x7
    800028e4:	ba850513          	addi	a0,a0,-1112 # 80009488 <uip_buf+0x20>
    800028e8:	521040ef          	jal	ra,80007608 <memset>
    800028ec:	00600613          	li	a2,6
    800028f0:	00008597          	auipc	a1,0x8
    800028f4:	b0058593          	addi	a1,a1,-1280 # 8000a3f0 <uip_ethaddr>
    800028f8:	00007517          	auipc	a0,0x7
    800028fc:	b7650513          	addi	a0,a0,-1162 # 8000946e <uip_buf+0x6>
    80002900:	3e1040ef          	jal	ra,800074e0 <memcpy>
    80002904:	00600613          	li	a2,6
    80002908:	00008597          	auipc	a1,0x8
    8000290c:	ae858593          	addi	a1,a1,-1304 # 8000a3f0 <uip_ethaddr>
    80002910:	00007517          	auipc	a0,0x7
    80002914:	b6e50513          	addi	a0,a0,-1170 # 8000947e <uip_buf+0x16>
    80002918:	3c9040ef          	jal	ra,800074e0 <memcpy>
    8000291c:	0004d783          	lhu	a5,0(s1)
    80002920:	00007717          	auipc	a4,0x7
    80002924:	b4070b23          	sb	zero,-1194(a4) # 80009476 <uip_buf+0xe>
    80002928:	00800713          	li	a4,8
    8000292c:	02f40323          	sb	a5,38(s0)
    80002930:	0087d793          	srli	a5,a5,0x8
    80002934:	02f403a3          	sb	a5,39(s0)
    80002938:	0024d783          	lhu	a5,2(s1)
    8000293c:	00e40823          	sb	a4,16(s0)
    80002940:	00400693          	li	a3,4
    80002944:	02f40423          	sb	a5,40(s0)
    80002948:	0087d793          	srli	a5,a5,0x8
    8000294c:	02f404a3          	sb	a5,41(s0)
    80002950:	00095783          	lhu	a5,0(s2)
    80002954:	00e40623          	sb	a4,12(s0)
    80002958:	00d409a3          	sb	a3,19(s0)
    8000295c:	00f40e23          	sb	a5,28(s0)
    80002960:	0087d793          	srli	a5,a5,0x8
    80002964:	00f40ea3          	sb	a5,29(s0)
    80002968:	00295783          	lhu	a5,2(s2)
    8000296c:	00f40f23          	sb	a5,30(s0)
    80002970:	0087d793          	srli	a5,a5,0x8
    80002974:	00f40fa3          	sb	a5,31(s0)
    80002978:	00007797          	auipc	a5,0x7
    8000297c:	b0078223          	sb	zero,-1276(a5) # 8000947c <uip_buf+0x14>
    80002980:	00100793          	li	a5,1
    80002984:	00f40aa3          	sb	a5,21(s0)
    80002988:	00f407a3          	sb	a5,15(s0)
    8000298c:	00007797          	auipc	a5,0x7
    80002990:	ae0786a3          	sb	zero,-1299(a5) # 80009479 <uip_buf+0x11>
    80002994:	00600793          	li	a5,6
    80002998:	00f40923          	sb	a5,18(s0)
    8000299c:	00f406a3          	sb	a5,13(s0)
    800029a0:	00007797          	auipc	a5,0x7
    800029a4:	afe78793          	addi	a5,a5,-1282 # 8000949e <uip_buf+0x36>
    800029a8:	00008717          	auipc	a4,0x8
    800029ac:	a2f73823          	sd	a5,-1488(a4) # 8000a3d8 <uip_appdata>
    800029b0:	02a00793          	li	a5,42
    800029b4:	01813083          	ld	ra,24(sp)
    800029b8:	01013403          	ld	s0,16(sp)
    800029bc:	00008717          	auipc	a4,0x8
    800029c0:	a4f71023          	sh	a5,-1472(a4) # 8000a3fc <uip_len>
    800029c4:	00813483          	ld	s1,8(sp)
    800029c8:	00013903          	ld	s2,0(sp)
    800029cc:	02010113          	addi	sp,sp,32
    800029d0:	00008067          	ret
    800029d4:	00e49023          	sh	a4,0(s1)
    800029d8:	eb1ff06f          	j	80002888 <uip_arp_out+0xf4>
    800029dc:	0005d883          	lhu	a7,0(a1)
    800029e0:	01089663          	bne	a7,a6,800029ec <uip_arp_out+0x258>
    800029e4:	0025d883          	lhu	a7,2(a1)
    800029e8:	00f88a63          	beq	a7,a5,800029fc <uip_arp_out+0x268>
    800029ec:	0017071b          	addiw	a4,a4,1
    800029f0:	00c58593          	addi	a1,a1,12
    800029f4:	00100693          	li	a3,1
    800029f8:	eb9ff06f          	j	800028b0 <uip_arp_out+0x11c>
    800029fc:	00068663          	beqz	a3,80002a08 <uip_arp_out+0x274>
    80002a00:	00008797          	auipc	a5,0x8
    80002a04:	9ac78da3          	sb	a2,-1605(a5) # 8000a3bb <i>
    80002a08:	00600613          	li	a2,6
    80002a0c:	00458593          	addi	a1,a1,4
    80002a10:	00007517          	auipc	a0,0x7
    80002a14:	a5850513          	addi	a0,a0,-1448 # 80009468 <uip_buf>
    80002a18:	dd9ff06f          	j	800027f0 <uip_arp_out+0x5c>

0000000080002a1c <find_entry>:
    80002a1c:	00055583          	lhu	a1,0(a0)
    80002a20:	00007717          	auipc	a4,0x7
    80002a24:	9e870713          	addi	a4,a4,-1560 # 80009408 <entries>
    80002a28:	00000793          	li	a5,0
    80002a2c:	00070693          	mv	a3,a4
    80002a30:	00800613          	li	a2,8
    80002a34:	00075803          	lhu	a6,0(a4)
    80002a38:	02b81063          	bne	a6,a1,80002a58 <find_entry+0x3c>
    80002a3c:	00275883          	lhu	a7,2(a4)
    80002a40:	00255803          	lhu	a6,2(a0)
    80002a44:	01089a63          	bne	a7,a6,80002a58 <find_entry+0x3c>
    80002a48:	00c00713          	li	a4,12
    80002a4c:	02e787b3          	mul	a5,a5,a4
    80002a50:	00f68533          	add	a0,a3,a5
    80002a54:	00008067          	ret
    80002a58:	0017879b          	addiw	a5,a5,1
    80002a5c:	00c70713          	addi	a4,a4,12
    80002a60:	fcc79ae3          	bne	a5,a2,80002a34 <find_entry+0x18>
    80002a64:	00000513          	li	a0,0
    80002a68:	00008067          	ret

0000000080002a6c <uip_neighbor_init>:
    80002a6c:	00007797          	auipc	a5,0x7
    80002a70:	99c78793          	addi	a5,a5,-1636 # 80009408 <entries>
    80002a74:	f8000713          	li	a4,-128
    80002a78:	00e78523          	sb	a4,10(a5)
    80002a7c:	00e78b23          	sb	a4,22(a5)
    80002a80:	02e78123          	sb	a4,34(a5)
    80002a84:	02e78723          	sb	a4,46(a5)
    80002a88:	02e78d23          	sb	a4,58(a5)
    80002a8c:	04e78323          	sb	a4,70(a5)
    80002a90:	04e78923          	sb	a4,82(a5)
    80002a94:	04e78f23          	sb	a4,94(a5)
    80002a98:	00008067          	ret

0000000080002a9c <uip_neighbor_periodic>:
    80002a9c:	00007797          	auipc	a5,0x7
    80002aa0:	96c78793          	addi	a5,a5,-1684 # 80009408 <entries>
    80002aa4:	00007697          	auipc	a3,0x7
    80002aa8:	9c468693          	addi	a3,a3,-1596 # 80009468 <uip_buf>
    80002aac:	00a7c703          	lbu	a4,10(a5)
    80002ab0:	0187161b          	slliw	a2,a4,0x18
    80002ab4:	4186561b          	sraiw	a2,a2,0x18
    80002ab8:	00064663          	bltz	a2,80002ac4 <uip_neighbor_periodic+0x28>
    80002abc:	0017071b          	addiw	a4,a4,1
    80002ac0:	00e78523          	sb	a4,10(a5)
    80002ac4:	00c78793          	addi	a5,a5,12
    80002ac8:	fed792e3          	bne	a5,a3,80002aac <uip_neighbor_periodic+0x10>
    80002acc:	00008067          	ret

0000000080002ad0 <uip_neighbor_add>:
    80002ad0:	fe010113          	addi	sp,sp,-32
    80002ad4:	00813823          	sd	s0,16(sp)
    80002ad8:	00913423          	sd	s1,8(sp)
    80002adc:	00113c23          	sd	ra,24(sp)
    80002ae0:	0055c803          	lbu	a6,5(a1)
    80002ae4:	0045c783          	lbu	a5,4(a1)
    80002ae8:	0035c703          	lbu	a4,3(a1)
    80002aec:	0015c603          	lbu	a2,1(a1)
    80002af0:	0025c683          	lbu	a3,2(a1)
    80002af4:	00058413          	mv	s0,a1
    80002af8:	0005c583          	lbu	a1,0(a1)
    80002afc:	00050493          	mv	s1,a0
    80002b00:	00006517          	auipc	a0,0x6
    80002b04:	56050513          	addi	a0,a0,1376 # 80009060 <pow10.0+0x68>
    80002b08:	ffdfe0ef          	jal	ra,80001b04 <printf>
    80002b0c:	00007717          	auipc	a4,0x7
    80002b10:	8fc70713          	addi	a4,a4,-1796 # 80009408 <entries>
    80002b14:	00000593          	li	a1,0
    80002b18:	00000613          	li	a2,0
    80002b1c:	00000793          	li	a5,0
    80002b20:	00070513          	mv	a0,a4
    80002b24:	08000893          	li	a7,128
    80002b28:	00800813          	li	a6,8
    80002b2c:	00a74683          	lbu	a3,10(a4)
    80002b30:	03168c63          	beq	a3,a7,80002b68 <uip_neighbor_add+0x98>
    80002b34:	00075e03          	lhu	t3,0(a4)
    80002b38:	00045303          	lhu	t1,0(s0)
    80002b3c:	006e1863          	bne	t3,t1,80002b4c <uip_neighbor_add+0x7c>
    80002b40:	00275e03          	lhu	t3,2(a4)
    80002b44:	00245303          	lhu	t1,2(s0)
    80002b48:	026e0063          	beq	t3,t1,80002b68 <uip_neighbor_add+0x98>
    80002b4c:	00d5f663          	bgeu	a1,a3,80002b58 <uip_neighbor_add+0x88>
    80002b50:	00068593          	mv	a1,a3
    80002b54:	00078613          	mv	a2,a5
    80002b58:	0017879b          	addiw	a5,a5,1
    80002b5c:	00c70713          	addi	a4,a4,12
    80002b60:	fd0796e3          	bne	a5,a6,80002b2c <uip_neighbor_add+0x5c>
    80002b64:	00060793          	mv	a5,a2
    80002b68:	00c00713          	li	a4,12
    80002b6c:	02e787b3          	mul	a5,a5,a4
    80002b70:	00040593          	mv	a1,s0
    80002b74:	00600613          	li	a2,6
    80002b78:	00f50733          	add	a4,a0,a5
    80002b7c:	00070523          	sb	zero,10(a4)
    80002b80:	0004d683          	lhu	a3,0(s1)
    80002b84:	01013403          	ld	s0,16(sp)
    80002b88:	01813083          	ld	ra,24(sp)
    80002b8c:	00d71023          	sh	a3,0(a4)
    80002b90:	0024d683          	lhu	a3,2(s1)
    80002b94:	00813483          	ld	s1,8(sp)
    80002b98:	00478793          	addi	a5,a5,4
    80002b9c:	00d71123          	sh	a3,2(a4)
    80002ba0:	00f50533          	add	a0,a0,a5
    80002ba4:	02010113          	addi	sp,sp,32
    80002ba8:	1390406f          	j	800074e0 <memcpy>

0000000080002bac <uip_neighbor_update>:
    80002bac:	ff010113          	addi	sp,sp,-16
    80002bb0:	00113423          	sd	ra,8(sp)
    80002bb4:	e69ff0ef          	jal	ra,80002a1c <find_entry>
    80002bb8:	00050463          	beqz	a0,80002bc0 <uip_neighbor_update+0x14>
    80002bbc:	00050523          	sb	zero,10(a0)
    80002bc0:	00813083          	ld	ra,8(sp)
    80002bc4:	01010113          	addi	sp,sp,16
    80002bc8:	00008067          	ret

0000000080002bcc <uip_neighbor_lookup>:
    80002bcc:	ff010113          	addi	sp,sp,-16
    80002bd0:	00113423          	sd	ra,8(sp)
    80002bd4:	e49ff0ef          	jal	ra,80002a1c <find_entry>
    80002bd8:	00050463          	beqz	a0,80002be0 <uip_neighbor_lookup+0x14>
    80002bdc:	00450513          	addi	a0,a0,4
    80002be0:	00813083          	ld	ra,8(sp)
    80002be4:	01010113          	addi	sp,sp,16
    80002be8:	00008067          	ret

0000000080002bec <chksum>:
    80002bec:	fff60613          	addi	a2,a2,-1
    80002bf0:	00c58633          	add	a2,a1,a2
    80002bf4:	00058713          	mv	a4,a1
    80002bf8:	04c76663          	bltu	a4,a2,80002c44 <chksum+0x58>
    80002bfc:	fff58713          	addi	a4,a1,-1
    80002c00:	00000793          	li	a5,0
    80002c04:	00e66863          	bltu	a2,a4,80002c14 <chksum+0x28>
    80002c08:	40b607b3          	sub	a5,a2,a1
    80002c0c:	00178793          	addi	a5,a5,1
    80002c10:	ffe7f793          	andi	a5,a5,-2
    80002c14:	00f585b3          	add	a1,a1,a5
    80002c18:	02c59463          	bne	a1,a2,80002c40 <chksum+0x54>
    80002c1c:	00064783          	lbu	a5,0(a2)
    80002c20:	00879793          	slli	a5,a5,0x8
    80002c24:	00f5053b          	addw	a0,a0,a5
    80002c28:	03051513          	slli	a0,a0,0x30
    80002c2c:	03055513          	srli	a0,a0,0x30
    80002c30:	00f57863          	bgeu	a0,a5,80002c40 <chksum+0x54>
    80002c34:	0015051b          	addiw	a0,a0,1
    80002c38:	03051513          	slli	a0,a0,0x30
    80002c3c:	03055513          	srli	a0,a0,0x30
    80002c40:	00008067          	ret
    80002c44:	00074783          	lbu	a5,0(a4)
    80002c48:	00174683          	lbu	a3,1(a4)
    80002c4c:	0087979b          	slliw	a5,a5,0x8
    80002c50:	00d787bb          	addw	a5,a5,a3
    80002c54:	03079793          	slli	a5,a5,0x30
    80002c58:	0307d793          	srli	a5,a5,0x30
    80002c5c:	00f5053b          	addw	a0,a0,a5
    80002c60:	03051513          	slli	a0,a0,0x30
    80002c64:	03055513          	srli	a0,a0,0x30
    80002c68:	00f57863          	bgeu	a0,a5,80002c78 <chksum+0x8c>
    80002c6c:	0015051b          	addiw	a0,a0,1
    80002c70:	03051513          	slli	a0,a0,0x30
    80002c74:	03055513          	srli	a0,a0,0x30
    80002c78:	00270713          	addi	a4,a4,2
    80002c7c:	f7dff06f          	j	80002bf8 <chksum+0xc>

0000000080002c80 <upper_layer_chksum>:
    80002c80:	ff010113          	addi	sp,sp,-16
    80002c84:	00113423          	sd	ra,8(sp)
    80002c88:	00813023          	sd	s0,0(sp)
    80002c8c:	00006797          	auipc	a5,0x6
    80002c90:	7dc78793          	addi	a5,a5,2012 # 80009468 <uip_buf>
    80002c94:	0107c403          	lbu	s0,16(a5)
    80002c98:	0117c783          	lbu	a5,17(a5)
    80002c9c:	00800613          	li	a2,8
    80002ca0:	0084141b          	slliw	s0,s0,0x8
    80002ca4:	fec7879b          	addiw	a5,a5,-20
    80002ca8:	00f4043b          	addw	s0,s0,a5
    80002cac:	03041413          	slli	s0,s0,0x30
    80002cb0:	03045413          	srli	s0,s0,0x30
    80002cb4:	0085053b          	addw	a0,a0,s0
    80002cb8:	03051513          	slli	a0,a0,0x30
    80002cbc:	00006597          	auipc	a1,0x6
    80002cc0:	7c658593          	addi	a1,a1,1990 # 80009482 <uip_buf+0x1a>
    80002cc4:	03055513          	srli	a0,a0,0x30
    80002cc8:	f25ff0ef          	jal	ra,80002bec <chksum>
    80002ccc:	00040613          	mv	a2,s0
    80002cd0:	00006597          	auipc	a1,0x6
    80002cd4:	7ba58593          	addi	a1,a1,1978 # 8000948a <uip_buf+0x22>
    80002cd8:	f15ff0ef          	jal	ra,80002bec <chksum>
    80002cdc:	02050463          	beqz	a0,80002d04 <upper_layer_chksum+0x84>
    80002ce0:	0085179b          	slliw	a5,a0,0x8
    80002ce4:	0085551b          	srliw	a0,a0,0x8
    80002ce8:	00a7e533          	or	a0,a5,a0
    80002cec:	03051513          	slli	a0,a0,0x30
    80002cf0:	03055513          	srli	a0,a0,0x30
    80002cf4:	00813083          	ld	ra,8(sp)
    80002cf8:	00013403          	ld	s0,0(sp)
    80002cfc:	01010113          	addi	sp,sp,16
    80002d00:	00008067          	ret
    80002d04:	00010537          	lui	a0,0x10
    80002d08:	fff50513          	addi	a0,a0,-1 # ffff <_start-0x7fff0001>
    80002d0c:	fe9ff06f          	j	80002cf4 <upper_layer_chksum+0x74>

0000000080002d10 <uip_setipid>:
    80002d10:	00007797          	auipc	a5,0x7
    80002d14:	6aa79b23          	sh	a0,1718(a5) # 8000a3c6 <ipid>
    80002d18:	00008067          	ret

0000000080002d1c <uip_add32>:
    80002d1c:	00354603          	lbu	a2,3(a0)
    80002d20:	00007717          	auipc	a4,0x7
    80002d24:	6b070713          	addi	a4,a4,1712 # 8000a3d0 <uip_acc32>
    80002d28:	0085d813          	srli	a6,a1,0x8
    80002d2c:	00b6063b          	addw	a2,a2,a1
    80002d30:	0ff67613          	zext.b	a2,a2
    80002d34:	00c701a3          	sb	a2,3(a4)
    80002d38:	00254783          	lbu	a5,2(a0)
    80002d3c:	010787bb          	addw	a5,a5,a6
    80002d40:	0ff7f793          	zext.b	a5,a5
    80002d44:	00f70123          	sb	a5,2(a4)
    80002d48:	00154683          	lbu	a3,1(a0)
    80002d4c:	00d700a3          	sb	a3,1(a4)
    80002d50:	00054503          	lbu	a0,0(a0)
    80002d54:	00a70023          	sb	a0,0(a4)
    80002d58:	0107fe63          	bgeu	a5,a6,80002d74 <uip_add32+0x58>
    80002d5c:	0016869b          	addiw	a3,a3,1
    80002d60:	0ff6f693          	zext.b	a3,a3
    80002d64:	00d700a3          	sb	a3,1(a4)
    80002d68:	00069663          	bnez	a3,80002d74 <uip_add32+0x58>
    80002d6c:	0015051b          	addiw	a0,a0,1
    80002d70:	00a70023          	sb	a0,0(a4)
    80002d74:	0ff5f593          	zext.b	a1,a1
    80002d78:	02b65a63          	bge	a2,a1,80002dac <uip_add32+0x90>
    80002d7c:	0017879b          	addiw	a5,a5,1
    80002d80:	0ff7f793          	zext.b	a5,a5
    80002d84:	00f70123          	sb	a5,2(a4)
    80002d88:	02079263          	bnez	a5,80002dac <uip_add32+0x90>
    80002d8c:	00174783          	lbu	a5,1(a4)
    80002d90:	0017879b          	addiw	a5,a5,1
    80002d94:	0ff7f793          	zext.b	a5,a5
    80002d98:	00f700a3          	sb	a5,1(a4)
    80002d9c:	00079863          	bnez	a5,80002dac <uip_add32+0x90>
    80002da0:	00074783          	lbu	a5,0(a4)
    80002da4:	0017879b          	addiw	a5,a5,1
    80002da8:	00f70023          	sb	a5,0(a4)
    80002dac:	00008067          	ret

0000000080002db0 <uip_add_rcv_nxt>:
    80002db0:	ff010113          	addi	sp,sp,-16
    80002db4:	00813023          	sd	s0,0(sp)
    80002db8:	00007417          	auipc	s0,0x7
    80002dbc:	62840413          	addi	s0,s0,1576 # 8000a3e0 <uip_conn>
    80002dc0:	00050593          	mv	a1,a0
    80002dc4:	00043503          	ld	a0,0(s0)
    80002dc8:	00113423          	sd	ra,8(sp)
    80002dcc:	00850513          	addi	a0,a0,8
    80002dd0:	f4dff0ef          	jal	ra,80002d1c <uip_add32>
    80002dd4:	00043783          	ld	a5,0(s0)
    80002dd8:	00007717          	auipc	a4,0x7
    80002ddc:	5f872703          	lw	a4,1528(a4) # 8000a3d0 <uip_acc32>
    80002de0:	00e7a423          	sw	a4,8(a5)
    80002de4:	00813083          	ld	ra,8(sp)
    80002de8:	00013403          	ld	s0,0(sp)
    80002dec:	01010113          	addi	sp,sp,16
    80002df0:	00008067          	ret

0000000080002df4 <uip_chksum>:
    80002df4:	ff010113          	addi	sp,sp,-16
    80002df8:	00058613          	mv	a2,a1
    80002dfc:	00050593          	mv	a1,a0
    80002e00:	00000513          	li	a0,0
    80002e04:	00113423          	sd	ra,8(sp)
    80002e08:	de5ff0ef          	jal	ra,80002bec <chksum>
    80002e0c:	00813083          	ld	ra,8(sp)
    80002e10:	0085179b          	slliw	a5,a0,0x8
    80002e14:	0085551b          	srliw	a0,a0,0x8
    80002e18:	00a7e533          	or	a0,a5,a0
    80002e1c:	03051513          	slli	a0,a0,0x30
    80002e20:	03055513          	srli	a0,a0,0x30
    80002e24:	01010113          	addi	sp,sp,16
    80002e28:	00008067          	ret

0000000080002e2c <uip_ipchksum>:
    80002e2c:	ff010113          	addi	sp,sp,-16
    80002e30:	01400613          	li	a2,20
    80002e34:	00006597          	auipc	a1,0x6
    80002e38:	64258593          	addi	a1,a1,1602 # 80009476 <uip_buf+0xe>
    80002e3c:	00000513          	li	a0,0
    80002e40:	00113423          	sd	ra,8(sp)
    80002e44:	da9ff0ef          	jal	ra,80002bec <chksum>
    80002e48:	02050263          	beqz	a0,80002e6c <uip_ipchksum+0x40>
    80002e4c:	0085179b          	slliw	a5,a0,0x8
    80002e50:	0085551b          	srliw	a0,a0,0x8
    80002e54:	00a7e533          	or	a0,a5,a0
    80002e58:	03051513          	slli	a0,a0,0x30
    80002e5c:	03055513          	srli	a0,a0,0x30
    80002e60:	00813083          	ld	ra,8(sp)
    80002e64:	01010113          	addi	sp,sp,16
    80002e68:	00008067          	ret
    80002e6c:	00010537          	lui	a0,0x10
    80002e70:	fff50513          	addi	a0,a0,-1 # ffff <_start-0x7fff0001>
    80002e74:	fedff06f          	j	80002e60 <uip_ipchksum+0x34>

0000000080002e78 <uip_tcpchksum>:
    80002e78:	00600513          	li	a0,6
    80002e7c:	e05ff06f          	j	80002c80 <upper_layer_chksum>

0000000080002e80 <uip_udpchksum>:
    80002e80:	01100513          	li	a0,17
    80002e84:	dfdff06f          	j	80002c80 <upper_layer_chksum>

0000000080002e88 <uip_init>:
    80002e88:	00007797          	auipc	a5,0x7
    80002e8c:	0c078793          	addi	a5,a5,192 # 80009f48 <uip_listenports>
    80002e90:	00007717          	auipc	a4,0x7
    80002e94:	10870713          	addi	a4,a4,264 # 80009f98 <uip_stat>
    80002e98:	06e79063          	bne	a5,a4,80002ef8 <uip_init+0x70>
    80002e9c:	00007797          	auipc	a5,0x7
    80002ea0:	bac78793          	addi	a5,a5,-1108 # 80009a48 <uip_conns>
    80002ea4:	00007717          	auipc	a4,0x7
    80002ea8:	0c470713          	addi	a4,a4,196 # 80009f68 <uip_listenports+0x20>
    80002eac:	02078793          	addi	a5,a5,32
    80002eb0:	04e79a63          	bne	a5,a4,80002f04 <uip_init+0x7c>
    80002eb4:	40000793          	li	a5,1024
    80002eb8:	00007717          	auipc	a4,0x7
    80002ebc:	50f71a23          	sh	a5,1300(a4) # 8000a3cc <lastport>
    80002ec0:	00007797          	auipc	a5,0x7
    80002ec4:	4e078d23          	sb	zero,1274(a5) # 8000a3ba <c>
    80002ec8:	00007797          	auipc	a5,0x7
    80002ecc:	10878793          	addi	a5,a5,264 # 80009fd0 <uip_udp_conns>
    80002ed0:	00007697          	auipc	a3,0x7
    80002ed4:	4c868693          	addi	a3,a3,1224 # 8000a398 <__malloc_current_mallinfo+0x10>
    80002ed8:	00000713          	li	a4,0
    80002edc:	05878793          	addi	a5,a5,88
    80002ee0:	02d79663          	bne	a5,a3,80002f0c <uip_init+0x84>
    80002ee4:	00070863          	beqz	a4,80002ef4 <uip_init+0x6c>
    80002ee8:	00a00793          	li	a5,10
    80002eec:	00007717          	auipc	a4,0x7
    80002ef0:	4cf70723          	sb	a5,1230(a4) # 8000a3ba <c>
    80002ef4:	00008067          	ret
    80002ef8:	00079023          	sh	zero,0(a5)
    80002efc:	00278793          	addi	a5,a5,2
    80002f00:	f99ff06f          	j	80002e98 <uip_init+0x10>
    80002f04:	fe078ca3          	sb	zero,-7(a5)
    80002f08:	fa5ff06f          	j	80002eac <uip_init+0x24>
    80002f0c:	fa079623          	sh	zero,-84(a5)
    80002f10:	00100713          	li	a4,1
    80002f14:	fc9ff06f          	j	80002edc <uip_init+0x54>

0000000080002f18 <uip_connect>:
    80002f18:	00007317          	auipc	t1,0x7
    80002f1c:	4b430313          	addi	t1,t1,1204 # 8000a3cc <lastport>
    80002f20:	00035783          	lhu	a5,0(t1)
    80002f24:	000088b7          	lui	a7,0x8
    80002f28:	00050613          	mv	a2,a0
    80002f2c:	cff88893          	addi	a7,a7,-769 # 7cff <_start-0x7fff8301>
    80002f30:	02800e13          	li	t3,40
    80002f34:	0017879b          	addiw	a5,a5,1
    80002f38:	03079793          	slli	a5,a5,0x30
    80002f3c:	0307d793          	srli	a5,a5,0x30
    80002f40:	00f8f463          	bgeu	a7,a5,80002f48 <uip_connect+0x30>
    80002f44:	000017b7          	lui	a5,0x1
    80002f48:	0087d69b          	srliw	a3,a5,0x8
    80002f4c:	0087971b          	slliw	a4,a5,0x8
    80002f50:	00d76733          	or	a4,a4,a3
    80002f54:	03071713          	slli	a4,a4,0x30
    80002f58:	03075713          	srli	a4,a4,0x30
    80002f5c:	00007697          	auipc	a3,0x7
    80002f60:	aec68693          	addi	a3,a3,-1300 # 80009a48 <uip_conns>
    80002f64:	00068513          	mv	a0,a3
    80002f68:	00000813          	li	a6,0
    80002f6c:	00070e9b          	sext.w	t4,a4
    80002f70:	05c81063          	bne	a6,t3,80002fb0 <uip_connect+0x98>
    80002f74:	00f31023          	sh	a5,0(t1)
    80002f78:	00007797          	auipc	a5,0x7
    80002f7c:	44078123          	sb	zero,1090(a5) # 8000a3ba <c>
    80002f80:	00000793          	li	a5,0
    80002f84:	00000813          	li	a6,0
    80002f88:	00000513          	li	a0,0
    80002f8c:	02800313          	li	t1,40
    80002f90:	00700e93          	li	t4,7
    80002f94:	0ff7fe13          	zext.b	t3,a5
    80002f98:	02679a63          	bne	a5,t1,80002fcc <uip_connect+0xb4>
    80002f9c:	00080663          	beqz	a6,80002fa8 <uip_connect+0x90>
    80002fa0:	00007697          	auipc	a3,0x7
    80002fa4:	40f68d23          	sb	a5,1050(a3) # 8000a3ba <c>
    80002fa8:	02051e63          	bnez	a0,80002fe4 <uip_connect+0xcc>
    80002fac:	00008067          	ret
    80002fb0:	01954f03          	lbu	t5,25(a0)
    80002fb4:	000f0663          	beqz	t5,80002fc0 <uip_connect+0xa8>
    80002fb8:	00455f03          	lhu	t5,4(a0)
    80002fbc:	f7df0ce3          	beq	t5,t4,80002f34 <uip_connect+0x1c>
    80002fc0:	0018081b          	addiw	a6,a6,1
    80002fc4:	02050513          	addi	a0,a0,32
    80002fc8:	fa9ff06f          	j	80002f70 <uip_connect+0x58>
    80002fcc:	0196c883          	lbu	a7,25(a3)
    80002fd0:	04089a63          	bnez	a7,80003024 <uip_connect+0x10c>
    80002fd4:	00080663          	beqz	a6,80002fe0 <uip_connect+0xc8>
    80002fd8:	00007797          	auipc	a5,0x7
    80002fdc:	3fc78123          	sb	t3,994(a5) # 8000a3ba <c>
    80002fe0:	00068513          	mv	a0,a3
    80002fe4:	00007797          	auipc	a5,0x7
    80002fe8:	3e47a783          	lw	a5,996(a5) # 8000a3c8 <iss>
    80002fec:	00f52623          	sw	a5,12(a0)
    80002ff0:	00005797          	auipc	a5,0x5
    80002ff4:	f407b783          	ld	a5,-192(a5) # 80007f30 <__errno+0xa8>
    80002ff8:	00f53823          	sd	a5,16(a0)
    80002ffc:	000107b7          	lui	a5,0x10
    80003000:	20378793          	addi	a5,a5,515 # 10203 <_start-0x7ffefdfd>
    80003004:	00f52c23          	sw	a5,24(a0)
    80003008:	00e51223          	sh	a4,4(a0)
    8000300c:	00b51323          	sh	a1,6(a0)
    80003010:	00065783          	lhu	a5,0(a2)
    80003014:	00f51023          	sh	a5,0(a0)
    80003018:	00265783          	lhu	a5,2(a2)
    8000301c:	00f51123          	sh	a5,2(a0)
    80003020:	f8dff06f          	j	80002fac <uip_connect+0x94>
    80003024:	01d89c63          	bne	a7,t4,8000303c <uip_connect+0x124>
    80003028:	00050863          	beqz	a0,80003038 <uip_connect+0x120>
    8000302c:	01a6c883          	lbu	a7,26(a3)
    80003030:	01a54803          	lbu	a6,26(a0)
    80003034:	01187463          	bgeu	a6,a7,8000303c <uip_connect+0x124>
    80003038:	00068513          	mv	a0,a3
    8000303c:	0017879b          	addiw	a5,a5,1
    80003040:	02068693          	addi	a3,a3,32
    80003044:	00100813          	li	a6,1
    80003048:	f4dff06f          	j	80002f94 <uip_connect+0x7c>

000000008000304c <uip_udp_new>:
    8000304c:	00007317          	auipc	t1,0x7
    80003050:	38030313          	addi	t1,t1,896 # 8000a3cc <lastport>
    80003054:	00035783          	lhu	a5,0(t1)
    80003058:	fe010113          	addi	sp,sp,-32
    8000305c:	000088b7          	lui	a7,0x8
    80003060:	00113c23          	sd	ra,24(sp)
    80003064:	00813823          	sd	s0,16(sp)
    80003068:	00913423          	sd	s1,8(sp)
    8000306c:	01213023          	sd	s2,0(sp)
    80003070:	cff88893          	addi	a7,a7,-769 # 7cff <_start-0x7fff8301>
    80003074:	00a00e13          	li	t3,10
    80003078:	0017879b          	addiw	a5,a5,1
    8000307c:	03079793          	slli	a5,a5,0x30
    80003080:	0307d793          	srli	a5,a5,0x30
    80003084:	00f8f463          	bgeu	a7,a5,8000308c <uip_udp_new+0x40>
    80003088:	000017b7          	lui	a5,0x1
    8000308c:	0087d69b          	srliw	a3,a5,0x8
    80003090:	0087971b          	slliw	a4,a5,0x8
    80003094:	00d76733          	or	a4,a4,a3
    80003098:	03071713          	slli	a4,a4,0x30
    8000309c:	00007697          	auipc	a3,0x7
    800030a0:	f3468693          	addi	a3,a3,-204 # 80009fd0 <uip_udp_conns>
    800030a4:	03075713          	srli	a4,a4,0x30
    800030a8:	00068813          	mv	a6,a3
    800030ac:	00000613          	li	a2,0
    800030b0:	00068493          	mv	s1,a3
    800030b4:	00070e9b          	sext.w	t4,a4
    800030b8:	05c61863          	bne	a2,t3,80003108 <uip_udp_new+0xbc>
    800030bc:	00f31023          	sh	a5,0(t1)
    800030c0:	00007797          	auipc	a5,0x7
    800030c4:	2e078d23          	sb	zero,762(a5) # 8000a3ba <c>
    800030c8:	00000793          	li	a5,0
    800030cc:	00000613          	li	a2,0
    800030d0:	00a00813          	li	a6,10
    800030d4:	0ff7f893          	zext.b	a7,a5
    800030d8:	05079263          	bne	a5,a6,8000311c <uip_udp_new+0xd0>
    800030dc:	00060663          	beqz	a2,800030e8 <uip_udp_new+0x9c>
    800030e0:	00007717          	auipc	a4,0x7
    800030e4:	2cf70d23          	sb	a5,730(a4) # 8000a3ba <c>
    800030e8:	00000413          	li	s0,0
    800030ec:	01813083          	ld	ra,24(sp)
    800030f0:	00040513          	mv	a0,s0
    800030f4:	01013403          	ld	s0,16(sp)
    800030f8:	00813483          	ld	s1,8(sp)
    800030fc:	00013903          	ld	s2,0(sp)
    80003100:	02010113          	addi	sp,sp,32
    80003104:	00008067          	ret
    80003108:	00485f03          	lhu	t5,4(a6)
    8000310c:	0016061b          	addiw	a2,a2,1
    80003110:	05880813          	addi	a6,a6,88
    80003114:	fbdf12e3          	bne	t5,t4,800030b8 <uip_udp_new+0x6c>
    80003118:	f61ff06f          	j	80003078 <uip_udp_new+0x2c>
    8000311c:	0046d303          	lhu	t1,4(a3)
    80003120:	0007891b          	sext.w	s2,a5
    80003124:	05868693          	addi	a3,a3,88
    80003128:	0017879b          	addiw	a5,a5,1
    8000312c:	04031863          	bnez	t1,8000317c <uip_udp_new+0x130>
    80003130:	00060663          	beqz	a2,8000313c <uip_udp_new+0xf0>
    80003134:	00007797          	auipc	a5,0x7
    80003138:	29178323          	sb	a7,646(a5) # 8000a3ba <c>
    8000313c:	05800413          	li	s0,88
    80003140:	02890433          	mul	s0,s2,s0
    80003144:	00848433          	add	s0,s1,s0
    80003148:	00e41223          	sh	a4,4(s0)
    8000314c:	00b41323          	sh	a1,6(s0)
    80003150:	02051a63          	bnez	a0,80003184 <uip_udp_new+0x138>
    80003154:	00400613          	li	a2,4
    80003158:	00000593          	li	a1,0
    8000315c:	00040513          	mv	a0,s0
    80003160:	4a8040ef          	jal	ra,80007608 <memset>
    80003164:	05800793          	li	a5,88
    80003168:	02f90933          	mul	s2,s2,a5
    8000316c:	04000793          	li	a5,64
    80003170:	012484b3          	add	s1,s1,s2
    80003174:	00f48423          	sb	a5,8(s1)
    80003178:	f75ff06f          	j	800030ec <uip_udp_new+0xa0>
    8000317c:	00100613          	li	a2,1
    80003180:	f55ff06f          	j	800030d4 <uip_udp_new+0x88>
    80003184:	00055783          	lhu	a5,0(a0)
    80003188:	00f41023          	sh	a5,0(s0)
    8000318c:	00255783          	lhu	a5,2(a0)
    80003190:	00f41123          	sh	a5,2(s0)
    80003194:	fd1ff06f          	j	80003164 <uip_udp_new+0x118>

0000000080003198 <uip_unlisten>:
    80003198:	00007797          	auipc	a5,0x7
    8000319c:	22078123          	sb	zero,546(a5) # 8000a3ba <c>
    800031a0:	00007717          	auipc	a4,0x7
    800031a4:	da870713          	addi	a4,a4,-600 # 80009f48 <uip_listenports>
    800031a8:	00000793          	li	a5,0
    800031ac:	00000693          	li	a3,0
    800031b0:	00070613          	mv	a2,a4
    800031b4:	02800813          	li	a6,40
    800031b8:	0ff7f893          	zext.b	a7,a5
    800031bc:	01079a63          	bne	a5,a6,800031d0 <uip_unlisten+0x38>
    800031c0:	00068663          	beqz	a3,800031cc <uip_unlisten+0x34>
    800031c4:	00007717          	auipc	a4,0x7
    800031c8:	1ef70b23          	sb	a5,502(a4) # 8000a3ba <c>
    800031cc:	00008067          	ret
    800031d0:	00075303          	lhu	t1,0(a4)
    800031d4:	0007859b          	sext.w	a1,a5
    800031d8:	00270713          	addi	a4,a4,2
    800031dc:	0017879b          	addiw	a5,a5,1
    800031e0:	02a31063          	bne	t1,a0,80003200 <uip_unlisten+0x68>
    800031e4:	00068663          	beqz	a3,800031f0 <uip_unlisten+0x58>
    800031e8:	00007797          	auipc	a5,0x7
    800031ec:	1d178923          	sb	a7,466(a5) # 8000a3ba <c>
    800031f0:	00159793          	slli	a5,a1,0x1
    800031f4:	00f60633          	add	a2,a2,a5
    800031f8:	00061023          	sh	zero,0(a2)
    800031fc:	00008067          	ret
    80003200:	00100693          	li	a3,1
    80003204:	fb5ff06f          	j	800031b8 <uip_unlisten+0x20>

0000000080003208 <uip_listen>:
    80003208:	00007797          	auipc	a5,0x7
    8000320c:	1a078923          	sb	zero,434(a5) # 8000a3ba <c>
    80003210:	00007717          	auipc	a4,0x7
    80003214:	d3870713          	addi	a4,a4,-712 # 80009f48 <uip_listenports>
    80003218:	00000793          	li	a5,0
    8000321c:	00000693          	li	a3,0
    80003220:	00070613          	mv	a2,a4
    80003224:	02800813          	li	a6,40
    80003228:	0ff7f893          	zext.b	a7,a5
    8000322c:	01079a63          	bne	a5,a6,80003240 <uip_listen+0x38>
    80003230:	00068663          	beqz	a3,8000323c <uip_listen+0x34>
    80003234:	00007717          	auipc	a4,0x7
    80003238:	18f70323          	sb	a5,390(a4) # 8000a3ba <c>
    8000323c:	00008067          	ret
    80003240:	00075303          	lhu	t1,0(a4)
    80003244:	0007859b          	sext.w	a1,a5
    80003248:	00270713          	addi	a4,a4,2
    8000324c:	0017879b          	addiw	a5,a5,1
    80003250:	02031063          	bnez	t1,80003270 <uip_listen+0x68>
    80003254:	00068663          	beqz	a3,80003260 <uip_listen+0x58>
    80003258:	00007797          	auipc	a5,0x7
    8000325c:	17178123          	sb	a7,354(a5) # 8000a3ba <c>
    80003260:	00159793          	slli	a5,a1,0x1
    80003264:	00f60633          	add	a2,a2,a5
    80003268:	00a61023          	sh	a0,0(a2)
    8000326c:	00008067          	ret
    80003270:	00100693          	li	a3,1
    80003274:	fb5ff06f          	j	80003228 <uip_listen+0x20>

0000000080003278 <uip_process>:
    80003278:	f9010113          	addi	sp,sp,-112
    8000327c:	06813023          	sd	s0,96(sp)
    80003280:	03713423          	sd	s7,40(sp)
    80003284:	06113423          	sd	ra,104(sp)
    80003288:	00007b97          	auipc	s7,0x7
    8000328c:	158b8b93          	addi	s7,s7,344 # 8000a3e0 <uip_conn>
    80003290:	04913c23          	sd	s1,88(sp)
    80003294:	05213823          	sd	s2,80(sp)
    80003298:	05313423          	sd	s3,72(sp)
    8000329c:	05413023          	sd	s4,64(sp)
    800032a0:	03513c23          	sd	s5,56(sp)
    800032a4:	03613823          	sd	s6,48(sp)
    800032a8:	03813023          	sd	s8,32(sp)
    800032ac:	01913c23          	sd	s9,24(sp)
    800032b0:	01a13823          	sd	s10,16(sp)
    800032b4:	01b13423          	sd	s11,8(sp)
    800032b8:	00400793          	li	a5,4
    800032bc:	000bb403          	ld	s0,0(s7)
    800032c0:	28f50263          	beq	a0,a5,80003544 <uip_process+0x2cc>
    800032c4:	00006797          	auipc	a5,0x6
    800032c8:	1da78793          	addi	a5,a5,474 # 8000949e <uip_buf+0x36>
    800032cc:	00007a97          	auipc	s5,0x7
    800032d0:	10ca8a93          	addi	s5,s5,268 # 8000a3d8 <uip_appdata>
    800032d4:	00007b17          	auipc	s6,0x7
    800032d8:	134b0b13          	addi	s6,s6,308 # 8000a408 <uip_sappdata>
    800032dc:	00fab023          	sd	a5,0(s5)
    800032e0:	00fb3023          	sd	a5,0(s6)
    800032e4:	00300793          	li	a5,3
    800032e8:	00006497          	auipc	s1,0x6
    800032ec:	18048493          	addi	s1,s1,384 # 80009468 <uip_buf>
    800032f0:	04f51663          	bne	a0,a5,8000333c <uip_process+0xc4>
    800032f4:	01944783          	lbu	a5,25(s0)
    800032f8:	00f7f793          	andi	a5,a5,15
    800032fc:	0ca79a63          	bne	a5,a0,800033d0 <uip_process+0x158>
    80003300:	01045783          	lhu	a5,16(s0)
    80003304:	0c079663          	bnez	a5,800033d0 <uip_process+0x158>
    80003308:	00800793          	li	a5,8
    8000330c:	00007717          	auipc	a4,0x7
    80003310:	0ef70523          	sb	a5,234(a4) # 8000a3f6 <uip_flags>
    80003314:	584010ef          	jal	ra,80004898 <dhcpc_appcall>
    80003318:	00007797          	auipc	a5,0x7
    8000331c:	0de7c783          	lbu	a5,222(a5) # 8000a3f6 <uip_flags>
    80003320:	0207f713          	andi	a4,a5,32
    80003324:	00071463          	bnez	a4,8000332c <uip_process+0xb4>
    80003328:	0080106f          	j	80004330 <uip_process+0x10b8>
    8000332c:	00007797          	auipc	a5,0x7
    80003330:	0e079223          	sh	zero,228(a5) # 8000a410 <uip_slen>
    80003334:	00040ca3          	sb	zero,25(s0)
    80003338:	0f40006f          	j	8000342c <uip_process+0x1b4>
    8000333c:	00200793          	li	a5,2
    80003340:	1af51a63          	bne	a0,a5,800034f4 <uip_process+0x27c>
    80003344:	00007797          	auipc	a5,0x7
    80003348:	08478793          	addi	a5,a5,132 # 8000a3c8 <iss>
    8000334c:	0037c703          	lbu	a4,3(a5)
    80003350:	0017071b          	addiw	a4,a4,1
    80003354:	0ff77713          	zext.b	a4,a4
    80003358:	00e781a3          	sb	a4,3(a5)
    8000335c:	02071c63          	bnez	a4,80003394 <uip_process+0x11c>
    80003360:	0027c703          	lbu	a4,2(a5)
    80003364:	0017071b          	addiw	a4,a4,1
    80003368:	0ff77713          	zext.b	a4,a4
    8000336c:	00e78123          	sb	a4,2(a5)
    80003370:	02071263          	bnez	a4,80003394 <uip_process+0x11c>
    80003374:	0017c703          	lbu	a4,1(a5)
    80003378:	0017071b          	addiw	a4,a4,1
    8000337c:	0ff77713          	zext.b	a4,a4
    80003380:	00e780a3          	sb	a4,1(a5)
    80003384:	00071863          	bnez	a4,80003394 <uip_process+0x11c>
    80003388:	0007c703          	lbu	a4,0(a5)
    8000338c:	0017071b          	addiw	a4,a4,1
    80003390:	00e78023          	sb	a4,0(a5)
    80003394:	00007797          	auipc	a5,0x7
    80003398:	06079423          	sh	zero,104(a5) # 8000a3fc <uip_len>
    8000339c:	00007797          	auipc	a5,0x7
    800033a0:	06079a23          	sh	zero,116(a5) # 8000a410 <uip_slen>
    800033a4:	01944783          	lbu	a5,25(s0)
    800033a8:	00500593          	li	a1,5
    800033ac:	0fd7f713          	andi	a4,a5,253
    800033b0:	02b71663          	bne	a4,a1,800033dc <uip_process+0x164>
    800033b4:	01a44783          	lbu	a5,26(s0)
    800033b8:	07800713          	li	a4,120
    800033bc:	0017879b          	addiw	a5,a5,1
    800033c0:	0ff7f793          	zext.b	a5,a5
    800033c4:	00f40d23          	sb	a5,26(s0)
    800033c8:	00e79463          	bne	a5,a4,800033d0 <uip_process+0x158>
    800033cc:	00040ca3          	sb	zero,25(s0)
    800033d0:	00007797          	auipc	a5,0x7
    800033d4:	02079623          	sh	zero,44(a5) # 8000a3fc <uip_len>
    800033d8:	55c0006f          	j	80003934 <uip_process+0x6bc>
    800033dc:	fe078ae3          	beqz	a5,800033d0 <uip_process+0x158>
    800033e0:	01045703          	lhu	a4,16(s0)
    800033e4:	10070063          	beqz	a4,800034e4 <uip_process+0x26c>
    800033e8:	01a44683          	lbu	a3,26(s0)
    800033ec:	fff6871b          	addiw	a4,a3,-1
    800033f0:	00e40d23          	sb	a4,26(s0)
    800033f4:	fc069ee3          	bnez	a3,800033d0 <uip_process+0x158>
    800033f8:	01b44703          	lbu	a4,27(s0)
    800033fc:	00800613          	li	a2,8
    80003400:	00c70c63          	beq	a4,a2,80003418 <uip_process+0x1a0>
    80003404:	fff7861b          	addiw	a2,a5,-1
    80003408:	0ff67613          	zext.b	a2,a2
    8000340c:	00100513          	li	a0,1
    80003410:	02c56263          	bltu	a0,a2,80003434 <uip_process+0x1bc>
    80003414:	02b71063          	bne	a4,a1,80003434 <uip_process+0x1bc>
    80003418:	f8000793          	li	a5,-128
    8000341c:	00040ca3          	sb	zero,25(s0)
    80003420:	00007717          	auipc	a4,0x7
    80003424:	fcf70b23          	sb	a5,-42(a4) # 8000a3f6 <uip_flags>
    80003428:	470010ef          	jal	ra,80004898 <dhcpc_appcall>
    8000342c:	01400793          	li	a5,20
    80003430:	6490006f          	j	80004278 <uip_process+0x1000>
    80003434:	00400613          	li	a2,4
    80003438:	00070593          	mv	a1,a4
    8000343c:	00e67463          	bgeu	a2,a4,80003444 <uip_process+0x1cc>
    80003440:	00400593          	li	a1,4
    80003444:	00300613          	li	a2,3
    80003448:	00b6163b          	sllw	a2,a2,a1
    8000344c:	0017071b          	addiw	a4,a4,1
    80003450:	00c40d23          	sb	a2,26(s0)
    80003454:	00e40da3          	sb	a4,27(s0)
    80003458:	00007617          	auipc	a2,0x7
    8000345c:	b4060613          	addi	a2,a2,-1216 # 80009f98 <uip_stat>
    80003460:	02665703          	lhu	a4,38(a2)
    80003464:	00f7f793          	andi	a5,a5,15
    80003468:	fff7879b          	addiw	a5,a5,-1
    8000346c:	0017071b          	addiw	a4,a4,1
    80003470:	02e61323          	sh	a4,38(a2)
    80003474:	0ff7f793          	zext.b	a5,a5
    80003478:	00700713          	li	a4,7
    8000347c:	f4f76ae3          	bltu	a4,a5,800033d0 <uip_process+0x158>
    80003480:	00006717          	auipc	a4,0x6
    80003484:	d9070713          	addi	a4,a4,-624 # 80009210 <pow10.0+0x218>
    80003488:	00279793          	slli	a5,a5,0x2
    8000348c:	00e787b3          	add	a5,a5,a4
    80003490:	0007a783          	lw	a5,0(a5)
    80003494:	00e787b3          	add	a5,a5,a4
    80003498:	00078067          	jr	a5
    8000349c:	00400793          	li	a5,4
    800034a0:	00007717          	auipc	a4,0x7
    800034a4:	f4f70b23          	sb	a5,-170(a4) # 8000a3f6 <uip_flags>
    800034a8:	3f0010ef          	jal	ra,80004898 <dhcpc_appcall>
    800034ac:	000b3783          	ld	a5,0(s6)
    800034b0:	00fab023          	sd	a5,0(s5)
    800034b4:	00007797          	auipc	a5,0x7
    800034b8:	f5c7d783          	lhu	a5,-164(a5) # 8000a410 <uip_slen>
    800034bc:	6c078ee3          	beqz	a5,80004398 <uip_process+0x1120>
    800034c0:	01045783          	lhu	a5,16(s0)
    800034c4:	6c078ae3          	beqz	a5,80004398 <uip_process+0x1120>
    800034c8:	0287879b          	addiw	a5,a5,40
    800034cc:	00007717          	auipc	a4,0x7
    800034d0:	f2f71823          	sh	a5,-208(a4) # 8000a3fc <uip_len>
    800034d4:	01800793          	li	a5,24
    800034d8:	02f487a3          	sb	a5,47(s1)
    800034dc:	05000793          	li	a5,80
    800034e0:	1790006f          	j	80003e58 <uip_process+0xbe0>
    800034e4:	00f7f793          	andi	a5,a5,15
    800034e8:	00300713          	li	a4,3
    800034ec:	eee792e3          	bne	a5,a4,800033d0 <uip_process+0x158>
    800034f0:	e19ff06f          	j	80003308 <uip_process+0x90>
    800034f4:	00500793          	li	a5,5
    800034f8:	18f51863          	bne	a0,a5,80003688 <uip_process+0x410>
    800034fc:	00007797          	auipc	a5,0x7
    80003500:	f1c7b783          	ld	a5,-228(a5) # 8000a418 <uip_udp_conn>
    80003504:	0047d783          	lhu	a5,4(a5)
    80003508:	ec0784e3          	beqz	a5,800033d0 <uip_process+0x158>
    8000350c:	00007797          	auipc	a5,0x7
    80003510:	ec07ba23          	sd	zero,-300(a5) # 8000a3e0 <uip_conn>
    80003514:	00006797          	auipc	a5,0x6
    80003518:	f7e78793          	addi	a5,a5,-130 # 80009492 <uip_buf+0x2a>
    8000351c:	00fab023          	sd	a5,0(s5)
    80003520:	00fb3023          	sd	a5,0(s6)
    80003524:	00007797          	auipc	a5,0x7
    80003528:	ee079623          	sh	zero,-276(a5) # 8000a410 <uip_slen>
    8000352c:	00007797          	auipc	a5,0x7
    80003530:	ec079823          	sh	zero,-304(a5) # 8000a3fc <uip_len>
    80003534:	00800793          	li	a5,8
    80003538:	00007717          	auipc	a4,0x7
    8000353c:	eaf70f23          	sb	a5,-322(a4) # 8000a3f6 <uip_flags>
    80003540:	358010ef          	jal	ra,80004898 <dhcpc_appcall>
    80003544:	00007797          	auipc	a5,0x7
    80003548:	ecc7d783          	lhu	a5,-308(a5) # 8000a410 <uip_slen>
    8000354c:	e80782e3          	beqz	a5,800033d0 <uip_process+0x158>
    80003550:	01c7871b          	addiw	a4,a5,28
    80003554:	03071713          	slli	a4,a4,0x30
    80003558:	03075713          	srli	a4,a4,0x30
    8000355c:	00007697          	auipc	a3,0x7
    80003560:	eae69023          	sh	a4,-352(a3) # 8000a3fc <uip_len>
    80003564:	0087169b          	slliw	a3,a4,0x8
    80003568:	0087571b          	srliw	a4,a4,0x8
    8000356c:	00006417          	auipc	s0,0x6
    80003570:	efc40413          	addi	s0,s0,-260 # 80009468 <uip_buf>
    80003574:	00e6e733          	or	a4,a3,a4
    80003578:	00e41823          	sh	a4,16(s0)
    8000357c:	00007717          	auipc	a4,0x7
    80003580:	e9c73703          	ld	a4,-356(a4) # 8000a418 <uip_udp_conn>
    80003584:	00874683          	lbu	a3,8(a4)
    80003588:	0087879b          	addiw	a5,a5,8
    8000358c:	00d40b23          	sb	a3,22(s0)
    80003590:	01100693          	li	a3,17
    80003594:	00d40ba3          	sb	a3,23(s0)
    80003598:	0087969b          	slliw	a3,a5,0x8
    8000359c:	0107979b          	slliw	a5,a5,0x10
    800035a0:	0107d79b          	srliw	a5,a5,0x10
    800035a4:	0087d79b          	srliw	a5,a5,0x8
    800035a8:	00f6e7b3          	or	a5,a3,a5
    800035ac:	02f41323          	sh	a5,38(s0)
    800035b0:	00006797          	auipc	a5,0x6
    800035b4:	ee079023          	sh	zero,-288(a5) # 80009490 <uip_buf+0x28>
    800035b8:	00475783          	lhu	a5,4(a4)
    800035bc:	02f41123          	sh	a5,34(s0)
    800035c0:	00675783          	lhu	a5,6(a4)
    800035c4:	02f41223          	sh	a5,36(s0)
    800035c8:	00007797          	auipc	a5,0x7
    800035cc:	e3078793          	addi	a5,a5,-464 # 8000a3f8 <uip_hostaddr>
    800035d0:	0007d683          	lhu	a3,0(a5)
    800035d4:	0027d783          	lhu	a5,2(a5)
    800035d8:	00d41d23          	sh	a3,26(s0)
    800035dc:	00f41e23          	sh	a5,28(s0)
    800035e0:	00075783          	lhu	a5,0(a4)
    800035e4:	00f41f23          	sh	a5,30(s0)
    800035e8:	00275783          	lhu	a5,2(a4)
    800035ec:	02f41023          	sh	a5,32(s0)
    800035f0:	00006797          	auipc	a5,0x6
    800035f4:	eae78793          	addi	a5,a5,-338 # 8000949e <uip_buf+0x36>
    800035f8:	00007717          	auipc	a4,0x7
    800035fc:	def73023          	sd	a5,-544(a4) # 8000a3d8 <uip_appdata>
    80003600:	881ff0ef          	jal	ra,80002e80 <uip_udpchksum>
    80003604:	fff54513          	not	a0,a0
    80003608:	03051513          	slli	a0,a0,0x30
    8000360c:	03055513          	srli	a0,a0,0x30
    80003610:	40050c63          	beqz	a0,80003a28 <uip_process+0x7b0>
    80003614:	02a41423          	sh	a0,40(s0)
    80003618:	00006417          	auipc	s0,0x6
    8000361c:	e5040413          	addi	s0,s0,-432 # 80009468 <uip_buf>
    80003620:	04500793          	li	a5,69
    80003624:	00f41723          	sh	a5,14(s0)
    80003628:	00007717          	auipc	a4,0x7
    8000362c:	d9e70713          	addi	a4,a4,-610 # 8000a3c6 <ipid>
    80003630:	00006797          	auipc	a5,0x6
    80003634:	e4079623          	sh	zero,-436(a5) # 8000947c <uip_buf+0x14>
    80003638:	00075783          	lhu	a5,0(a4)
    8000363c:	0017879b          	addiw	a5,a5,1
    80003640:	03079793          	slli	a5,a5,0x30
    80003644:	0307d793          	srli	a5,a5,0x30
    80003648:	00f71023          	sh	a5,0(a4)
    8000364c:	0087971b          	slliw	a4,a5,0x8
    80003650:	0087d79b          	srliw	a5,a5,0x8
    80003654:	00f767b3          	or	a5,a4,a5
    80003658:	00f41923          	sh	a5,18(s0)
    8000365c:	00006797          	auipc	a5,0x6
    80003660:	e2079223          	sh	zero,-476(a5) # 80009480 <uip_buf+0x18>
    80003664:	fc8ff0ef          	jal	ra,80002e2c <uip_ipchksum>
    80003668:	00007717          	auipc	a4,0x7
    8000366c:	93070713          	addi	a4,a4,-1744 # 80009f98 <uip_stat>
    80003670:	01e75783          	lhu	a5,30(a4)
    80003674:	fff54513          	not	a0,a0
    80003678:	00a41c23          	sh	a0,24(s0)
    8000367c:	0017879b          	addiw	a5,a5,1
    80003680:	00f71f23          	sh	a5,30(a4)
    80003684:	29c0006f          	j	80003920 <uip_process+0x6a8>
    80003688:	00007917          	auipc	s2,0x7
    8000368c:	91090913          	addi	s2,s2,-1776 # 80009f98 <uip_stat>
    80003690:	00295783          	lhu	a5,2(s2)
    80003694:	00e4c703          	lbu	a4,14(s1)
    80003698:	0017879b          	addiw	a5,a5,1
    8000369c:	00f91123          	sh	a5,2(s2)
    800036a0:	04500793          	li	a5,69
    800036a4:	02f70663          	beq	a4,a5,800036d0 <uip_process+0x458>
    800036a8:	00095783          	lhu	a5,0(s2)
    800036ac:	00006517          	auipc	a0,0x6
    800036b0:	9fc50513          	addi	a0,a0,-1540 # 800090a8 <pow10.0+0xb0>
    800036b4:	0017879b          	addiw	a5,a5,1
    800036b8:	00f91023          	sh	a5,0(s2)
    800036bc:	00695783          	lhu	a5,6(s2)
    800036c0:	0017879b          	addiw	a5,a5,1
    800036c4:	00f91323          	sh	a5,6(s2)
    800036c8:	9adfc0ef          	jal	ra,80000074 <uip_log>
    800036cc:	d05ff06f          	j	800033d0 <uip_process+0x158>
    800036d0:	0104ca03          	lbu	s4,16(s1)
    800036d4:	0114c783          	lbu	a5,17(s1)
    800036d8:	00007c97          	auipc	s9,0x7
    800036dc:	d24c8c93          	addi	s9,s9,-732 # 8000a3fc <uip_len>
    800036e0:	008a1a1b          	slliw	s4,s4,0x8
    800036e4:	00fa0a3b          	addw	s4,s4,a5
    800036e8:	000cd783          	lhu	a5,0(s9)
    800036ec:	000a071b          	sext.w	a4,s4
    800036f0:	04e7c463          	blt	a5,a4,80003738 <uip_process+0x4c0>
    800036f4:	0144c983          	lbu	s3,20(s1)
    800036f8:	0154c783          	lbu	a5,21(s1)
    800036fc:	030a1a13          	slli	s4,s4,0x30
    80003700:	030a5a13          	srli	s4,s4,0x30
    80003704:	03f9f993          	andi	s3,s3,63
    80003708:	014c9023          	sh	s4,0(s9)
    8000370c:	00f9e9b3          	or	s3,s3,a5
    80003710:	02098a63          	beqz	s3,80003744 <uip_process+0x4cc>
    80003714:	00095783          	lhu	a5,0(s2)
    80003718:	00006517          	auipc	a0,0x6
    8000371c:	9e850513          	addi	a0,a0,-1560 # 80009100 <pow10.0+0x108>
    80003720:	0017879b          	addiw	a5,a5,1
    80003724:	00f91023          	sh	a5,0(s2)
    80003728:	00c95783          	lhu	a5,12(s2)
    8000372c:	0017879b          	addiw	a5,a5,1
    80003730:	00f91623          	sh	a5,12(s2)
    80003734:	f95ff06f          	j	800036c8 <uip_process+0x450>
    80003738:	00006517          	auipc	a0,0x6
    8000373c:	99850513          	addi	a0,a0,-1640 # 800090d0 <pow10.0+0xd8>
    80003740:	f89ff06f          	j	800036c8 <uip_process+0x450>
    80003744:	00007c17          	auipc	s8,0x7
    80003748:	cb4c0c13          	addi	s8,s8,-844 # 8000a3f8 <uip_hostaddr>
    8000374c:	000c5d83          	lhu	s11,0(s8)
    80003750:	002c5d03          	lhu	s10,2(s8)
    80003754:	01ade7b3          	or	a5,s11,s10
    80003758:	02078263          	beqz	a5,8000377c <uip_process+0x504>
    8000375c:	01e4d783          	lhu	a5,30(s1)
    80003760:	01b79663          	bne	a5,s11,8000376c <uip_process+0x4f4>
    80003764:	0204d783          	lhu	a5,32(s1)
    80003768:	01a78a63          	beq	a5,s10,8000377c <uip_process+0x504>
    8000376c:	00095783          	lhu	a5,0(s2)
    80003770:	0017879b          	addiw	a5,a5,1
    80003774:	00f91023          	sh	a5,0(s2)
    80003778:	c59ff06f          	j	800033d0 <uip_process+0x158>
    8000377c:	eb0ff0ef          	jal	ra,80002e2c <uip_ipchksum>
    80003780:	00010737          	lui	a4,0x10
    80003784:	0005041b          	sext.w	s0,a0
    80003788:	fff70793          	addi	a5,a4,-1 # ffff <_start-0x7fff0001>
    8000378c:	02f40463          	beq	s0,a5,800037b4 <uip_process+0x53c>
    80003790:	00095783          	lhu	a5,0(s2)
    80003794:	00006517          	auipc	a0,0x6
    80003798:	98450513          	addi	a0,a0,-1660 # 80009118 <pow10.0+0x120>
    8000379c:	0017879b          	addiw	a5,a5,1
    800037a0:	00f91023          	sh	a5,0(s2)
    800037a4:	00e95783          	lhu	a5,14(s2)
    800037a8:	0017879b          	addiw	a5,a5,1
    800037ac:	00f91723          	sh	a5,14(s2)
    800037b0:	f19ff06f          	j	800036c8 <uip_process+0x450>
    800037b4:	0174c783          	lbu	a5,23(s1)
    800037b8:	00600693          	li	a3,6
    800037bc:	04d79063          	bne	a5,a3,800037fc <uip_process+0x584>
    800037c0:	01c95783          	lhu	a5,28(s2)
    800037c4:	0017879b          	addiw	a5,a5,1
    800037c8:	00f91e23          	sh	a5,28(s2)
    800037cc:	eacff0ef          	jal	ra,80002e78 <uip_tcpchksum>
    800037d0:	0005051b          	sext.w	a0,a0
    800037d4:	26850063          	beq	a0,s0,80003a34 <uip_process+0x7bc>
    800037d8:	01a95783          	lhu	a5,26(s2)
    800037dc:	00006517          	auipc	a0,0x6
    800037e0:	9cc50513          	addi	a0,a0,-1588 # 800091a8 <pow10.0+0x1b0>
    800037e4:	0017879b          	addiw	a5,a5,1
    800037e8:	00f91d23          	sh	a5,26(s2)
    800037ec:	02095783          	lhu	a5,32(s2)
    800037f0:	0017879b          	addiw	a5,a5,1
    800037f4:	02f91023          	sh	a5,32(s2)
    800037f8:	ed1ff06f          	j	800036c8 <uip_process+0x450>
    800037fc:	01100693          	li	a3,17
    80003800:	06d79863          	bne	a5,a3,80003870 <uip_process+0x5f8>
    80003804:	0284d783          	lhu	a5,40(s1)
    80003808:	fe4a0a1b          	addiw	s4,s4,-28
    8000380c:	00006997          	auipc	s3,0x6
    80003810:	c8698993          	addi	s3,s3,-890 # 80009492 <uip_buf+0x2a>
    80003814:	014c9023          	sh	s4,0(s9)
    80003818:	013ab023          	sd	s3,0(s5)
    8000381c:	16079263          	bnez	a5,80003980 <uip_process+0x708>
    80003820:	0244d803          	lhu	a6,36(s1)
    80003824:	01a4d883          	lhu	a7,26(s1)
    80003828:	01c4d303          	lhu	t1,28(s1)
    8000382c:	0224de03          	lhu	t3,34(s1)
    80003830:	00007717          	auipc	a4,0x7
    80003834:	be870713          	addi	a4,a4,-1048 # 8000a418 <uip_udp_conn>
    80003838:	00006797          	auipc	a5,0x6
    8000383c:	79878793          	addi	a5,a5,1944 # 80009fd0 <uip_udp_conns>
    80003840:	00010637          	lui	a2,0x10
    80003844:	00f73023          	sd	a5,0(a4)
    80003848:	00007517          	auipc	a0,0x7
    8000384c:	af850513          	addi	a0,a0,-1288 # 8000a340 <s>
    80003850:	00000693          	li	a3,0
    80003854:	fff60613          	addi	a2,a2,-1 # ffff <_start-0x7fff0001>
    80003858:	14f51c63          	bne	a0,a5,800039b0 <uip_process+0x738>
    8000385c:	00068463          	beqz	a3,80003864 <uip_process+0x5ec>
    80003860:	00a73023          	sd	a0,0(a4)
    80003864:	00006517          	auipc	a0,0x6
    80003868:	91c50513          	addi	a0,a0,-1764 # 80009180 <pow10.0+0x188>
    8000386c:	e5dff06f          	j	800036c8 <uip_process+0x450>
    80003870:	00100693          	li	a3,1
    80003874:	02d78463          	beq	a5,a3,8000389c <uip_process+0x624>
    80003878:	00095783          	lhu	a5,0(s2)
    8000387c:	00006517          	auipc	a0,0x6
    80003880:	8b450513          	addi	a0,a0,-1868 # 80009130 <pow10.0+0x138>
    80003884:	0017879b          	addiw	a5,a5,1
    80003888:	00f91023          	sh	a5,0(s2)
    8000388c:	01095783          	lhu	a5,16(s2)
    80003890:	0017879b          	addiw	a5,a5,1
    80003894:	00f91823          	sh	a5,16(s2)
    80003898:	e31ff06f          	j	800036c8 <uip_process+0x450>
    8000389c:	01495783          	lhu	a5,20(s2)
    800038a0:	0224c683          	lbu	a3,34(s1)
    800038a4:	0017879b          	addiw	a5,a5,1
    800038a8:	00f91a23          	sh	a5,20(s2)
    800038ac:	00800793          	li	a5,8
    800038b0:	02f68463          	beq	a3,a5,800038d8 <uip_process+0x660>
    800038b4:	01295783          	lhu	a5,18(s2)
    800038b8:	00006517          	auipc	a0,0x6
    800038bc:	89850513          	addi	a0,a0,-1896 # 80009150 <pow10.0+0x158>
    800038c0:	0017879b          	addiw	a5,a5,1
    800038c4:	00f91923          	sh	a5,18(s2)
    800038c8:	01895783          	lhu	a5,24(s2)
    800038cc:	0017879b          	addiw	a5,a5,1
    800038d0:	00f91c23          	sh	a5,24(s2)
    800038d4:	df5ff06f          	j	800036c8 <uip_process+0x450>
    800038d8:	00006797          	auipc	a5,0x6
    800038dc:	ba078923          	sb	zero,-1102(a5) # 8000948a <uip_buf+0x22>
    800038e0:	0244d783          	lhu	a5,36(s1)
    800038e4:	ff670713          	addi	a4,a4,-10
    800038e8:	08f77863          	bgeu	a4,a5,80003978 <uip_process+0x700>
    800038ec:	0097879b          	addiw	a5,a5,9
    800038f0:	03079793          	slli	a5,a5,0x30
    800038f4:	0307d793          	srli	a5,a5,0x30
    800038f8:	02f49223          	sh	a5,36(s1)
    800038fc:	01a4d783          	lhu	a5,26(s1)
    80003900:	01b49d23          	sh	s11,26(s1)
    80003904:	00f49f23          	sh	a5,30(s1)
    80003908:	01c4d783          	lhu	a5,28(s1)
    8000390c:	01a49e23          	sh	s10,28(s1)
    80003910:	02f49023          	sh	a5,32(s1)
    80003914:	01695783          	lhu	a5,22(s2)
    80003918:	0017879b          	addiw	a5,a5,1
    8000391c:	00f91b23          	sh	a5,22(s2)
    80003920:	00006717          	auipc	a4,0x6
    80003924:	67870713          	addi	a4,a4,1656 # 80009f98 <uip_stat>
    80003928:	00475783          	lhu	a5,4(a4)
    8000392c:	0017879b          	addiw	a5,a5,1
    80003930:	00f71223          	sh	a5,4(a4)
    80003934:	06813083          	ld	ra,104(sp)
    80003938:	06013403          	ld	s0,96(sp)
    8000393c:	00007797          	auipc	a5,0x7
    80003940:	aa078d23          	sb	zero,-1350(a5) # 8000a3f6 <uip_flags>
    80003944:	05813483          	ld	s1,88(sp)
    80003948:	05013903          	ld	s2,80(sp)
    8000394c:	04813983          	ld	s3,72(sp)
    80003950:	04013a03          	ld	s4,64(sp)
    80003954:	03813a83          	ld	s5,56(sp)
    80003958:	03013b03          	ld	s6,48(sp)
    8000395c:	02813b83          	ld	s7,40(sp)
    80003960:	02013c03          	ld	s8,32(sp)
    80003964:	01813c83          	ld	s9,24(sp)
    80003968:	01013d03          	ld	s10,16(sp)
    8000396c:	00813d83          	ld	s11,8(sp)
    80003970:	07010113          	addi	sp,sp,112
    80003974:	00008067          	ret
    80003978:	0087879b          	addiw	a5,a5,8
    8000397c:	f75ff06f          	j	800038f0 <uip_process+0x678>
    80003980:	d00ff0ef          	jal	ra,80002e80 <uip_udpchksum>
    80003984:	0005051b          	sext.w	a0,a0
    80003988:	e8850ce3          	beq	a0,s0,80003820 <uip_process+0x5a8>
    8000398c:	02c95783          	lhu	a5,44(s2)
    80003990:	00005517          	auipc	a0,0x5
    80003994:	7d850513          	addi	a0,a0,2008 # 80009168 <pow10.0+0x170>
    80003998:	0017879b          	addiw	a5,a5,1
    8000399c:	02f91623          	sh	a5,44(s2)
    800039a0:	03295783          	lhu	a5,50(s2)
    800039a4:	0017879b          	addiw	a5,a5,1
    800039a8:	02f91923          	sh	a5,50(s2)
    800039ac:	d1dff06f          	j	800036c8 <uip_process+0x450>
    800039b0:	0047d583          	lhu	a1,4(a5)
    800039b4:	06058463          	beqz	a1,80003a1c <uip_process+0x7a4>
    800039b8:	07059263          	bne	a1,a6,80003a1c <uip_process+0x7a4>
    800039bc:	0067d583          	lhu	a1,6(a5)
    800039c0:	00058463          	beqz	a1,800039c8 <uip_process+0x750>
    800039c4:	05c59c63          	bne	a1,t3,80003a1c <uip_process+0x7a4>
    800039c8:	0007d583          	lhu	a1,0(a5)
    800039cc:	02059c63          	bnez	a1,80003a04 <uip_process+0x78c>
    800039d0:	0027de83          	lhu	t4,2(a5)
    800039d4:	020e9e63          	bnez	t4,80003a10 <uip_process+0x798>
    800039d8:	00068463          	beqz	a3,800039e0 <uip_process+0x768>
    800039dc:	00f73023          	sd	a5,0(a4)
    800039e0:	00007797          	auipc	a5,0x7
    800039e4:	a007b023          	sd	zero,-1536(a5) # 8000a3e0 <uip_conn>
    800039e8:	00200793          	li	a5,2
    800039ec:	00007717          	auipc	a4,0x7
    800039f0:	a0f70523          	sb	a5,-1526(a4) # 8000a3f6 <uip_flags>
    800039f4:	013b3023          	sd	s3,0(s6)
    800039f8:	00007797          	auipc	a5,0x7
    800039fc:	a0079c23          	sh	zero,-1512(a5) # 8000a410 <uip_slen>
    80003a00:	b41ff06f          	j	80003540 <uip_process+0x2c8>
    80003a04:	00c59663          	bne	a1,a2,80003a10 <uip_process+0x798>
    80003a08:	0027de83          	lhu	t4,2(a5)
    80003a0c:	fcce86e3          	beq	t4,a2,800039d8 <uip_process+0x760>
    80003a10:	01159663          	bne	a1,a7,80003a1c <uip_process+0x7a4>
    80003a14:	0027d583          	lhu	a1,2(a5)
    80003a18:	fc6580e3          	beq	a1,t1,800039d8 <uip_process+0x760>
    80003a1c:	05878793          	addi	a5,a5,88
    80003a20:	00100693          	li	a3,1
    80003a24:	e35ff06f          	j	80003858 <uip_process+0x5e0>
    80003a28:	fff00793          	li	a5,-1
    80003a2c:	02f41423          	sh	a5,40(s0)
    80003a30:	be9ff06f          	j	80003618 <uip_process+0x3a0>
    80003a34:	0244d603          	lhu	a2,36(s1)
    80003a38:	0224d303          	lhu	t1,34(s1)
    80003a3c:	01a4d883          	lhu	a7,26(s1)
    80003a40:	01c4d803          	lhu	a6,28(s1)
    80003a44:	00006417          	auipc	s0,0x6
    80003a48:	00440413          	addi	s0,s0,4 # 80009a48 <uip_conns>
    80003a4c:	00040e13          	mv	t3,s0
    80003a50:	0006071b          	sext.w	a4,a2
    80003a54:	0003059b          	sext.w	a1,t1
    80003a58:	0008851b          	sext.w	a0,a7
    80003a5c:	00080e9b          	sext.w	t4,a6
    80003a60:	00006797          	auipc	a5,0x6
    80003a64:	4e878793          	addi	a5,a5,1256 # 80009f48 <uip_listenports>
    80003a68:	01944683          	lbu	a3,25(s0)
    80003a6c:	06068263          	beqz	a3,80003ad0 <uip_process+0x858>
    80003a70:	00445f03          	lhu	t5,4(s0)
    80003a74:	04ef1e63          	bne	t5,a4,80003ad0 <uip_process+0x858>
    80003a78:	00645f03          	lhu	t5,6(s0)
    80003a7c:	04bf1a63          	bne	t5,a1,80003ad0 <uip_process+0x858>
    80003a80:	00045f03          	lhu	t5,0(s0)
    80003a84:	04af1663          	bne	t5,a0,80003ad0 <uip_process+0x858>
    80003a88:	00245f03          	lhu	t5,2(s0)
    80003a8c:	05df1263          	bne	t5,t4,80003ad0 <uip_process+0x858>
    80003a90:	02f4c703          	lbu	a4,47(s1)
    80003a94:	008bb023          	sd	s0,0(s7)
    80003a98:	00007797          	auipc	a5,0x7
    80003a9c:	94078f23          	sb	zero,-1698(a5) # 8000a3f6 <uip_flags>
    80003aa0:	00477d13          	andi	s10,a4,4
    80003aa4:	00007997          	auipc	s3,0x7
    80003aa8:	95298993          	addi	s3,s3,-1710 # 8000a3f6 <uip_flags>
    80003aac:	440d0c63          	beqz	s10,80003f04 <uip_process+0xc8c>
    80003ab0:	00040ca3          	sb	zero,25(s0)
    80003ab4:	00005517          	auipc	a0,0x5
    80003ab8:	73450513          	addi	a0,a0,1844 # 800091e8 <pow10.0+0x1f0>
    80003abc:	db8fc0ef          	jal	ra,80000074 <uip_log>
    80003ac0:	02000793          	li	a5,32
    80003ac4:	00f98023          	sb	a5,0(s3)
    80003ac8:	5d1000ef          	jal	ra,80004898 <dhcpc_appcall>
    80003acc:	905ff06f          	j	800033d0 <uip_process+0x158>
    80003ad0:	02040413          	addi	s0,s0,32
    80003ad4:	f8f41ae3          	bne	s0,a5,80003a68 <uip_process+0x7f0>
    80003ad8:	02f4c783          	lbu	a5,47(s1)
    80003adc:	00200713          	li	a4,2
    80003ae0:	03f7f793          	andi	a5,a5,63
    80003ae4:	04e79663          	bne	a5,a4,80003b30 <uip_process+0x8b8>
    80003ae8:	00007a17          	auipc	s4,0x7
    80003aec:	8e6a0a13          	addi	s4,s4,-1818 # 8000a3ce <tmp16>
    80003af0:	00007797          	auipc	a5,0x7
    80003af4:	8c078523          	sb	zero,-1846(a5) # 8000a3ba <c>
    80003af8:	00ca1023          	sh	a2,0(s4)
    80003afc:	00006717          	auipc	a4,0x6
    80003b00:	44c70713          	addi	a4,a4,1100 # 80009f48 <uip_listenports>
    80003b04:	00000793          	li	a5,0
    80003b08:	00000693          	li	a3,0
    80003b0c:	02800593          	li	a1,40
    80003b10:	0006051b          	sext.w	a0,a2
    80003b14:	12b79a63          	bne	a5,a1,80003c48 <uip_process+0x9d0>
    80003b18:	00068663          	beqz	a3,80003b24 <uip_process+0x8ac>
    80003b1c:	00007717          	auipc	a4,0x7
    80003b20:	88f70f23          	sb	a5,-1890(a4) # 8000a3ba <c>
    80003b24:	02a95783          	lhu	a5,42(s2)
    80003b28:	0017879b          	addiw	a5,a5,1
    80003b2c:	02f91523          	sh	a5,42(s2)
    80003b30:	02f4c783          	lbu	a5,47(s1)
    80003b34:	0047f793          	andi	a5,a5,4
    80003b38:	88079ce3          	bnez	a5,800033d0 <uip_process+0x158>
    80003b3c:	02495783          	lhu	a5,36(s2)
    80003b40:	02b4c603          	lbu	a2,43(s1)
    80003b44:	0294c683          	lbu	a3,41(s1)
    80003b48:	0017879b          	addiw	a5,a5,1
    80003b4c:	02f91223          	sh	a5,36(s2)
    80003b50:	02800793          	li	a5,40
    80003b54:	00fc9023          	sh	a5,0(s9)
    80003b58:	000017b7          	lui	a5,0x1
    80003b5c:	45078793          	addi	a5,a5,1104 # 1450 <_start-0x7fffebb0>
    80003b60:	02f49723          	sh	a5,46(s1)
    80003b64:	02c4d783          	lhu	a5,44(s1)
    80003b68:	0284c703          	lbu	a4,40(s1)
    80003b6c:	0016869b          	addiw	a3,a3,1
    80003b70:	02f49423          	sh	a5,40(s1)
    80003b74:	0274c783          	lbu	a5,39(s1)
    80003b78:	02c483a3          	sb	a2,39(s1)
    80003b7c:	0264c603          	lbu	a2,38(s1)
    80003b80:	0ff6f693          	zext.b	a3,a3
    80003b84:	02e48623          	sb	a4,44(s1)
    80003b88:	00007597          	auipc	a1,0x7
    80003b8c:	82c58923          	sb	a2,-1998(a1) # 8000a3ba <c>
    80003b90:	02a4c583          	lbu	a1,42(s1)
    80003b94:	02f485a3          	sb	a5,43(s1)
    80003b98:	02c48523          	sb	a2,42(s1)
    80003b9c:	02b48323          	sb	a1,38(s1)
    80003ba0:	02d486a3          	sb	a3,45(s1)
    80003ba4:	02069663          	bnez	a3,80003bd0 <uip_process+0x958>
    80003ba8:	0017071b          	addiw	a4,a4,1
    80003bac:	0ff77713          	zext.b	a4,a4
    80003bb0:	02e48623          	sb	a4,44(s1)
    80003bb4:	00071e63          	bnez	a4,80003bd0 <uip_process+0x958>
    80003bb8:	0017879b          	addiw	a5,a5,1
    80003bbc:	0ff7f793          	zext.b	a5,a5
    80003bc0:	02f485a3          	sb	a5,43(s1)
    80003bc4:	00079663          	bnez	a5,80003bd0 <uip_process+0x958>
    80003bc8:	0016061b          	addiw	a2,a2,1
    80003bcc:	02c48523          	sb	a2,42(s1)
    80003bd0:	0224d783          	lhu	a5,34(s1)
    80003bd4:	00006717          	auipc	a4,0x6
    80003bd8:	7ef71d23          	sh	a5,2042(a4) # 8000a3ce <tmp16>
    80003bdc:	0244d703          	lhu	a4,36(s1)
    80003be0:	02f49223          	sh	a5,36(s1)
    80003be4:	01a4d783          	lhu	a5,26(s1)
    80003be8:	02e49123          	sh	a4,34(s1)
    80003bec:	00f49f23          	sh	a5,30(s1)
    80003bf0:	01c4d783          	lhu	a5,28(s1)
    80003bf4:	02f49023          	sh	a5,32(s1)
    80003bf8:	000c5783          	lhu	a5,0(s8)
    80003bfc:	00f49d23          	sh	a5,26(s1)
    80003c00:	002c5783          	lhu	a5,2(s8)
    80003c04:	00f49e23          	sh	a5,28(s1)
    80003c08:	04000793          	li	a5,64
    80003c0c:	00f48b23          	sb	a5,22(s1)
    80003c10:	00006797          	auipc	a5,0x6
    80003c14:	7ec7d783          	lhu	a5,2028(a5) # 8000a3fc <uip_len>
    80003c18:	0087971b          	slliw	a4,a5,0x8
    80003c1c:	0087d793          	srli	a5,a5,0x8
    80003c20:	00e7e7b3          	or	a5,a5,a4
    80003c24:	00f49823          	sh	a5,16(s1)
    80003c28:	00006797          	auipc	a5,0x6
    80003c2c:	86079923          	sh	zero,-1934(a5) # 8000949a <uip_buf+0x32>
    80003c30:	00006797          	auipc	a5,0x6
    80003c34:	86079623          	sh	zero,-1940(a5) # 8000949c <uip_buf+0x34>
    80003c38:	a40ff0ef          	jal	ra,80002e78 <uip_tcpchksum>
    80003c3c:	fff54513          	not	a0,a0
    80003c40:	02a49923          	sh	a0,50(s1)
    80003c44:	9d5ff06f          	j	80003618 <uip_process+0x3a0>
    80003c48:	00075e83          	lhu	t4,0(a4)
    80003c4c:	0017879b          	addiw	a5,a5,1
    80003c50:	00270713          	addi	a4,a4,2
    80003c54:	00100693          	li	a3,1
    80003c58:	ebd51ee3          	bne	a0,t4,80003b14 <uip_process+0x89c>
    80003c5c:	00006797          	auipc	a5,0x6
    80003c60:	74078f23          	sb	zero,1886(a5) # 8000a3ba <c>
    80003c64:	00006717          	auipc	a4,0x6
    80003c68:	de470713          	addi	a4,a4,-540 # 80009a48 <uip_conns>
    80003c6c:	00000793          	li	a5,0
    80003c70:	00000693          	li	a3,0
    80003c74:	00000413          	li	s0,0
    80003c78:	02800f13          	li	t5,40
    80003c7c:	00700293          	li	t0,7
    80003c80:	0ff7ff93          	zext.b	t6,a5
    80003c84:	03e79663          	bne	a5,t5,80003cb0 <uip_process+0xa38>
    80003c88:	00068663          	beqz	a3,80003c94 <uip_process+0xa1c>
    80003c8c:	00006717          	auipc	a4,0x6
    80003c90:	72f70723          	sb	a5,1838(a4) # 8000a3ba <c>
    80003c94:	04041063          	bnez	s0,80003cd4 <uip_process+0xa5c>
    80003c98:	02895783          	lhu	a5,40(s2)
    80003c9c:	00005517          	auipc	a0,0x5
    80003ca0:	52450513          	addi	a0,a0,1316 # 800091c0 <pow10.0+0x1c8>
    80003ca4:	0017879b          	addiw	a5,a5,1
    80003ca8:	02f91423          	sh	a5,40(s2)
    80003cac:	a1dff06f          	j	800036c8 <uip_process+0x450>
    80003cb0:	01974e83          	lbu	t4,25(a4)
    80003cb4:	0007851b          	sext.w	a0,a5
    80003cb8:	00070593          	mv	a1,a4
    80003cbc:	0c0e9463          	bnez	t4,80003d84 <uip_process+0xb0c>
    80003cc0:	00068663          	beqz	a3,80003ccc <uip_process+0xa54>
    80003cc4:	00006797          	auipc	a5,0x6
    80003cc8:	6ff78b23          	sb	t6,1782(a5) # 8000a3ba <c>
    80003ccc:	00551793          	slli	a5,a0,0x5
    80003cd0:	00fe0433          	add	s0,t3,a5
    80003cd4:	40000793          	li	a5,1024
    80003cd8:	00f41b23          	sh	a5,22(s0)
    80003cdc:	000307b7          	lui	a5,0x30
    80003ce0:	10378793          	addi	a5,a5,259 # 30103 <_start-0x7ffcfefd>
    80003ce4:	00f42c23          	sw	a5,24(s0)
    80003ce8:	00006797          	auipc	a5,0x6
    80003cec:	6e07a783          	lw	a5,1760(a5) # 8000a3c8 <iss>
    80003cf0:	00f42623          	sw	a5,12(s0)
    80003cf4:	00100793          	li	a5,1
    80003cf8:	00f41823          	sh	a5,16(s0)
    80003cfc:	0264d783          	lhu	a5,38(s1)
    80003d00:	00c41223          	sh	a2,4(s0)
    80003d04:	00641323          	sh	t1,6(s0)
    80003d08:	00f41423          	sh	a5,8(s0)
    80003d0c:	0284d783          	lhu	a5,40(s1)
    80003d10:	01141023          	sh	a7,0(s0)
    80003d14:	01041123          	sh	a6,2(s0)
    80003d18:	00f41523          	sh	a5,10(s0)
    80003d1c:	00100513          	li	a0,1
    80003d20:	008bb023          	sd	s0,0(s7)
    80003d24:	88cff0ef          	jal	ra,80002db0 <uip_add_rcv_nxt>
    80003d28:	02e4c783          	lbu	a5,46(s1)
    80003d2c:	05000713          	li	a4,80
    80003d30:	0f07f693          	andi	a3,a5,240
    80003d34:	0ed77a63          	bgeu	a4,a3,80003e28 <uip_process+0xbb0>
    80003d38:	0047d79b          	srliw	a5,a5,0x4
    80003d3c:	ffb7879b          	addiw	a5,a5,-5
    80003d40:	00006717          	auipc	a4,0x6
    80003d44:	66070d23          	sb	zero,1658(a4) # 8000a3ba <c>
    80003d48:	0027979b          	slliw	a5,a5,0x2
    80003d4c:	00000693          	li	a3,0
    80003d50:	00100513          	li	a0,1
    80003d54:	00200813          	li	a6,2
    80003d58:	00400893          	li	a7,4
    80003d5c:	0009871b          	sext.w	a4,s3
    80003d60:	00f9da63          	bge	s3,a5,80003d74 <uip_process+0xafc>
    80003d64:	0367061b          	addiw	a2,a4,54
    80003d68:	00c48633          	add	a2,s1,a2
    80003d6c:	00064583          	lbu	a1,0(a2)
    80003d70:	04059063          	bnez	a1,80003db0 <uip_process+0xb38>
    80003d74:	0a068a63          	beqz	a3,80003e28 <uip_process+0xbb0>
    80003d78:	00006797          	auipc	a5,0x6
    80003d7c:	65378123          	sb	s3,1602(a5) # 8000a3ba <c>
    80003d80:	0a80006f          	j	80003e28 <uip_process+0xbb0>
    80003d84:	005e9a63          	bne	t4,t0,80003d98 <uip_process+0xb20>
    80003d88:	00040a63          	beqz	s0,80003d9c <uip_process+0xb24>
    80003d8c:	01a74503          	lbu	a0,26(a4)
    80003d90:	01a44683          	lbu	a3,26(s0)
    80003d94:	00a6e463          	bltu	a3,a0,80003d9c <uip_process+0xb24>
    80003d98:	00040593          	mv	a1,s0
    80003d9c:	0017879b          	addiw	a5,a5,1
    80003da0:	02070713          	addi	a4,a4,32
    80003da4:	00058413          	mv	s0,a1
    80003da8:	00100693          	li	a3,1
    80003dac:	ed5ff06f          	j	80003c80 <uip_process+0xa08>
    80003db0:	00a59a63          	bne	a1,a0,80003dc4 <uip_process+0xb4c>
    80003db4:	0019899b          	addiw	s3,s3,1
    80003db8:	0ff9f993          	zext.b	s3,s3
    80003dbc:	00100693          	li	a3,1
    80003dc0:	f9dff06f          	j	80003d5c <uip_process+0xae4>
    80003dc4:	0377061b          	addiw	a2,a4,55
    80003dc8:	00c48633          	add	a2,s1,a2
    80003dcc:	00064603          	lbu	a2,0(a2)
    80003dd0:	13059263          	bne	a1,a6,80003ef4 <uip_process+0xc7c>
    80003dd4:	13161063          	bne	a2,a7,80003ef4 <uip_process+0xc7c>
    80003dd8:	00068663          	beqz	a3,80003de4 <uip_process+0xb6c>
    80003ddc:	00006797          	auipc	a5,0x6
    80003de0:	5d378f23          	sb	s3,1502(a5) # 8000a3ba <c>
    80003de4:	0387079b          	addiw	a5,a4,56
    80003de8:	00f487b3          	add	a5,s1,a5
    80003dec:	0397071b          	addiw	a4,a4,57
    80003df0:	0007c783          	lbu	a5,0(a5)
    80003df4:	00e48733          	add	a4,s1,a4
    80003df8:	00074703          	lbu	a4,0(a4)
    80003dfc:	0087979b          	slliw	a5,a5,0x8
    80003e00:	5a600693          	li	a3,1446
    80003e04:	00e7e7b3          	or	a5,a5,a4
    80003e08:	03079793          	slli	a5,a5,0x30
    80003e0c:	0307d793          	srli	a5,a5,0x30
    80003e10:	00fa1023          	sh	a5,0(s4)
    80003e14:	00078713          	mv	a4,a5
    80003e18:	00f6f463          	bgeu	a3,a5,80003e20 <uip_process+0xba8>
    80003e1c:	5a600713          	li	a4,1446
    80003e20:	00e41923          	sh	a4,18(s0)
    80003e24:	00e41a23          	sh	a4,20(s0)
    80003e28:	01000693          	li	a3,16
    80003e2c:	40200793          	li	a5,1026
    80003e30:	02f49b23          	sh	a5,54(s1)
    80003e34:	ffffa7b7          	lui	a5,0xffffa
    80003e38:	60578793          	addi	a5,a5,1541 # ffffffffffffa605 <__stack_end+0xffffffff7fefa605>
    80003e3c:	0026e693          	ori	a3,a3,2
    80003e40:	02f49c23          	sh	a5,56(s1)
    80003e44:	02c00793          	li	a5,44
    80003e48:	00006717          	auipc	a4,0x6
    80003e4c:	5af71a23          	sh	a5,1460(a4) # 8000a3fc <uip_len>
    80003e50:	02d487a3          	sb	a3,47(s1)
    80003e54:	06000793          	li	a5,96
    80003e58:	02f48723          	sb	a5,46(s1)
    80003e5c:	00844783          	lbu	a5,8(s0)
    80003e60:	02f48523          	sb	a5,42(s1)
    80003e64:	00944783          	lbu	a5,9(s0)
    80003e68:	02f485a3          	sb	a5,43(s1)
    80003e6c:	00a44783          	lbu	a5,10(s0)
    80003e70:	02f48623          	sb	a5,44(s1)
    80003e74:	00b44783          	lbu	a5,11(s0)
    80003e78:	02f486a3          	sb	a5,45(s1)
    80003e7c:	00c44783          	lbu	a5,12(s0)
    80003e80:	02f48323          	sb	a5,38(s1)
    80003e84:	00d44783          	lbu	a5,13(s0)
    80003e88:	02f483a3          	sb	a5,39(s1)
    80003e8c:	00e44783          	lbu	a5,14(s0)
    80003e90:	02f48423          	sb	a5,40(s1)
    80003e94:	00f44783          	lbu	a5,15(s0)
    80003e98:	02f484a3          	sb	a5,41(s1)
    80003e9c:	00600793          	li	a5,6
    80003ea0:	00f48ba3          	sb	a5,23(s1)
    80003ea4:	00445783          	lhu	a5,4(s0)
    80003ea8:	02f49123          	sh	a5,34(s1)
    80003eac:	00645783          	lhu	a5,6(s0)
    80003eb0:	02f49223          	sh	a5,36(s1)
    80003eb4:	00006797          	auipc	a5,0x6
    80003eb8:	54478793          	addi	a5,a5,1348 # 8000a3f8 <uip_hostaddr>
    80003ebc:	0007d703          	lhu	a4,0(a5)
    80003ec0:	0027d783          	lhu	a5,2(a5)
    80003ec4:	00e49d23          	sh	a4,26(s1)
    80003ec8:	00f49e23          	sh	a5,28(s1)
    80003ecc:	00045783          	lhu	a5,0(s0)
    80003ed0:	00f49f23          	sh	a5,30(s1)
    80003ed4:	00245783          	lhu	a5,2(s0)
    80003ed8:	02f49023          	sh	a5,32(s1)
    80003edc:	01944783          	lbu	a5,25(s0)
    80003ee0:	0107f793          	andi	a5,a5,16
    80003ee4:	5a078e63          	beqz	a5,800044a0 <uip_process+0x1228>
    80003ee8:	00005797          	auipc	a5,0x5
    80003eec:	5a079823          	sh	zero,1456(a5) # 80009498 <uip_buf+0x30>
    80003ef0:	d19ff06f          	j	80003c08 <uip_process+0x990>
    80003ef4:	e80600e3          	beqz	a2,80003d74 <uip_process+0xafc>
    80003ef8:	00c9863b          	addw	a2,s3,a2
    80003efc:	0ff67993          	zext.b	s3,a2
    80003f00:	ebdff06f          	j	80003dbc <uip_process+0xb44>
    80003f04:	02e4c783          	lbu	a5,46(s1)
    80003f08:	feca0a1b          	addiw	s4,s4,-20
    80003f0c:	00006d97          	auipc	s11,0x6
    80003f10:	4aed8d93          	addi	s11,s11,1198 # 8000a3ba <c>
    80003f14:	0047d79b          	srliw	a5,a5,0x4
    80003f18:	0027979b          	slliw	a5,a5,0x2
    80003f1c:	0ff7f793          	zext.b	a5,a5
    80003f20:	40fa0a3b          	subw	s4,s4,a5
    80003f24:	030a1a13          	slli	s4,s4,0x30
    80003f28:	030a5a13          	srli	s4,s4,0x30
    80003f2c:	00fd8023          	sb	a5,0(s11)
    80003f30:	014c9023          	sh	s4,0(s9)
    80003f34:	00f6f693          	andi	a3,a3,15
    80003f38:	00200793          	li	a5,2
    80003f3c:	00f69863          	bne	a3,a5,80003f4c <uip_process+0xcd4>
    80003f40:	03f77793          	andi	a5,a4,63
    80003f44:	01200693          	li	a3,18
    80003f48:	02d78463          	beq	a5,a3,80003f70 <uip_process+0xcf8>
    80003f4c:	000a1663          	bnez	s4,80003f58 <uip_process+0xce0>
    80003f50:	00377793          	andi	a5,a4,3
    80003f54:	00078e63          	beqz	a5,80003f70 <uip_process+0xcf8>
    80003f58:	0264d683          	lhu	a3,38(s1)
    80003f5c:	00845783          	lhu	a5,8(s0)
    80003f60:	4cf69263          	bne	a3,a5,80004424 <uip_process+0x11ac>
    80003f64:	0284d683          	lhu	a3,40(s1)
    80003f68:	00a45783          	lhu	a5,10(s0)
    80003f6c:	4af69c63          	bne	a3,a5,80004424 <uip_process+0x11ac>
    80003f70:	01077713          	andi	a4,a4,16
    80003f74:	0c070a63          	beqz	a4,80004048 <uip_process+0xdd0>
    80003f78:	01045583          	lhu	a1,16(s0)
    80003f7c:	0c058663          	beqz	a1,80004048 <uip_process+0xdd0>
    80003f80:	00c40513          	addi	a0,s0,12
    80003f84:	d99fe0ef          	jal	ra,80002d1c <uip_add32>
    80003f88:	00006797          	auipc	a5,0x6
    80003f8c:	44878793          	addi	a5,a5,1096 # 8000a3d0 <uip_acc32>
    80003f90:	02a4c683          	lbu	a3,42(s1)
    80003f94:	0007c703          	lbu	a4,0(a5)
    80003f98:	0ae69863          	bne	a3,a4,80004048 <uip_process+0xdd0>
    80003f9c:	02b4c683          	lbu	a3,43(s1)
    80003fa0:	0017c703          	lbu	a4,1(a5)
    80003fa4:	0ae69263          	bne	a3,a4,80004048 <uip_process+0xdd0>
    80003fa8:	02c4c683          	lbu	a3,44(s1)
    80003fac:	0027c703          	lbu	a4,2(a5)
    80003fb0:	08e69c63          	bne	a3,a4,80004048 <uip_process+0xdd0>
    80003fb4:	0007a703          	lw	a4,0(a5)
    80003fb8:	02d4c683          	lbu	a3,45(s1)
    80003fbc:	0037c783          	lbu	a5,3(a5)
    80003fc0:	08f69463          	bne	a3,a5,80004048 <uip_process+0xdd0>
    80003fc4:	01b44783          	lbu	a5,27(s0)
    80003fc8:	00e42623          	sw	a4,12(s0)
    80003fcc:	06079463          	bnez	a5,80004034 <uip_process+0xdbc>
    80003fd0:	01644783          	lbu	a5,22(s0)
    80003fd4:	01844503          	lbu	a0,24(s0)
    80003fd8:	01a44583          	lbu	a1,26(s0)
    80003fdc:	0037d713          	srli	a4,a5,0x3
    80003fe0:	40b506bb          	subw	a3,a0,a1
    80003fe4:	40e686bb          	subw	a3,a3,a4
    80003fe8:	00d787b3          	add	a5,a5,a3
    80003fec:	0186961b          	slliw	a2,a3,0x18
    80003ff0:	0ff7f793          	zext.b	a5,a5
    80003ff4:	4186561b          	sraiw	a2,a2,0x18
    80003ff8:	00f40b23          	sb	a5,22(s0)
    80003ffc:	00065a63          	bgez	a2,80004010 <uip_process+0xd98>
    80004000:	40a7073b          	subw	a4,a4,a0
    80004004:	00b7073b          	addw	a4,a4,a1
    80004008:	0187161b          	slliw	a2,a4,0x18
    8000400c:	4186561b          	sraiw	a2,a2,0x18
    80004010:	01744703          	lbu	a4,23(s0)
    80004014:	0037d79b          	srliw	a5,a5,0x3
    80004018:	0027569b          	srliw	a3,a4,0x2
    8000401c:	40d7073b          	subw	a4,a4,a3
    80004020:	00c7073b          	addw	a4,a4,a2
    80004024:	0ff77713          	zext.b	a4,a4
    80004028:	00e787bb          	addw	a5,a5,a4
    8000402c:	00e40ba3          	sb	a4,23(s0)
    80004030:	00f40c23          	sb	a5,24(s0)
    80004034:	00100793          	li	a5,1
    80004038:	00f98023          	sb	a5,0(s3)
    8000403c:	01844783          	lbu	a5,24(s0)
    80004040:	00041823          	sh	zero,16(s0)
    80004044:	00f40d23          	sb	a5,26(s0)
    80004048:	01944703          	lbu	a4,25(s0)
    8000404c:	00700693          	li	a3,7
    80004050:	00f77793          	andi	a5,a4,15
    80004054:	fff7879b          	addiw	a5,a5,-1
    80004058:	0ff7f793          	zext.b	a5,a5
    8000405c:	b6f6ea63          	bltu	a3,a5,800033d0 <uip_process+0x158>
    80004060:	00005697          	auipc	a3,0x5
    80004064:	1d068693          	addi	a3,a3,464 # 80009230 <pow10.0+0x238>
    80004068:	00279793          	slli	a5,a5,0x2
    8000406c:	00d787b3          	add	a5,a5,a3
    80004070:	0007a783          	lw	a5,0(a5)
    80004074:	00d787b3          	add	a5,a5,a3
    80004078:	00078067          	jr	a5
    8000407c:	0009c783          	lbu	a5,0(s3)
    80004080:	0017f793          	andi	a5,a5,1
    80004084:	b4078663          	beqz	a5,800033d0 <uip_process+0x158>
    80004088:	00300793          	li	a5,3
    8000408c:	000cd503          	lhu	a0,0(s9)
    80004090:	00f40ca3          	sb	a5,25(s0)
    80004094:	04000793          	li	a5,64
    80004098:	00f98023          	sb	a5,0(s3)
    8000409c:	00041823          	sh	zero,16(s0)
    800040a0:	00050863          	beqz	a0,800040b0 <uip_process+0xe38>
    800040a4:	04200793          	li	a5,66
    800040a8:	00f98023          	sb	a5,0(s3)
    800040ac:	d05fe0ef          	jal	ra,80002db0 <uip_add_rcv_nxt>
    800040b0:	00006797          	auipc	a5,0x6
    800040b4:	36079023          	sh	zero,864(a5) # 8000a410 <uip_slen>
    800040b8:	a5cff06f          	j	80003314 <uip_process+0x9c>
    800040bc:	0009c783          	lbu	a5,0(s3)
    800040c0:	0017f793          	andi	a5,a5,1
    800040c4:	12078a63          	beqz	a5,800041f8 <uip_process+0xf80>
    800040c8:	02f4c783          	lbu	a5,47(s1)
    800040cc:	01200713          	li	a4,18
    800040d0:	03f7f793          	andi	a5,a5,63
    800040d4:	12e79263          	bne	a5,a4,800041f8 <uip_process+0xf80>
    800040d8:	02e4c783          	lbu	a5,46(s1)
    800040dc:	05000713          	li	a4,80
    800040e0:	0f07f693          	andi	a3,a5,240
    800040e4:	0cd77663          	bgeu	a4,a3,800041b0 <uip_process+0xf38>
    800040e8:	0047d79b          	srliw	a5,a5,0x4
    800040ec:	ffb7879b          	addiw	a5,a5,-5
    800040f0:	00006717          	auipc	a4,0x6
    800040f4:	2c070523          	sb	zero,714(a4) # 8000a3ba <c>
    800040f8:	0027979b          	slliw	a5,a5,0x2
    800040fc:	00000693          	li	a3,0
    80004100:	00100513          	li	a0,1
    80004104:	00200813          	li	a6,2
    80004108:	00400893          	li	a7,4
    8000410c:	000d071b          	sext.w	a4,s10
    80004110:	00fd5a63          	bge	s10,a5,80004124 <uip_process+0xeac>
    80004114:	0367061b          	addiw	a2,a4,54
    80004118:	00c48633          	add	a2,s1,a2
    8000411c:	00064583          	lbu	a1,0(a2)
    80004120:	00059863          	bnez	a1,80004130 <uip_process+0xeb8>
    80004124:	08068663          	beqz	a3,800041b0 <uip_process+0xf38>
    80004128:	01ad8023          	sb	s10,0(s11)
    8000412c:	0840006f          	j	800041b0 <uip_process+0xf38>
    80004130:	00a59a63          	bne	a1,a0,80004144 <uip_process+0xecc>
    80004134:	001d0d1b          	addiw	s10,s10,1
    80004138:	0ffd7d13          	zext.b	s10,s10
    8000413c:	00100693          	li	a3,1
    80004140:	fcdff06f          	j	8000410c <uip_process+0xe94>
    80004144:	0377061b          	addiw	a2,a4,55
    80004148:	00c48633          	add	a2,s1,a2
    8000414c:	00064603          	lbu	a2,0(a2)
    80004150:	09059c63          	bne	a1,a6,800041e8 <uip_process+0xf70>
    80004154:	09161a63          	bne	a2,a7,800041e8 <uip_process+0xf70>
    80004158:	00068463          	beqz	a3,80004160 <uip_process+0xee8>
    8000415c:	01ad8023          	sb	s10,0(s11)
    80004160:	00005697          	auipc	a3,0x5
    80004164:	30868693          	addi	a3,a3,776 # 80009468 <uip_buf>
    80004168:	0387079b          	addiw	a5,a4,56
    8000416c:	00f687b3          	add	a5,a3,a5
    80004170:	0397071b          	addiw	a4,a4,57
    80004174:	00e686b3          	add	a3,a3,a4
    80004178:	0007c783          	lbu	a5,0(a5)
    8000417c:	0006c703          	lbu	a4,0(a3)
    80004180:	5a600693          	li	a3,1446
    80004184:	0087979b          	slliw	a5,a5,0x8
    80004188:	00e7e7b3          	or	a5,a5,a4
    8000418c:	03079793          	slli	a5,a5,0x30
    80004190:	0307d793          	srli	a5,a5,0x30
    80004194:	00006717          	auipc	a4,0x6
    80004198:	22f71d23          	sh	a5,570(a4) # 8000a3ce <tmp16>
    8000419c:	00078713          	mv	a4,a5
    800041a0:	00f6f463          	bgeu	a3,a5,800041a8 <uip_process+0xf30>
    800041a4:	5a600713          	li	a4,1446
    800041a8:	00e41923          	sh	a4,18(s0)
    800041ac:	00e41a23          	sh	a4,20(s0)
    800041b0:	00300793          	li	a5,3
    800041b4:	00f40ca3          	sb	a5,25(s0)
    800041b8:	0264d783          	lhu	a5,38(s1)
    800041bc:	00100513          	li	a0,1
    800041c0:	00f41423          	sh	a5,8(s0)
    800041c4:	0284d783          	lhu	a5,40(s1)
    800041c8:	00f41523          	sh	a5,10(s0)
    800041cc:	be5fe0ef          	jal	ra,80002db0 <uip_add_rcv_nxt>
    800041d0:	04200793          	li	a5,66
    800041d4:	00f98023          	sb	a5,0(s3)
    800041d8:	00041823          	sh	zero,16(s0)
    800041dc:	00006797          	auipc	a5,0x6
    800041e0:	22079023          	sh	zero,544(a5) # 8000a3fc <uip_len>
    800041e4:	ecdff06f          	j	800040b0 <uip_process+0xe38>
    800041e8:	f2060ee3          	beqz	a2,80004124 <uip_process+0xeac>
    800041ec:	00cd063b          	addw	a2,s10,a2
    800041f0:	0ff67d13          	zext.b	s10,a2
    800041f4:	f49ff06f          	j	8000413c <uip_process+0xec4>
    800041f8:	02000793          	li	a5,32
    800041fc:	00f98023          	sb	a5,0(s3)
    80004200:	698000ef          	jal	ra,80004898 <dhcpc_appcall>
    80004204:	000bb783          	ld	a5,0(s7)
    80004208:	00078ca3          	sb	zero,25(a5)
    8000420c:	925ff06f          	j	80003b30 <uip_process+0x8b8>
    80004210:	02f4c783          	lbu	a5,47(s1)
    80004214:	0017f693          	andi	a3,a5,1
    80004218:	06068a63          	beqz	a3,8000428c <uip_process+0x1014>
    8000421c:	01077693          	andi	a3,a4,16
    80004220:	06069663          	bnez	a3,8000428c <uip_process+0x1014>
    80004224:	01045783          	lhu	a5,16(s0)
    80004228:	9a079463          	bnez	a5,800033d0 <uip_process+0x158>
    8000422c:	000cd503          	lhu	a0,0(s9)
    80004230:	0015051b          	addiw	a0,a0,1
    80004234:	03051513          	slli	a0,a0,0x30
    80004238:	03055513          	srli	a0,a0,0x30
    8000423c:	b75fe0ef          	jal	ra,80002db0 <uip_add_rcv_nxt>
    80004240:	0009c783          	lbu	a5,0(s3)
    80004244:	0107e713          	ori	a4,a5,16
    80004248:	00e98023          	sb	a4,0(s3)
    8000424c:	000cd703          	lhu	a4,0(s9)
    80004250:	00070663          	beqz	a4,8000425c <uip_process+0xfe4>
    80004254:	0127e793          	ori	a5,a5,18
    80004258:	00f98023          	sb	a5,0(s3)
    8000425c:	63c000ef          	jal	ra,80004898 <dhcpc_appcall>
    80004260:	00100793          	li	a5,1
    80004264:	00f41823          	sh	a5,16(s0)
    80004268:	00800793          	li	a5,8
    8000426c:	00f40ca3          	sb	a5,25(s0)
    80004270:	00040da3          	sb	zero,27(s0)
    80004274:	01100793          	li	a5,17
    80004278:	02f487a3          	sb	a5,47(s1)
    8000427c:	02800793          	li	a5,40
    80004280:	00006717          	auipc	a4,0x6
    80004284:	16f71e23          	sh	a5,380(a4) # 8000a3fc <uip_len>
    80004288:	a54ff06f          	j	800034dc <uip_process+0x264>
    8000428c:	0207f793          	andi	a5,a5,32
    80004290:	02078a63          	beqz	a5,800042c4 <uip_process+0x104c>
    80004294:	0344d783          	lhu	a5,52(s1)
    80004298:	000cd683          	lhu	a3,0(s9)
    8000429c:	0087961b          	slliw	a2,a5,0x8
    800042a0:	0087d793          	srli	a5,a5,0x8
    800042a4:	00c7e7b3          	or	a5,a5,a2
    800042a8:	000ab603          	ld	a2,0(s5)
    800042ac:	03079793          	slli	a5,a5,0x30
    800042b0:	0307d793          	srli	a5,a5,0x30
    800042b4:	00f60633          	add	a2,a2,a5
    800042b8:	40f687bb          	subw	a5,a3,a5
    800042bc:	00cab023          	sd	a2,0(s5)
    800042c0:	00fc9023          	sh	a5,0(s9)
    800042c4:	000cd503          	lhu	a0,0(s9)
    800042c8:	00050e63          	beqz	a0,800042e4 <uip_process+0x106c>
    800042cc:	01077713          	andi	a4,a4,16
    800042d0:	00071a63          	bnez	a4,800042e4 <uip_process+0x106c>
    800042d4:	0009c783          	lbu	a5,0(s3)
    800042d8:	0027e793          	ori	a5,a5,2
    800042dc:	00f98023          	sb	a5,0(s3)
    800042e0:	ad1fe0ef          	jal	ra,80002db0 <uip_add_rcv_nxt>
    800042e4:	0304c783          	lbu	a5,48(s1)
    800042e8:	0314c703          	lbu	a4,49(s1)
    800042ec:	01445683          	lhu	a3,20(s0)
    800042f0:	0087979b          	slliw	a5,a5,0x8
    800042f4:	00e787bb          	addw	a5,a5,a4
    800042f8:	03079793          	slli	a5,a5,0x30
    800042fc:	0307d793          	srli	a5,a5,0x30
    80004300:	00006717          	auipc	a4,0x6
    80004304:	0ce70713          	addi	a4,a4,206 # 8000a3ce <tmp16>
    80004308:	00f71023          	sh	a5,0(a4)
    8000430c:	00f6e463          	bltu	a3,a5,80004314 <uip_process+0x109c>
    80004310:	00079463          	bnez	a5,80004318 <uip_process+0x10a0>
    80004314:	00d71023          	sh	a3,0(a4)
    80004318:	00075783          	lhu	a5,0(a4)
    8000431c:	00f41923          	sh	a5,18(s0)
    80004320:	0009c783          	lbu	a5,0(s3)
    80004324:	0037f793          	andi	a5,a5,3
    80004328:	8a078463          	beqz	a5,800033d0 <uip_process+0x158>
    8000432c:	d85ff06f          	j	800040b0 <uip_process+0xe38>
    80004330:	0107f713          	andi	a4,a5,16
    80004334:	00070e63          	beqz	a4,80004350 <uip_process+0x10d8>
    80004338:	00006797          	auipc	a5,0x6
    8000433c:	0c079c23          	sh	zero,216(a5) # 8000a410 <uip_slen>
    80004340:	00100793          	li	a5,1
    80004344:	00f41823          	sh	a5,16(s0)
    80004348:	00400793          	li	a5,4
    8000434c:	f21ff06f          	j	8000426c <uip_process+0xff4>
    80004350:	00006717          	auipc	a4,0x6
    80004354:	0c070713          	addi	a4,a4,192 # 8000a410 <uip_slen>
    80004358:	00075683          	lhu	a3,0(a4)
    8000435c:	02068663          	beqz	a3,80004388 <uip_process+0x1110>
    80004360:	0017f793          	andi	a5,a5,1
    80004364:	00078463          	beqz	a5,8000436c <uip_process+0x10f4>
    80004368:	00041823          	sh	zero,16(s0)
    8000436c:	01045783          	lhu	a5,16(s0)
    80004370:	02079063          	bnez	a5,80004390 <uip_process+0x1118>
    80004374:	01245783          	lhu	a5,18(s0)
    80004378:	00d7f463          	bgeu	a5,a3,80004380 <uip_process+0x1108>
    8000437c:	00f71023          	sh	a5,0(a4)
    80004380:	00075783          	lhu	a5,0(a4)
    80004384:	00f41823          	sh	a5,16(s0)
    80004388:	00040da3          	sb	zero,27(s0)
    8000438c:	920ff06f          	j	800034ac <uip_process+0x234>
    80004390:	00f71023          	sh	a5,0(a4)
    80004394:	ff5ff06f          	j	80004388 <uip_process+0x1110>
    80004398:	00006797          	auipc	a5,0x6
    8000439c:	05e7c783          	lbu	a5,94(a5) # 8000a3f6 <uip_flags>
    800043a0:	0027f793          	andi	a5,a5,2
    800043a4:	00079463          	bnez	a5,800043ac <uip_process+0x1134>
    800043a8:	828ff06f          	j	800033d0 <uip_process+0x158>
    800043ac:	02800793          	li	a5,40
    800043b0:	00006717          	auipc	a4,0x6
    800043b4:	04f71623          	sh	a5,76(a4) # 8000a3fc <uip_len>
    800043b8:	01000793          	li	a5,16
    800043bc:	91cff06f          	j	800034d8 <uip_process+0x260>
    800043c0:	0009c783          	lbu	a5,0(s3)
    800043c4:	0017f793          	andi	a5,a5,1
    800043c8:	00079463          	bnez	a5,800043d0 <uip_process+0x1158>
    800043cc:	804ff06f          	j	800033d0 <uip_process+0x158>
    800043d0:	00040ca3          	sb	zero,25(s0)
    800043d4:	01000793          	li	a5,16
    800043d8:	eecff06f          	j	80003ac4 <uip_process+0x84c>
    800043dc:	000cd503          	lhu	a0,0(s9)
    800043e0:	00050463          	beqz	a0,800043e8 <uip_process+0x1170>
    800043e4:	9cdfe0ef          	jal	ra,80002db0 <uip_add_rcv_nxt>
    800043e8:	02f4c703          	lbu	a4,47(s1)
    800043ec:	0009c783          	lbu	a5,0(s3)
    800043f0:	00177713          	andi	a4,a4,1
    800043f4:	0017f793          	andi	a5,a5,1
    800043f8:	04070063          	beqz	a4,80004438 <uip_process+0x11c0>
    800043fc:	02078863          	beqz	a5,8000442c <uip_process+0x11b4>
    80004400:	00700793          	li	a5,7
    80004404:	00f40ca3          	sb	a5,25(s0)
    80004408:	00040d23          	sb	zero,26(s0)
    8000440c:	00041823          	sh	zero,16(s0)
    80004410:	00100513          	li	a0,1
    80004414:	99dfe0ef          	jal	ra,80002db0 <uip_add_rcv_nxt>
    80004418:	01000793          	li	a5,16
    8000441c:	00f98023          	sb	a5,0(s3)
    80004420:	478000ef          	jal	ra,80004898 <dhcpc_appcall>
    80004424:	01000793          	li	a5,16
    80004428:	e51ff06f          	j	80004278 <uip_process+0x1000>
    8000442c:	00600793          	li	a5,6
    80004430:	00f40ca3          	sb	a5,25(s0)
    80004434:	fddff06f          	j	80004410 <uip_process+0x1198>
    80004438:	02078e63          	beqz	a5,80004474 <uip_process+0x11fc>
    8000443c:	00500793          	li	a5,5
    80004440:	00f40ca3          	sb	a5,25(s0)
    80004444:	00041823          	sh	zero,16(s0)
    80004448:	f89fe06f          	j	800033d0 <uip_process+0x158>
    8000444c:	000cd503          	lhu	a0,0(s9)
    80004450:	00050463          	beqz	a0,80004458 <uip_process+0x11e0>
    80004454:	95dfe0ef          	jal	ra,80002db0 <uip_add_rcv_nxt>
    80004458:	02f4c783          	lbu	a5,47(s1)
    8000445c:	0017f793          	andi	a5,a5,1
    80004460:	00078a63          	beqz	a5,80004474 <uip_process+0x11fc>
    80004464:	00700793          	li	a5,7
    80004468:	00f40ca3          	sb	a5,25(s0)
    8000446c:	00040d23          	sb	zero,26(s0)
    80004470:	fa1ff06f          	j	80004410 <uip_process+0x1198>
    80004474:	000cd783          	lhu	a5,0(s9)
    80004478:	fa0796e3          	bnez	a5,80004424 <uip_process+0x11ac>
    8000447c:	f55fe06f          	j	800033d0 <uip_process+0x158>
    80004480:	0009c783          	lbu	a5,0(s3)
    80004484:	0017f793          	andi	a5,a5,1
    80004488:	00079463          	bnez	a5,80004490 <uip_process+0x1218>
    8000448c:	f45fe06f          	j	800033d0 <uip_process+0x158>
    80004490:	00700793          	li	a5,7
    80004494:	00f40ca3          	sb	a5,25(s0)
    80004498:	00040d23          	sb	zero,26(s0)
    8000449c:	f35fe06f          	j	800033d0 <uip_process+0x158>
    800044a0:	ffffa7b7          	lui	a5,0xffffa
    800044a4:	60578793          	addi	a5,a5,1541 # ffffffffffffa605 <__stack_end+0xffffffff7fefa605>
    800044a8:	02f49823          	sh	a5,48(s1)
    800044ac:	f5cff06f          	j	80003c08 <uip_process+0x990>

00000000800044b0 <htons>:
    800044b0:	0085179b          	slliw	a5,a0,0x8
    800044b4:	0085551b          	srliw	a0,a0,0x8
    800044b8:	00a7e533          	or	a0,a5,a0
    800044bc:	03051513          	slli	a0,a0,0x30
    800044c0:	03055513          	srli	a0,a0,0x30
    800044c4:	00008067          	ret

00000000800044c8 <uip_send>:
    800044c8:	00050793          	mv	a5,a0
    800044cc:	02b05463          	blez	a1,800044f4 <uip_send+0x2c>
    800044d0:	03059613          	slli	a2,a1,0x30
    800044d4:	03065613          	srli	a2,a2,0x30
    800044d8:	00006717          	auipc	a4,0x6
    800044dc:	f2c71c23          	sh	a2,-200(a4) # 8000a410 <uip_slen>
    800044e0:	00006517          	auipc	a0,0x6
    800044e4:	f2853503          	ld	a0,-216(a0) # 8000a408 <uip_sappdata>
    800044e8:	00f50663          	beq	a0,a5,800044f4 <uip_send+0x2c>
    800044ec:	00078593          	mv	a1,a5
    800044f0:	7f10206f          	j	800074e0 <memcpy>
    800044f4:	00008067          	ret

00000000800044f8 <uiplib_ipaddrconv>:
    800044f8:	00400693          	li	a3,4
    800044fc:	00000793          	li	a5,0
    80004500:	02e00813          	li	a6,46
    80004504:	00900893          	li	a7,9
    80004508:	00a00313          	li	t1,10
    8000450c:	00450e13          	addi	t3,a0,4
    80004510:	05c50e63          	beq	a0,t3,8000456c <uiplib_ipaddrconv+0x74>
    80004514:	00054703          	lbu	a4,0(a0)
    80004518:	01070463          	beq	a4,a6,80004520 <uiplib_ipaddrconv+0x28>
    8000451c:	02071863          	bnez	a4,8000454c <uiplib_ipaddrconv+0x54>
    80004520:	00f58023          	sb	a5,0(a1)
    80004524:	00158593          	addi	a1,a1,1
    80004528:	00000793          	li	a5,0
    8000452c:	00150513          	addi	a0,a0,1
    80004530:	01070463          	beq	a4,a6,80004538 <uiplib_ipaddrconv+0x40>
    80004534:	fc071ee3          	bnez	a4,80004510 <uiplib_ipaddrconv+0x18>
    80004538:	fff6869b          	addiw	a3,a3,-1
    8000453c:	0ff6f693          	zext.b	a3,a3
    80004540:	fc0696e3          	bnez	a3,8000450c <uiplib_ipaddrconv+0x14>
    80004544:	00100513          	li	a0,1
    80004548:	00008067          	ret
    8000454c:	fd07061b          	addiw	a2,a4,-48
    80004550:	0ff67613          	zext.b	a2,a2
    80004554:	00c8ec63          	bltu	a7,a2,8000456c <uiplib_ipaddrconv+0x74>
    80004558:	026787bb          	mulw	a5,a5,t1
    8000455c:	00e787bb          	addw	a5,a5,a4
    80004560:	fd078793          	addi	a5,a5,-48
    80004564:	0ff7f793          	zext.b	a5,a5
    80004568:	fc5ff06f          	j	8000452c <uiplib_ipaddrconv+0x34>
    8000456c:	00000513          	li	a0,0
    80004570:	00008067          	ret

0000000080004574 <create_msg>:
    80004574:	fe010113          	addi	sp,sp,-32
    80004578:	00113c23          	sd	ra,24(sp)
    8000457c:	00813823          	sd	s0,16(sp)
    80004580:	00913423          	sd	s1,8(sp)
    80004584:	10100793          	li	a5,257
    80004588:	00006497          	auipc	s1,0x6
    8000458c:	db848493          	addi	s1,s1,-584 # 8000a340 <s>
    80004590:	00f51023          	sh	a5,0(a0)
    80004594:	0284a783          	lw	a5,40(s1)
    80004598:	00050413          	mv	s0,a0
    8000459c:	000501a3          	sb	zero,3(a0)
    800045a0:	00f50123          	sb	a5,2(a0)
    800045a4:	00400613          	li	a2,4
    800045a8:	00004597          	auipc	a1,0x4
    800045ac:	9a058593          	addi	a1,a1,-1632 # 80007f48 <xid>
    800045b0:	00450513          	addi	a0,a0,4
    800045b4:	72d020ef          	jal	ra,800074e0 <memcpy>
    800045b8:	08000793          	li	a5,128
    800045bc:	00f41523          	sh	a5,10(s0)
    800045c0:	00041423          	sh	zero,8(s0)
    800045c4:	00400613          	li	a2,4
    800045c8:	00006597          	auipc	a1,0x6
    800045cc:	e3058593          	addi	a1,a1,-464 # 8000a3f8 <uip_hostaddr>
    800045d0:	00c40513          	addi	a0,s0,12
    800045d4:	70d020ef          	jal	ra,800074e0 <memcpy>
    800045d8:	00400613          	li	a2,4
    800045dc:	00000593          	li	a1,0
    800045e0:	01040513          	addi	a0,s0,16
    800045e4:	024030ef          	jal	ra,80007608 <memset>
    800045e8:	00400613          	li	a2,4
    800045ec:	00000593          	li	a1,0
    800045f0:	01440513          	addi	a0,s0,20
    800045f4:	014030ef          	jal	ra,80007608 <memset>
    800045f8:	00400613          	li	a2,4
    800045fc:	00000593          	li	a1,0
    80004600:	01840513          	addi	a0,s0,24
    80004604:	004030ef          	jal	ra,80007608 <memset>
    80004608:	0284a603          	lw	a2,40(s1)
    8000460c:	0204b583          	ld	a1,32(s1)
    80004610:	01c40513          	addi	a0,s0,28
    80004614:	6cd020ef          	jal	ra,800074e0 <memcpy>
    80004618:	0284a783          	lw	a5,40(s1)
    8000461c:	01000613          	li	a2,16
    80004620:	00000593          	li	a1,0
    80004624:	01c78513          	addi	a0,a5,28
    80004628:	40f60633          	sub	a2,a2,a5
    8000462c:	00a40533          	add	a0,s0,a0
    80004630:	7d9020ef          	jal	ra,80007608 <memset>
    80004634:	04000613          	li	a2,64
    80004638:	00000593          	li	a1,0
    8000463c:	02c40513          	addi	a0,s0,44
    80004640:	7c9020ef          	jal	ra,80007608 <memset>
    80004644:	08000613          	li	a2,128
    80004648:	00000593          	li	a1,0
    8000464c:	06c40513          	addi	a0,s0,108
    80004650:	7b9020ef          	jal	ra,80007608 <memset>
    80004654:	0ec40513          	addi	a0,s0,236
    80004658:	01013403          	ld	s0,16(sp)
    8000465c:	01813083          	ld	ra,24(sp)
    80004660:	00813483          	ld	s1,8(sp)
    80004664:	00400613          	li	a2,4
    80004668:	00004597          	auipc	a1,0x4
    8000466c:	8d858593          	addi	a1,a1,-1832 # 80007f40 <magic_cookie>
    80004670:	02010113          	addi	sp,sp,32
    80004674:	66d0206f          	j	800074e0 <memcpy>

0000000080004678 <parse_msg>:
    80004678:	fa010113          	addi	sp,sp,-96
    8000467c:	04813823          	sd	s0,80(sp)
    80004680:	04113c23          	sd	ra,88(sp)
    80004684:	04913423          	sd	s1,72(sp)
    80004688:	05213023          	sd	s2,64(sp)
    8000468c:	03313c23          	sd	s3,56(sp)
    80004690:	03413823          	sd	s4,48(sp)
    80004694:	03513423          	sd	s5,40(sp)
    80004698:	03613023          	sd	s6,32(sp)
    8000469c:	01713c23          	sd	s7,24(sp)
    800046a0:	01813823          	sd	s8,16(sp)
    800046a4:	01913423          	sd	s9,8(sp)
    800046a8:	01a13023          	sd	s10,0(sp)
    800046ac:	00006417          	auipc	s0,0x6
    800046b0:	d2c43403          	ld	s0,-724(s0) # 8000a3d8 <uip_appdata>
    800046b4:	00044703          	lbu	a4,0(s0)
    800046b8:	00200793          	li	a5,2
    800046bc:	04f70263          	beq	a4,a5,80004700 <parse_msg+0x88>
    800046c0:	00000493          	li	s1,0
    800046c4:	05813083          	ld	ra,88(sp)
    800046c8:	05013403          	ld	s0,80(sp)
    800046cc:	04013903          	ld	s2,64(sp)
    800046d0:	03813983          	ld	s3,56(sp)
    800046d4:	03013a03          	ld	s4,48(sp)
    800046d8:	02813a83          	ld	s5,40(sp)
    800046dc:	02013b03          	ld	s6,32(sp)
    800046e0:	01813b83          	ld	s7,24(sp)
    800046e4:	01013c03          	ld	s8,16(sp)
    800046e8:	00813c83          	ld	s9,8(sp)
    800046ec:	00013d03          	ld	s10,0(sp)
    800046f0:	00048513          	mv	a0,s1
    800046f4:	04813483          	ld	s1,72(sp)
    800046f8:	06010113          	addi	sp,sp,96
    800046fc:	00008067          	ret
    80004700:	00400613          	li	a2,4
    80004704:	00004597          	auipc	a1,0x4
    80004708:	84458593          	addi	a1,a1,-1980 # 80007f48 <xid>
    8000470c:	00440513          	addi	a0,s0,4
    80004710:	559020ef          	jal	ra,80007468 <memcmp>
    80004714:	fa0516e3          	bnez	a0,800046c0 <parse_msg+0x48>
    80004718:	00006797          	auipc	a5,0x6
    8000471c:	c2878793          	addi	a5,a5,-984 # 8000a340 <s>
    80004720:	0287a603          	lw	a2,40(a5)
    80004724:	0207b583          	ld	a1,32(a5)
    80004728:	01c40513          	addi	a0,s0,28
    8000472c:	53d020ef          	jal	ra,80007468 <memcmp>
    80004730:	f80518e3          	bnez	a0,800046c0 <parse_msg+0x48>
    80004734:	01040593          	addi	a1,s0,16
    80004738:	00400613          	li	a2,4
    8000473c:	00006517          	auipc	a0,0x6
    80004740:	c3850513          	addi	a0,a0,-968 # 8000a374 <s+0x34>
    80004744:	59d020ef          	jal	ra,800074e0 <memcpy>
    80004748:	0f040413          	addi	s0,s0,240
    8000474c:	00006917          	auipc	s2,0x6
    80004750:	cb095903          	lhu	s2,-848(s2) # 8000a3fc <uip_len>
    80004754:	01240933          	add	s2,s0,s2
    80004758:	00000493          	li	s1,0
    8000475c:	03300993          	li	s3,51
    80004760:	00006a17          	auipc	s4,0x6
    80004764:	c10a0a13          	addi	s4,s4,-1008 # 8000a370 <s+0x30>
    80004768:	03600a93          	li	s5,54
    8000476c:	00006b17          	auipc	s6,0x6
    80004770:	c00b0b13          	addi	s6,s6,-1024 # 8000a36c <s+0x2c>
    80004774:	0ff00b93          	li	s7,255
    80004778:	03500c13          	li	s8,53
    8000477c:	00300c93          	li	s9,3
    80004780:	00006d17          	auipc	s10,0x6
    80004784:	c00d0d13          	addi	s10,s10,-1024 # 8000a380 <s+0x40>
    80004788:	f3247ee3          	bgeu	s0,s2,800046c4 <parse_msg+0x4c>
    8000478c:	00044783          	lbu	a5,0(s0)
    80004790:	09378663          	beq	a5,s3,8000481c <parse_msg+0x1a4>
    80004794:	02f9e463          	bltu	s3,a5,800047bc <parse_msg+0x144>
    80004798:	05978863          	beq	a5,s9,800047e8 <parse_msg+0x170>
    8000479c:	00600713          	li	a4,6
    800047a0:	04e78c63          	beq	a5,a4,800047f8 <parse_msg+0x180>
    800047a4:	00100713          	li	a4,1
    800047a8:	02e78463          	beq	a5,a4,800047d0 <parse_msg+0x158>
    800047ac:	00144783          	lbu	a5,1(s0)
    800047b0:	00278793          	addi	a5,a5,2
    800047b4:	00f40433          	add	s0,s0,a5
    800047b8:	fd1ff06f          	j	80004788 <parse_msg+0x110>
    800047bc:	05578863          	beq	a5,s5,8000480c <parse_msg+0x194>
    800047c0:	f17782e3          	beq	a5,s7,800046c4 <parse_msg+0x4c>
    800047c4:	ff8794e3          	bne	a5,s8,800047ac <parse_msg+0x134>
    800047c8:	00244483          	lbu	s1,2(s0)
    800047cc:	fe1ff06f          	j	800047ac <parse_msg+0x134>
    800047d0:	00400613          	li	a2,4
    800047d4:	00240593          	addi	a1,s0,2
    800047d8:	00006517          	auipc	a0,0x6
    800047dc:	ba050513          	addi	a0,a0,-1120 # 8000a378 <s+0x38>
    800047e0:	501020ef          	jal	ra,800074e0 <memcpy>
    800047e4:	fc9ff06f          	j	800047ac <parse_msg+0x134>
    800047e8:	00400613          	li	a2,4
    800047ec:	00240593          	addi	a1,s0,2
    800047f0:	000d0513          	mv	a0,s10
    800047f4:	fedff06f          	j	800047e0 <parse_msg+0x168>
    800047f8:	00400613          	li	a2,4
    800047fc:	00240593          	addi	a1,s0,2
    80004800:	00006517          	auipc	a0,0x6
    80004804:	b7c50513          	addi	a0,a0,-1156 # 8000a37c <s+0x3c>
    80004808:	fd9ff06f          	j	800047e0 <parse_msg+0x168>
    8000480c:	00400613          	li	a2,4
    80004810:	00240593          	addi	a1,s0,2
    80004814:	000b0513          	mv	a0,s6
    80004818:	fc9ff06f          	j	800047e0 <parse_msg+0x168>
    8000481c:	00400613          	li	a2,4
    80004820:	00240593          	addi	a1,s0,2
    80004824:	000a0513          	mv	a0,s4
    80004828:	fb9ff06f          	j	800047e0 <parse_msg+0x168>

000000008000482c <dhcpc_init>:
    8000482c:	fd010113          	addi	sp,sp,-48
    80004830:	02813023          	sd	s0,32(sp)
    80004834:	00913c23          	sd	s1,24(sp)
    80004838:	00006797          	auipc	a5,0x6
    8000483c:	b0078523          	sb	zero,-1270(a5) # 8000a342 <s+0x2>
    80004840:	00006497          	auipc	s1,0x6
    80004844:	b0048493          	addi	s1,s1,-1280 # 8000a340 <s>
    80004848:	00004437          	lui	s0,0x4
    8000484c:	02a4b023          	sd	a0,32(s1)
    80004850:	02b4a423          	sw	a1,40(s1)
    80004854:	fff00793          	li	a5,-1
    80004858:	30040593          	addi	a1,s0,768 # 4300 <_start-0x7fffbd00>
    8000485c:	00810513          	addi	a0,sp,8
    80004860:	02113423          	sd	ra,40(sp)
    80004864:	00f12423          	sw	a5,8(sp)
    80004868:	fe4fe0ef          	jal	ra,8000304c <uip_udp_new>
    8000486c:	00a4b423          	sd	a0,8(s1)
    80004870:	00050663          	beqz	a0,8000487c <dhcpc_init+0x50>
    80004874:	40040413          	addi	s0,s0,1024
    80004878:	00851223          	sh	s0,4(a0)
    8000487c:	02813083          	ld	ra,40(sp)
    80004880:	02013403          	ld	s0,32(sp)
    80004884:	00006797          	auipc	a5,0x6
    80004888:	aa079e23          	sh	zero,-1348(a5) # 8000a340 <s>
    8000488c:	01813483          	ld	s1,24(sp)
    80004890:	03010113          	addi	sp,sp,48
    80004894:	00008067          	ret

0000000080004898 <dhcpc_appcall>:
    80004898:	fd010113          	addi	sp,sp,-48
    8000489c:	02813023          	sd	s0,32(sp)
    800048a0:	00006417          	auipc	s0,0x6
    800048a4:	aa040413          	addi	s0,s0,-1376 # 8000a340 <s>
    800048a8:	00045783          	lhu	a5,0(s0)
    800048ac:	02113423          	sd	ra,40(sp)
    800048b0:	00913c23          	sd	s1,24(sp)
    800048b4:	01213823          	sd	s2,16(sp)
    800048b8:	01313423          	sd	s3,8(sp)
    800048bc:	10800713          	li	a4,264
    800048c0:	0ae78663          	beq	a5,a4,8000496c <dhcpc_appcall+0xd4>
    800048c4:	0007869b          	sext.w	a3,a5
    800048c8:	12100713          	li	a4,289
    800048cc:	1ce68863          	beq	a3,a4,80004a9c <dhcpc_appcall+0x204>
    800048d0:	10079a63          	bnez	a5,800049e4 <dhcpc_appcall+0x14c>
    800048d4:	00244783          	lbu	a5,2(s0)
    800048d8:	00079a63          	bnez	a5,800048ec <dhcpc_appcall+0x54>
    800048dc:	00100793          	li	a5,1
    800048e0:	00f40123          	sb	a5,2(s0)
    800048e4:	3e800793          	li	a5,1000
    800048e8:	00f41c23          	sh	a5,24(s0)
    800048ec:	00244903          	lbu	s2,2(s0)
    800048f0:	00100993          	li	s3,1
    800048f4:	0f391e63          	bne	s2,s3,800049f0 <dhcpc_appcall+0x158>
    800048f8:	00006997          	auipc	s3,0x6
    800048fc:	ae098993          	addi	s3,s3,-1312 # 8000a3d8 <uip_appdata>
    80004900:	0009b483          	ld	s1,0(s3)
    80004904:	00048513          	mv	a0,s1
    80004908:	c6dff0ef          	jal	ra,80004574 <create_msg>
    8000490c:	03500793          	li	a5,53
    80004910:	0ef48823          	sb	a5,240(s1)
    80004914:	03700793          	li	a5,55
    80004918:	0009b503          	ld	a0,0(s3)
    8000491c:	0ef489a3          	sb	a5,243(s1)
    80004920:	00300793          	li	a5,3
    80004924:	0ef48a23          	sb	a5,244(s1)
    80004928:	0ef48b23          	sb	a5,246(s1)
    8000492c:	00600793          	li	a5,6
    80004930:	0ef48ba3          	sb	a5,247(s1)
    80004934:	0f948593          	addi	a1,s1,249
    80004938:	fff00793          	li	a5,-1
    8000493c:	0ef48c23          	sb	a5,248(s1)
    80004940:	40a585bb          	subw	a1,a1,a0
    80004944:	0f2488a3          	sb	s2,241(s1)
    80004948:	0f248923          	sb	s2,242(s1)
    8000494c:	0f248aa3          	sb	s2,245(s1)
    80004950:	b79ff0ef          	jal	ra,800044c8 <uip_send>
    80004954:	01845583          	lhu	a1,24(s0)
    80004958:	00006517          	auipc	a0,0x6
    8000495c:	9f850513          	addi	a0,a0,-1544 # 8000a350 <s+0x10>
    80004960:	87dfd0ef          	jal	ra,800021dc <timer_set>
    80004964:	10800793          	li	a5,264
    80004968:	00f41023          	sh	a5,0(s0)
    8000496c:	00006497          	auipc	s1,0x6
    80004970:	a8a48493          	addi	s1,s1,-1398 # 8000a3f6 <uip_flags>
    80004974:	0004c783          	lbu	a5,0(s1)
    80004978:	0027f793          	andi	a5,a5,2
    8000497c:	04078263          	beqz	a5,800049c0 <dhcpc_appcall+0x128>
    80004980:	cf9ff0ef          	jal	ra,80004678 <parse_msg>
    80004984:	00200793          	li	a5,2
    80004988:	04f50c63          	beq	a0,a5,800049e0 <dhcpc_appcall+0x148>
    8000498c:	01845783          	lhu	a5,24(s0)
    80004990:	0000f737          	lui	a4,0xf
    80004994:	a5f70713          	addi	a4,a4,-1441 # ea5f <_start-0x7fff15a1>
    80004998:	00f76663          	bltu	a4,a5,800049a4 <dhcpc_appcall+0x10c>
    8000499c:	0017979b          	slliw	a5,a5,0x1
    800049a0:	00f41c23          	sh	a5,24(s0)
    800049a4:	02813083          	ld	ra,40(sp)
    800049a8:	02013403          	ld	s0,32(sp)
    800049ac:	01813483          	ld	s1,24(sp)
    800049b0:	01013903          	ld	s2,16(sp)
    800049b4:	00813983          	ld	s3,8(sp)
    800049b8:	03010113          	addi	sp,sp,48
    800049bc:	00008067          	ret
    800049c0:	00006517          	auipc	a0,0x6
    800049c4:	99050513          	addi	a0,a0,-1648 # 8000a350 <s+0x10>
    800049c8:	87dfd0ef          	jal	ra,80002244 <timer_expired>
    800049cc:	fc050ce3          	beqz	a0,800049a4 <dhcpc_appcall+0x10c>
    800049d0:	0004c783          	lbu	a5,0(s1)
    800049d4:	0027f793          	andi	a5,a5,2
    800049d8:	fa078ae3          	beqz	a5,8000498c <dhcpc_appcall+0xf4>
    800049dc:	fa5ff06f          	j	80004980 <dhcpc_appcall+0xe8>
    800049e0:	00a40123          	sb	a0,2(s0)
    800049e4:	00006797          	auipc	a5,0x6
    800049e8:	94079e23          	sh	zero,-1700(a5) # 8000a340 <s>
    800049ec:	fb9ff06f          	j	800049a4 <dhcpc_appcall+0x10c>
    800049f0:	3e800793          	li	a5,1000
    800049f4:	00f41c23          	sh	a5,24(s0)
    800049f8:	00200793          	li	a5,2
    800049fc:	10f91063          	bne	s2,a5,80004afc <dhcpc_appcall+0x264>
    80004a00:	00006917          	auipc	s2,0x6
    80004a04:	9d890913          	addi	s2,s2,-1576 # 8000a3d8 <uip_appdata>
    80004a08:	00093483          	ld	s1,0(s2)
    80004a0c:	00048513          	mv	a0,s1
    80004a10:	b65ff0ef          	jal	ra,80004574 <create_msg>
    80004a14:	03500793          	li	a5,53
    80004a18:	0ef48823          	sb	a5,240(s1)
    80004a1c:	00300793          	li	a5,3
    80004a20:	0f3488a3          	sb	s3,241(s1)
    80004a24:	0ef48923          	sb	a5,242(s1)
    80004a28:	00400993          	li	s3,4
    80004a2c:	03600793          	li	a5,54
    80004a30:	0ef489a3          	sb	a5,243(s1)
    80004a34:	00400613          	li	a2,4
    80004a38:	00006597          	auipc	a1,0x6
    80004a3c:	93458593          	addi	a1,a1,-1740 # 8000a36c <s+0x2c>
    80004a40:	0f348a23          	sb	s3,244(s1)
    80004a44:	0f548513          	addi	a0,s1,245
    80004a48:	299020ef          	jal	ra,800074e0 <memcpy>
    80004a4c:	03200793          	li	a5,50
    80004a50:	00400613          	li	a2,4
    80004a54:	0ef48ca3          	sb	a5,249(s1)
    80004a58:	00006597          	auipc	a1,0x6
    80004a5c:	91c58593          	addi	a1,a1,-1764 # 8000a374 <s+0x34>
    80004a60:	0f348d23          	sb	s3,250(s1)
    80004a64:	0fb48513          	addi	a0,s1,251
    80004a68:	279020ef          	jal	ra,800074e0 <memcpy>
    80004a6c:	00093503          	ld	a0,0(s2)
    80004a70:	fff00793          	li	a5,-1
    80004a74:	10048593          	addi	a1,s1,256
    80004a78:	0ef48fa3          	sb	a5,255(s1)
    80004a7c:	40a585bb          	subw	a1,a1,a0
    80004a80:	a49ff0ef          	jal	ra,800044c8 <uip_send>
    80004a84:	01845583          	lhu	a1,24(s0)
    80004a88:	00006517          	auipc	a0,0x6
    80004a8c:	8c850513          	addi	a0,a0,-1848 # 8000a350 <s+0x10>
    80004a90:	f4cfd0ef          	jal	ra,800021dc <timer_set>
    80004a94:	12100793          	li	a5,289
    80004a98:	00f41023          	sh	a5,0(s0)
    80004a9c:	00006497          	auipc	s1,0x6
    80004aa0:	95a48493          	addi	s1,s1,-1702 # 8000a3f6 <uip_flags>
    80004aa4:	0004c783          	lbu	a5,0(s1)
    80004aa8:	0027f793          	andi	a5,a5,2
    80004aac:	00078e63          	beqz	a5,80004ac8 <dhcpc_appcall+0x230>
    80004ab0:	bc9ff0ef          	jal	ra,80004678 <parse_msg>
    80004ab4:	00500793          	li	a5,5
    80004ab8:	02f51663          	bne	a0,a5,80004ae4 <dhcpc_appcall+0x24c>
    80004abc:	00300793          	li	a5,3
    80004ac0:	00f40123          	sb	a5,2(s0)
    80004ac4:	f21ff06f          	j	800049e4 <dhcpc_appcall+0x14c>
    80004ac8:	00006517          	auipc	a0,0x6
    80004acc:	88850513          	addi	a0,a0,-1912 # 8000a350 <s+0x10>
    80004ad0:	f74fd0ef          	jal	ra,80002244 <timer_expired>
    80004ad4:	ec0508e3          	beqz	a0,800049a4 <dhcpc_appcall+0x10c>
    80004ad8:	0004c783          	lbu	a5,0(s1)
    80004adc:	0027f793          	andi	a5,a5,2
    80004ae0:	fc0798e3          	bnez	a5,80004ab0 <dhcpc_appcall+0x218>
    80004ae4:	01845783          	lhu	a5,24(s0)
    80004ae8:	00002737          	lui	a4,0x2
    80004aec:	71070713          	addi	a4,a4,1808 # 2710 <_start-0x7fffd8f0>
    80004af0:	eef76ae3          	bltu	a4,a5,800049e4 <dhcpc_appcall+0x14c>
    80004af4:	3e87879b          	addiw	a5,a5,1000
    80004af8:	ea9ff06f          	j	800049a0 <dhcpc_appcall+0x108>
    80004afc:	00006517          	auipc	a0,0x6
    80004b00:	84450513          	addi	a0,a0,-1980 # 8000a340 <s>
    80004b04:	869fb0ef          	jal	ra,8000036c <dhcpc_configured>
    80004b08:	eddff06f          	j	800049e4 <dhcpc_appcall+0x14c>

0000000080004b0c <dhcpc_request>:
    80004b0c:	00006797          	auipc	a5,0x6
    80004b10:	8367c783          	lbu	a5,-1994(a5) # 8000a342 <s+0x2>
    80004b14:	00079a63          	bnez	a5,80004b28 <dhcpc_request+0x1c>
    80004b18:	00006797          	auipc	a5,0x6
    80004b1c:	8e079023          	sh	zero,-1824(a5) # 8000a3f8 <uip_hostaddr>
    80004b20:	00006797          	auipc	a5,0x6
    80004b24:	8c079d23          	sh	zero,-1830(a5) # 8000a3fa <uip_hostaddr+0x2>
    80004b28:	00008067          	ret

0000000080004b2c <__adddf3>:
    80004b2c:	fff00813          	li	a6,-1
    80004b30:	fe010113          	addi	sp,sp,-32
    80004b34:	00c85713          	srli	a4,a6,0xc
    80004b38:	00a777b3          	and	a5,a4,a0
    80004b3c:	00813823          	sd	s0,16(sp)
    80004b40:	00913423          	sd	s1,8(sp)
    80004b44:	03455413          	srli	s0,a0,0x34
    80004b48:	03f55493          	srli	s1,a0,0x3f
    80004b4c:	0345d513          	srli	a0,a1,0x34
    80004b50:	7ff47413          	andi	s0,s0,2047
    80004b54:	7ff57513          	andi	a0,a0,2047
    80004b58:	00b77733          	and	a4,a4,a1
    80004b5c:	40a406bb          	subw	a3,s0,a0
    80004b60:	00113c23          	sd	ra,24(sp)
    80004b64:	01213023          	sd	s2,0(sp)
    80004b68:	03f5d593          	srli	a1,a1,0x3f
    80004b6c:	00379793          	slli	a5,a5,0x3
    80004b70:	00371713          	slli	a4,a4,0x3
    80004b74:	0006861b          	sext.w	a2,a3
    80004b78:	1ab49063          	bne	s1,a1,80004d18 <__adddf3+0x1ec>
    80004b7c:	0ac05a63          	blez	a2,80004c30 <__adddf3+0x104>
    80004b80:	06051863          	bnez	a0,80004bf0 <__adddf3+0xc4>
    80004b84:	04070863          	beqz	a4,80004bd4 <__adddf3+0xa8>
    80004b88:	fff6861b          	addiw	a2,a3,-1
    80004b8c:	04061063          	bnez	a2,80004bcc <__adddf3+0xa0>
    80004b90:	00e787b3          	add	a5,a5,a4
    80004b94:	0377d713          	srli	a4,a5,0x37
    80004b98:	00177713          	andi	a4,a4,1
    80004b9c:	02070c63          	beqz	a4,80004bd4 <__adddf3+0xa8>
    80004ba0:	00140413          	addi	s0,s0,1
    80004ba4:	7ff00713          	li	a4,2047
    80004ba8:	36e40663          	beq	s0,a4,80004f14 <__adddf3+0x3e8>
    80004bac:	1ff00713          	li	a4,511
    80004bb0:	03671713          	slli	a4,a4,0x36
    80004bb4:	0017f693          	andi	a3,a5,1
    80004bb8:	fff70713          	addi	a4,a4,-1
    80004bbc:	0017d793          	srli	a5,a5,0x1
    80004bc0:	00e7f7b3          	and	a5,a5,a4
    80004bc4:	00d7e7b3          	or	a5,a5,a3
    80004bc8:	00c0006f          	j	80004bd4 <__adddf3+0xa8>
    80004bcc:	7ff00693          	li	a3,2047
    80004bd0:	02d41a63          	bne	s0,a3,80004c04 <__adddf3+0xd8>
    80004bd4:	0077f713          	andi	a4,a5,7
    80004bd8:	34070063          	beqz	a4,80004f18 <__adddf3+0x3ec>
    80004bdc:	00f7f713          	andi	a4,a5,15
    80004be0:	00400693          	li	a3,4
    80004be4:	32d70a63          	beq	a4,a3,80004f18 <__adddf3+0x3ec>
    80004be8:	00478793          	addi	a5,a5,4
    80004bec:	32c0006f          	j	80004f18 <__adddf3+0x3ec>
    80004bf0:	7ff00693          	li	a3,2047
    80004bf4:	fed400e3          	beq	s0,a3,80004bd4 <__adddf3+0xa8>
    80004bf8:	00100693          	li	a3,1
    80004bfc:	03769693          	slli	a3,a3,0x37
    80004c00:	00d76733          	or	a4,a4,a3
    80004c04:	03800593          	li	a1,56
    80004c08:	00100693          	li	a3,1
    80004c0c:	00c5ce63          	blt	a1,a2,80004c28 <__adddf3+0xfc>
    80004c10:	04000693          	li	a3,64
    80004c14:	40c686bb          	subw	a3,a3,a2
    80004c18:	00c755b3          	srl	a1,a4,a2
    80004c1c:	00d71733          	sll	a4,a4,a3
    80004c20:	00e03733          	snez	a4,a4
    80004c24:	00e5e6b3          	or	a3,a1,a4
    80004c28:	00d787b3          	add	a5,a5,a3
    80004c2c:	f69ff06f          	j	80004b94 <__adddf3+0x68>
    80004c30:	06060c63          	beqz	a2,80004ca8 <__adddf3+0x17c>
    80004c34:	02041863          	bnez	s0,80004c64 <__adddf3+0x138>
    80004c38:	2c078263          	beqz	a5,80004efc <__adddf3+0x3d0>
    80004c3c:	fff6c693          	not	a3,a3
    80004c40:	0006869b          	sext.w	a3,a3
    80004c44:	00069863          	bnez	a3,80004c54 <__adddf3+0x128>
    80004c48:	00e787b3          	add	a5,a5,a4
    80004c4c:	00050413          	mv	s0,a0
    80004c50:	f45ff06f          	j	80004b94 <__adddf3+0x68>
    80004c54:	7ff00613          	li	a2,2047
    80004c58:	02c51263          	bne	a0,a2,80004c7c <__adddf3+0x150>
    80004c5c:	00070793          	mv	a5,a4
    80004c60:	2140006f          	j	80004e74 <__adddf3+0x348>
    80004c64:	7ff00613          	li	a2,2047
    80004c68:	fec50ae3          	beq	a0,a2,80004c5c <__adddf3+0x130>
    80004c6c:	00100613          	li	a2,1
    80004c70:	03761613          	slli	a2,a2,0x37
    80004c74:	40d006bb          	negw	a3,a3
    80004c78:	00c7e7b3          	or	a5,a5,a2
    80004c7c:	03800593          	li	a1,56
    80004c80:	00100613          	li	a2,1
    80004c84:	00d5ce63          	blt	a1,a3,80004ca0 <__adddf3+0x174>
    80004c88:	04000613          	li	a2,64
    80004c8c:	00d7d5b3          	srl	a1,a5,a3
    80004c90:	40d606bb          	subw	a3,a2,a3
    80004c94:	00d797b3          	sll	a5,a5,a3
    80004c98:	00f037b3          	snez	a5,a5
    80004c9c:	00f5e633          	or	a2,a1,a5
    80004ca0:	00e607b3          	add	a5,a2,a4
    80004ca4:	fa9ff06f          	j	80004c4c <__adddf3+0x120>
    80004ca8:	00140693          	addi	a3,s0,1
    80004cac:	7fe6f613          	andi	a2,a3,2046
    80004cb0:	04061863          	bnez	a2,80004d00 <__adddf3+0x1d4>
    80004cb4:	02041863          	bnez	s0,80004ce4 <__adddf3+0x1b8>
    80004cb8:	24078863          	beqz	a5,80004f08 <__adddf3+0x3dc>
    80004cbc:	f0070ce3          	beqz	a4,80004bd4 <__adddf3+0xa8>
    80004cc0:	00e787b3          	add	a5,a5,a4
    80004cc4:	0377d713          	srli	a4,a5,0x37
    80004cc8:	00177713          	andi	a4,a4,1
    80004ccc:	f00704e3          	beqz	a4,80004bd4 <__adddf3+0xa8>
    80004cd0:	03781813          	slli	a6,a6,0x37
    80004cd4:	fff80813          	addi	a6,a6,-1
    80004cd8:	0107f7b3          	and	a5,a5,a6
    80004cdc:	00100413          	li	s0,1
    80004ce0:	ef5ff06f          	j	80004bd4 <__adddf3+0xa8>
    80004ce4:	f6078ce3          	beqz	a5,80004c5c <__adddf3+0x130>
    80004ce8:	18070663          	beqz	a4,80004e74 <__adddf3+0x348>
    80004cec:	00100793          	li	a5,1
    80004cf0:	00000493          	li	s1,0
    80004cf4:	03679793          	slli	a5,a5,0x36
    80004cf8:	7ff00413          	li	s0,2047
    80004cfc:	21c0006f          	j	80004f18 <__adddf3+0x3ec>
    80004d00:	7ff00613          	li	a2,2047
    80004d04:	20c68663          	beq	a3,a2,80004f10 <__adddf3+0x3e4>
    80004d08:	00e78733          	add	a4,a5,a4
    80004d0c:	00175793          	srli	a5,a4,0x1
    80004d10:	00068413          	mv	s0,a3
    80004d14:	ec1ff06f          	j	80004bd4 <__adddf3+0xa8>
    80004d18:	06c05e63          	blez	a2,80004d94 <__adddf3+0x268>
    80004d1c:	06051063          	bnez	a0,80004d7c <__adddf3+0x250>
    80004d20:	ea070ae3          	beqz	a4,80004bd4 <__adddf3+0xa8>
    80004d24:	fff6861b          	addiw	a2,a3,-1
    80004d28:	02061063          	bnez	a2,80004d48 <__adddf3+0x21c>
    80004d2c:	40e787b3          	sub	a5,a5,a4
    80004d30:	0377d713          	srli	a4,a5,0x37
    80004d34:	00177713          	andi	a4,a4,1
    80004d38:	e8070ee3          	beqz	a4,80004bd4 <__adddf3+0xa8>
    80004d3c:	00979913          	slli	s2,a5,0x9
    80004d40:	00995913          	srli	s2,s2,0x9
    80004d44:	1500006f          	j	80004e94 <__adddf3+0x368>
    80004d48:	7ff00693          	li	a3,2047
    80004d4c:	e8d404e3          	beq	s0,a3,80004bd4 <__adddf3+0xa8>
    80004d50:	03800593          	li	a1,56
    80004d54:	00100693          	li	a3,1
    80004d58:	00c5ce63          	blt	a1,a2,80004d74 <__adddf3+0x248>
    80004d5c:	04000693          	li	a3,64
    80004d60:	40c686bb          	subw	a3,a3,a2
    80004d64:	00c755b3          	srl	a1,a4,a2
    80004d68:	00d71733          	sll	a4,a4,a3
    80004d6c:	00e03733          	snez	a4,a4
    80004d70:	00e5e6b3          	or	a3,a1,a4
    80004d74:	40d787b3          	sub	a5,a5,a3
    80004d78:	fb9ff06f          	j	80004d30 <__adddf3+0x204>
    80004d7c:	7ff00693          	li	a3,2047
    80004d80:	e4d40ae3          	beq	s0,a3,80004bd4 <__adddf3+0xa8>
    80004d84:	00100693          	li	a3,1
    80004d88:	03769693          	slli	a3,a3,0x37
    80004d8c:	00d76733          	or	a4,a4,a3
    80004d90:	fc1ff06f          	j	80004d50 <__adddf3+0x224>
    80004d94:	08060063          	beqz	a2,80004e14 <__adddf3+0x2e8>
    80004d98:	02041c63          	bnez	s0,80004dd0 <__adddf3+0x2a4>
    80004d9c:	1e078a63          	beqz	a5,80004f90 <__adddf3+0x464>
    80004da0:	fff6c693          	not	a3,a3
    80004da4:	0006869b          	sext.w	a3,a3
    80004da8:	00069a63          	bnez	a3,80004dbc <__adddf3+0x290>
    80004dac:	40f707b3          	sub	a5,a4,a5
    80004db0:	00050413          	mv	s0,a0
    80004db4:	00058493          	mv	s1,a1
    80004db8:	f79ff06f          	j	80004d30 <__adddf3+0x204>
    80004dbc:	7ff00613          	li	a2,2047
    80004dc0:	02c51463          	bne	a0,a2,80004de8 <__adddf3+0x2bc>
    80004dc4:	00070793          	mv	a5,a4
    80004dc8:	7ff00413          	li	s0,2047
    80004dcc:	0680006f          	j	80004e34 <__adddf3+0x308>
    80004dd0:	7ff00613          	li	a2,2047
    80004dd4:	fec508e3          	beq	a0,a2,80004dc4 <__adddf3+0x298>
    80004dd8:	00100613          	li	a2,1
    80004ddc:	03761613          	slli	a2,a2,0x37
    80004de0:	40d006bb          	negw	a3,a3
    80004de4:	00c7e7b3          	or	a5,a5,a2
    80004de8:	03800813          	li	a6,56
    80004dec:	00100613          	li	a2,1
    80004df0:	00d84e63          	blt	a6,a3,80004e0c <__adddf3+0x2e0>
    80004df4:	04000613          	li	a2,64
    80004df8:	00d7d833          	srl	a6,a5,a3
    80004dfc:	40d606bb          	subw	a3,a2,a3
    80004e00:	00d797b3          	sll	a5,a5,a3
    80004e04:	00f037b3          	snez	a5,a5
    80004e08:	00f86633          	or	a2,a6,a5
    80004e0c:	40c707b3          	sub	a5,a4,a2
    80004e10:	fa1ff06f          	j	80004db0 <__adddf3+0x284>
    80004e14:	00140693          	addi	a3,s0,1
    80004e18:	7fe6f693          	andi	a3,a3,2046
    80004e1c:	06069063          	bnez	a3,80004e7c <__adddf3+0x350>
    80004e20:	04041263          	bnez	s0,80004e64 <__adddf3+0x338>
    80004e24:	00079c63          	bnez	a5,80004e3c <__adddf3+0x310>
    80004e28:	00000493          	li	s1,0
    80004e2c:	0e070663          	beqz	a4,80004f18 <__adddf3+0x3ec>
    80004e30:	00070793          	mv	a5,a4
    80004e34:	00058493          	mv	s1,a1
    80004e38:	d9dff06f          	j	80004bd4 <__adddf3+0xa8>
    80004e3c:	d8070ce3          	beqz	a4,80004bd4 <__adddf3+0xa8>
    80004e40:	40e786b3          	sub	a3,a5,a4
    80004e44:	0376d613          	srli	a2,a3,0x37
    80004e48:	00167613          	andi	a2,a2,1
    80004e4c:	40f707b3          	sub	a5,a4,a5
    80004e50:	fe0612e3          	bnez	a2,80004e34 <__adddf3+0x308>
    80004e54:	00000793          	li	a5,0
    80004e58:	08068263          	beqz	a3,80004edc <__adddf3+0x3b0>
    80004e5c:	00068793          	mv	a5,a3
    80004e60:	d75ff06f          	j	80004bd4 <__adddf3+0xa8>
    80004e64:	e80792e3          	bnez	a5,80004ce8 <__adddf3+0x1bc>
    80004e68:	e80702e3          	beqz	a4,80004cec <__adddf3+0x1c0>
    80004e6c:	00070793          	mv	a5,a4
    80004e70:	00058493          	mv	s1,a1
    80004e74:	7ff00413          	li	s0,2047
    80004e78:	d5dff06f          	j	80004bd4 <__adddf3+0xa8>
    80004e7c:	40e78933          	sub	s2,a5,a4
    80004e80:	03795693          	srli	a3,s2,0x37
    80004e84:	0016f693          	andi	a3,a3,1
    80004e88:	04068463          	beqz	a3,80004ed0 <__adddf3+0x3a4>
    80004e8c:	40f70933          	sub	s2,a4,a5
    80004e90:	00058493          	mv	s1,a1
    80004e94:	00090513          	mv	a0,s2
    80004e98:	084010ef          	jal	ra,80005f1c <__clzdi2>
    80004e9c:	ff85079b          	addiw	a5,a0,-8
    80004ea0:	00f91933          	sll	s2,s2,a5
    80004ea4:	0487c063          	blt	a5,s0,80004ee4 <__adddf3+0x3b8>
    80004ea8:	4087853b          	subw	a0,a5,s0
    80004eac:	0015051b          	addiw	a0,a0,1
    80004eb0:	04000713          	li	a4,64
    80004eb4:	40a7073b          	subw	a4,a4,a0
    80004eb8:	00a957b3          	srl	a5,s2,a0
    80004ebc:	00e91933          	sll	s2,s2,a4
    80004ec0:	01203933          	snez	s2,s2
    80004ec4:	0127e7b3          	or	a5,a5,s2
    80004ec8:	00000413          	li	s0,0
    80004ecc:	d09ff06f          	j	80004bd4 <__adddf3+0xa8>
    80004ed0:	fc0912e3          	bnez	s2,80004e94 <__adddf3+0x368>
    80004ed4:	00000793          	li	a5,0
    80004ed8:	00000413          	li	s0,0
    80004edc:	00000493          	li	s1,0
    80004ee0:	0380006f          	j	80004f18 <__adddf3+0x3ec>
    80004ee4:	40f40433          	sub	s0,s0,a5
    80004ee8:	fff00793          	li	a5,-1
    80004eec:	03779793          	slli	a5,a5,0x37
    80004ef0:	fff78793          	addi	a5,a5,-1
    80004ef4:	00f977b3          	and	a5,s2,a5
    80004ef8:	cddff06f          	j	80004bd4 <__adddf3+0xa8>
    80004efc:	00070793          	mv	a5,a4
    80004f00:	00050413          	mv	s0,a0
    80004f04:	cd1ff06f          	j	80004bd4 <__adddf3+0xa8>
    80004f08:	00070793          	mv	a5,a4
    80004f0c:	cc9ff06f          	j	80004bd4 <__adddf3+0xa8>
    80004f10:	7ff00413          	li	s0,2047
    80004f14:	00000793          	li	a5,0
    80004f18:	0377d713          	srli	a4,a5,0x37
    80004f1c:	00177713          	andi	a4,a4,1
    80004f20:	02070063          	beqz	a4,80004f40 <__adddf3+0x414>
    80004f24:	00140413          	addi	s0,s0,1
    80004f28:	7ff00713          	li	a4,2047
    80004f2c:	06e40863          	beq	s0,a4,80004f9c <__adddf3+0x470>
    80004f30:	fff00713          	li	a4,-1
    80004f34:	03771713          	slli	a4,a4,0x37
    80004f38:	fff70713          	addi	a4,a4,-1
    80004f3c:	00e7f7b3          	and	a5,a5,a4
    80004f40:	7ff00713          	li	a4,2047
    80004f44:	0037d793          	srli	a5,a5,0x3
    80004f48:	00e41a63          	bne	s0,a4,80004f5c <__adddf3+0x430>
    80004f4c:	00078863          	beqz	a5,80004f5c <__adddf3+0x430>
    80004f50:	00100793          	li	a5,1
    80004f54:	03379793          	slli	a5,a5,0x33
    80004f58:	00000493          	li	s1,0
    80004f5c:	7ff47413          	andi	s0,s0,2047
    80004f60:	00c79793          	slli	a5,a5,0xc
    80004f64:	03441413          	slli	s0,s0,0x34
    80004f68:	00c7d793          	srli	a5,a5,0xc
    80004f6c:	00f46433          	or	s0,s0,a5
    80004f70:	03f49513          	slli	a0,s1,0x3f
    80004f74:	01813083          	ld	ra,24(sp)
    80004f78:	00a46533          	or	a0,s0,a0
    80004f7c:	01013403          	ld	s0,16(sp)
    80004f80:	00813483          	ld	s1,8(sp)
    80004f84:	00013903          	ld	s2,0(sp)
    80004f88:	02010113          	addi	sp,sp,32
    80004f8c:	00008067          	ret
    80004f90:	00070793          	mv	a5,a4
    80004f94:	00050413          	mv	s0,a0
    80004f98:	e9dff06f          	j	80004e34 <__adddf3+0x308>
    80004f9c:	00000793          	li	a5,0
    80004fa0:	fa1ff06f          	j	80004f40 <__adddf3+0x414>

0000000080004fa4 <__divdf3>:
    80004fa4:	fc010113          	addi	sp,sp,-64
    80004fa8:	02913423          	sd	s1,40(sp)
    80004fac:	03455493          	srli	s1,a0,0x34
    80004fb0:	03213023          	sd	s2,32(sp)
    80004fb4:	01313c23          	sd	s3,24(sp)
    80004fb8:	01413823          	sd	s4,16(sp)
    80004fbc:	00c51993          	slli	s3,a0,0xc
    80004fc0:	02113c23          	sd	ra,56(sp)
    80004fc4:	02813823          	sd	s0,48(sp)
    80004fc8:	01513423          	sd	s5,8(sp)
    80004fcc:	7ff4f493          	andi	s1,s1,2047
    80004fd0:	00058a13          	mv	s4,a1
    80004fd4:	00c9d993          	srli	s3,s3,0xc
    80004fd8:	03f55913          	srli	s2,a0,0x3f
    80004fdc:	08048a63          	beqz	s1,80005070 <__divdf3+0xcc>
    80004fe0:	7ff00793          	li	a5,2047
    80004fe4:	0af48863          	beq	s1,a5,80005094 <__divdf3+0xf0>
    80004fe8:	00100793          	li	a5,1
    80004fec:	00399993          	slli	s3,s3,0x3
    80004ff0:	03779793          	slli	a5,a5,0x37
    80004ff4:	00f9e9b3          	or	s3,s3,a5
    80004ff8:	c0148493          	addi	s1,s1,-1023
    80004ffc:	00000a93          	li	s5,0
    80005000:	034a5793          	srli	a5,s4,0x34
    80005004:	00ca1413          	slli	s0,s4,0xc
    80005008:	7ff7f793          	andi	a5,a5,2047
    8000500c:	00c45413          	srli	s0,s0,0xc
    80005010:	03fa5a13          	srli	s4,s4,0x3f
    80005014:	0a078063          	beqz	a5,800050b4 <__divdf3+0x110>
    80005018:	7ff00713          	li	a4,2047
    8000501c:	0ae78e63          	beq	a5,a4,800050d8 <__divdf3+0x134>
    80005020:	00100713          	li	a4,1
    80005024:	00341413          	slli	s0,s0,0x3
    80005028:	03771713          	slli	a4,a4,0x37
    8000502c:	00e46433          	or	s0,s0,a4
    80005030:	c0178793          	addi	a5,a5,-1023
    80005034:	00000713          	li	a4,0
    80005038:	40f484b3          	sub	s1,s1,a5
    8000503c:	002a9793          	slli	a5,s5,0x2
    80005040:	00e7e7b3          	or	a5,a5,a4
    80005044:	fff78793          	addi	a5,a5,-1
    80005048:	00e00613          	li	a2,14
    8000504c:	014946b3          	xor	a3,s2,s4
    80005050:	0af66463          	bltu	a2,a5,800050f8 <__divdf3+0x154>
    80005054:	00004617          	auipc	a2,0x4
    80005058:	1fc60613          	addi	a2,a2,508 # 80009250 <pow10.0+0x258>
    8000505c:	00279793          	slli	a5,a5,0x2
    80005060:	00c787b3          	add	a5,a5,a2
    80005064:	0007a783          	lw	a5,0(a5)
    80005068:	00c787b3          	add	a5,a5,a2
    8000506c:	00078067          	jr	a5
    80005070:	02098c63          	beqz	s3,800050a8 <__divdf3+0x104>
    80005074:	00098513          	mv	a0,s3
    80005078:	6a5000ef          	jal	ra,80005f1c <__clzdi2>
    8000507c:	0005079b          	sext.w	a5,a0
    80005080:	c0d00493          	li	s1,-1011
    80005084:	ff85051b          	addiw	a0,a0,-8
    80005088:	00a999b3          	sll	s3,s3,a0
    8000508c:	40f484b3          	sub	s1,s1,a5
    80005090:	f6dff06f          	j	80004ffc <__divdf3+0x58>
    80005094:	7ff00493          	li	s1,2047
    80005098:	00200a93          	li	s5,2
    8000509c:	f60982e3          	beqz	s3,80005000 <__divdf3+0x5c>
    800050a0:	00300a93          	li	s5,3
    800050a4:	f5dff06f          	j	80005000 <__divdf3+0x5c>
    800050a8:	00000493          	li	s1,0
    800050ac:	00100a93          	li	s5,1
    800050b0:	f51ff06f          	j	80005000 <__divdf3+0x5c>
    800050b4:	02040c63          	beqz	s0,800050ec <__divdf3+0x148>
    800050b8:	00040513          	mv	a0,s0
    800050bc:	661000ef          	jal	ra,80005f1c <__clzdi2>
    800050c0:	0005071b          	sext.w	a4,a0
    800050c4:	c0d00793          	li	a5,-1011
    800050c8:	ff85051b          	addiw	a0,a0,-8
    800050cc:	00a41433          	sll	s0,s0,a0
    800050d0:	40e787b3          	sub	a5,a5,a4
    800050d4:	f61ff06f          	j	80005034 <__divdf3+0x90>
    800050d8:	7ff00793          	li	a5,2047
    800050dc:	00200713          	li	a4,2
    800050e0:	f4040ce3          	beqz	s0,80005038 <__divdf3+0x94>
    800050e4:	00300713          	li	a4,3
    800050e8:	f51ff06f          	j	80005038 <__divdf3+0x94>
    800050ec:	00000793          	li	a5,0
    800050f0:	00100713          	li	a4,1
    800050f4:	f45ff06f          	j	80005038 <__divdf3+0x94>
    800050f8:	00841613          	slli	a2,s0,0x8
    800050fc:	1289f463          	bgeu	s3,s0,80005224 <__divdf3+0x280>
    80005100:	fff48493          	addi	s1,s1,-1
    80005104:	00000793          	li	a5,0
    80005108:	02065593          	srli	a1,a2,0x20
    8000510c:	02b9d833          	divu	a6,s3,a1
    80005110:	fff00713          	li	a4,-1
    80005114:	02075713          	srli	a4,a4,0x20
    80005118:	00e67733          	and	a4,a2,a4
    8000511c:	0207d793          	srli	a5,a5,0x20
    80005120:	02b9f9b3          	remu	s3,s3,a1
    80005124:	00080413          	mv	s0,a6
    80005128:	03070533          	mul	a0,a4,a6
    8000512c:	02099993          	slli	s3,s3,0x20
    80005130:	0137e7b3          	or	a5,a5,s3
    80005134:	00a7fe63          	bgeu	a5,a0,80005150 <__divdf3+0x1ac>
    80005138:	00c787b3          	add	a5,a5,a2
    8000513c:	fff80413          	addi	s0,a6,-1
    80005140:	00c7e863          	bltu	a5,a2,80005150 <__divdf3+0x1ac>
    80005144:	00a7f663          	bgeu	a5,a0,80005150 <__divdf3+0x1ac>
    80005148:	ffe80413          	addi	s0,a6,-2
    8000514c:	00c787b3          	add	a5,a5,a2
    80005150:	40a787b3          	sub	a5,a5,a0
    80005154:	02b7d533          	divu	a0,a5,a1
    80005158:	02b7f7b3          	remu	a5,a5,a1
    8000515c:	00050593          	mv	a1,a0
    80005160:	02a70733          	mul	a4,a4,a0
    80005164:	02079793          	slli	a5,a5,0x20
    80005168:	00e7fe63          	bgeu	a5,a4,80005184 <__divdf3+0x1e0>
    8000516c:	00c787b3          	add	a5,a5,a2
    80005170:	fff50593          	addi	a1,a0,-1
    80005174:	00c7e863          	bltu	a5,a2,80005184 <__divdf3+0x1e0>
    80005178:	00e7f663          	bgeu	a5,a4,80005184 <__divdf3+0x1e0>
    8000517c:	ffe50593          	addi	a1,a0,-2
    80005180:	00c787b3          	add	a5,a5,a2
    80005184:	02041413          	slli	s0,s0,0x20
    80005188:	40e787b3          	sub	a5,a5,a4
    8000518c:	00b46433          	or	s0,s0,a1
    80005190:	00f037b3          	snez	a5,a5
    80005194:	00f46433          	or	s0,s0,a5
    80005198:	3ff48713          	addi	a4,s1,1023
    8000519c:	0ee05063          	blez	a4,8000527c <__divdf3+0x2d8>
    800051a0:	00747793          	andi	a5,s0,7
    800051a4:	00078a63          	beqz	a5,800051b8 <__divdf3+0x214>
    800051a8:	00f47793          	andi	a5,s0,15
    800051ac:	00400613          	li	a2,4
    800051b0:	00c78463          	beq	a5,a2,800051b8 <__divdf3+0x214>
    800051b4:	00440413          	addi	s0,s0,4
    800051b8:	03845793          	srli	a5,s0,0x38
    800051bc:	0017f793          	andi	a5,a5,1
    800051c0:	00078c63          	beqz	a5,800051d8 <__divdf3+0x234>
    800051c4:	fff00793          	li	a5,-1
    800051c8:	03879793          	slli	a5,a5,0x38
    800051cc:	fff78793          	addi	a5,a5,-1
    800051d0:	00f47433          	and	s0,s0,a5
    800051d4:	40048713          	addi	a4,s1,1024
    800051d8:	7fe00793          	li	a5,2046
    800051dc:	06e7cc63          	blt	a5,a4,80005254 <__divdf3+0x2b0>
    800051e0:	00345793          	srli	a5,s0,0x3
    800051e4:	03813083          	ld	ra,56(sp)
    800051e8:	03013403          	ld	s0,48(sp)
    800051ec:	7ff77713          	andi	a4,a4,2047
    800051f0:	00c79793          	slli	a5,a5,0xc
    800051f4:	03471713          	slli	a4,a4,0x34
    800051f8:	00c7d793          	srli	a5,a5,0xc
    800051fc:	00f76733          	or	a4,a4,a5
    80005200:	03f69513          	slli	a0,a3,0x3f
    80005204:	02813483          	ld	s1,40(sp)
    80005208:	02013903          	ld	s2,32(sp)
    8000520c:	01813983          	ld	s3,24(sp)
    80005210:	01013a03          	ld	s4,16(sp)
    80005214:	00813a83          	ld	s5,8(sp)
    80005218:	00a76533          	or	a0,a4,a0
    8000521c:	04010113          	addi	sp,sp,64
    80005220:	00008067          	ret
    80005224:	03f99793          	slli	a5,s3,0x3f
    80005228:	0019d993          	srli	s3,s3,0x1
    8000522c:	eddff06f          	j	80005108 <__divdf3+0x164>
    80005230:	00090693          	mv	a3,s2
    80005234:	00098413          	mv	s0,s3
    80005238:	000a8713          	mv	a4,s5
    8000523c:	00300793          	li	a5,3
    80005240:	08f70c63          	beq	a4,a5,800052d8 <__divdf3+0x334>
    80005244:	00100793          	li	a5,1
    80005248:	0af70263          	beq	a4,a5,800052ec <__divdf3+0x348>
    8000524c:	00200793          	li	a5,2
    80005250:	f4f714e3          	bne	a4,a5,80005198 <__divdf3+0x1f4>
    80005254:	00000793          	li	a5,0
    80005258:	7ff00713          	li	a4,2047
    8000525c:	f89ff06f          	j	800051e4 <__divdf3+0x240>
    80005260:	000a0693          	mv	a3,s4
    80005264:	fd9ff06f          	j	8000523c <__divdf3+0x298>
    80005268:	00100413          	li	s0,1
    8000526c:	03341413          	slli	s0,s0,0x33
    80005270:	00000693          	li	a3,0
    80005274:	00300713          	li	a4,3
    80005278:	fc5ff06f          	j	8000523c <__divdf3+0x298>
    8000527c:	00100793          	li	a5,1
    80005280:	40e78733          	sub	a4,a5,a4
    80005284:	03800793          	li	a5,56
    80005288:	06e7c263          	blt	a5,a4,800052ec <__divdf3+0x348>
    8000528c:	04000613          	li	a2,64
    80005290:	00e457b3          	srl	a5,s0,a4
    80005294:	40e6073b          	subw	a4,a2,a4
    80005298:	00e41433          	sll	s0,s0,a4
    8000529c:	00803433          	snez	s0,s0
    800052a0:	0087e7b3          	or	a5,a5,s0
    800052a4:	0077f713          	andi	a4,a5,7
    800052a8:	00070a63          	beqz	a4,800052bc <__divdf3+0x318>
    800052ac:	00f7f713          	andi	a4,a5,15
    800052b0:	00400613          	li	a2,4
    800052b4:	00c70463          	beq	a4,a2,800052bc <__divdf3+0x318>
    800052b8:	00478793          	addi	a5,a5,4
    800052bc:	0377d713          	srli	a4,a5,0x37
    800052c0:	00177713          	andi	a4,a4,1
    800052c4:	0037d793          	srli	a5,a5,0x3
    800052c8:	f0070ee3          	beqz	a4,800051e4 <__divdf3+0x240>
    800052cc:	00000793          	li	a5,0
    800052d0:	00100713          	li	a4,1
    800052d4:	f11ff06f          	j	800051e4 <__divdf3+0x240>
    800052d8:	00100793          	li	a5,1
    800052dc:	03379793          	slli	a5,a5,0x33
    800052e0:	7ff00713          	li	a4,2047
    800052e4:	00000693          	li	a3,0
    800052e8:	efdff06f          	j	800051e4 <__divdf3+0x240>
    800052ec:	00000793          	li	a5,0
    800052f0:	00000713          	li	a4,0
    800052f4:	ef1ff06f          	j	800051e4 <__divdf3+0x240>

00000000800052f8 <__eqdf2>:
    800052f8:	fff00793          	li	a5,-1
    800052fc:	03455613          	srli	a2,a0,0x34
    80005300:	00c7d793          	srli	a5,a5,0xc
    80005304:	0345d813          	srli	a6,a1,0x34
    80005308:	7ff67613          	andi	a2,a2,2047
    8000530c:	7ff00693          	li	a3,2047
    80005310:	00a7f8b3          	and	a7,a5,a0
    80005314:	03f55713          	srli	a4,a0,0x3f
    80005318:	00b7f7b3          	and	a5,a5,a1
    8000531c:	7ff87813          	andi	a6,a6,2047
    80005320:	03f5d593          	srli	a1,a1,0x3f
    80005324:	00d61e63          	bne	a2,a3,80005340 <__eqdf2+0x48>
    80005328:	00100513          	li	a0,1
    8000532c:	04089663          	bnez	a7,80005378 <__eqdf2+0x80>
    80005330:	00100693          	li	a3,1
    80005334:	02c81863          	bne	a6,a2,80005364 <__eqdf2+0x6c>
    80005338:	00078c63          	beqz	a5,80005350 <__eqdf2+0x58>
    8000533c:	00008067          	ret
    80005340:	02d80663          	beq	a6,a3,8000536c <__eqdf2+0x74>
    80005344:	00100693          	li	a3,1
    80005348:	01061e63          	bne	a2,a6,80005364 <__eqdf2+0x6c>
    8000534c:	00f89c63          	bne	a7,a5,80005364 <__eqdf2+0x6c>
    80005350:	00000693          	li	a3,0
    80005354:	00b70863          	beq	a4,a1,80005364 <__eqdf2+0x6c>
    80005358:	00100693          	li	a3,1
    8000535c:	00061463          	bnez	a2,80005364 <__eqdf2+0x6c>
    80005360:	011036b3          	snez	a3,a7
    80005364:	00068513          	mv	a0,a3
    80005368:	00008067          	ret
    8000536c:	00100513          	li	a0,1
    80005370:	00100693          	li	a3,1
    80005374:	fe0788e3          	beqz	a5,80005364 <__eqdf2+0x6c>
    80005378:	00008067          	ret

000000008000537c <__gedf2>:
    8000537c:	fff00713          	li	a4,-1
    80005380:	00c75713          	srli	a4,a4,0xc
    80005384:	03455693          	srli	a3,a0,0x34
    80005388:	00a77633          	and	a2,a4,a0
    8000538c:	03f55793          	srli	a5,a0,0x3f
    80005390:	7ff6f693          	andi	a3,a3,2047
    80005394:	0345d513          	srli	a0,a1,0x34
    80005398:	7ff00813          	li	a6,2047
    8000539c:	00b77733          	and	a4,a4,a1
    800053a0:	7ff57513          	andi	a0,a0,2047
    800053a4:	03f5d593          	srli	a1,a1,0x3f
    800053a8:	01069863          	bne	a3,a6,800053b8 <__gedf2+0x3c>
    800053ac:	06060c63          	beqz	a2,80005424 <__gedf2+0xa8>
    800053b0:	ffe00513          	li	a0,-2
    800053b4:	00008067          	ret
    800053b8:	01051463          	bne	a0,a6,800053c0 <__gedf2+0x44>
    800053bc:	fe071ae3          	bnez	a4,800053b0 <__gedf2+0x34>
    800053c0:	06069463          	bnez	a3,80005428 <__gedf2+0xac>
    800053c4:	00051463          	bnez	a0,800053cc <__gedf2+0x50>
    800053c8:	04070a63          	beqz	a4,8000541c <__gedf2+0xa0>
    800053cc:	00060e63          	beqz	a2,800053e8 <__gedf2+0x6c>
    800053d0:	00b79463          	bne	a5,a1,800053d8 <__gedf2+0x5c>
    800053d4:	02d55263          	bge	a0,a3,800053f8 <__gedf2+0x7c>
    800053d8:	00100513          	li	a0,1
    800053dc:	02078e63          	beqz	a5,80005418 <__gedf2+0x9c>
    800053e0:	fff00513          	li	a0,-1
    800053e4:	00008067          	ret
    800053e8:	fff00513          	li	a0,-1
    800053ec:	02058663          	beqz	a1,80005418 <__gedf2+0x9c>
    800053f0:	00058513          	mv	a0,a1
    800053f4:	00008067          	ret
    800053f8:	00a6da63          	bge	a3,a0,8000540c <__gedf2+0x90>
    800053fc:	fff00513          	li	a0,-1
    80005400:	00078c63          	beqz	a5,80005418 <__gedf2+0x9c>
    80005404:	00078513          	mv	a0,a5
    80005408:	00008067          	ret
    8000540c:	fcc766e3          	bltu	a4,a2,800053d8 <__gedf2+0x5c>
    80005410:	00000513          	li	a0,0
    80005414:	fee664e3          	bltu	a2,a4,800053fc <__gedf2+0x80>
    80005418:	00008067          	ret
    8000541c:	fe060ee3          	beqz	a2,80005418 <__gedf2+0x9c>
    80005420:	fb9ff06f          	j	800053d8 <__gedf2+0x5c>
    80005424:	f8d50ce3          	beq	a0,a3,800053bc <__gedf2+0x40>
    80005428:	fa0514e3          	bnez	a0,800053d0 <__gedf2+0x54>
    8000542c:	fa0706e3          	beqz	a4,800053d8 <__gedf2+0x5c>
    80005430:	fa1ff06f          	j	800053d0 <__gedf2+0x54>

0000000080005434 <__ledf2>:
    80005434:	fff00713          	li	a4,-1
    80005438:	00c75713          	srli	a4,a4,0xc
    8000543c:	03455693          	srli	a3,a0,0x34
    80005440:	00a77633          	and	a2,a4,a0
    80005444:	03f55793          	srli	a5,a0,0x3f
    80005448:	7ff6f693          	andi	a3,a3,2047
    8000544c:	0345d513          	srli	a0,a1,0x34
    80005450:	7ff00813          	li	a6,2047
    80005454:	00b77733          	and	a4,a4,a1
    80005458:	7ff57513          	andi	a0,a0,2047
    8000545c:	03f5d593          	srli	a1,a1,0x3f
    80005460:	01069863          	bne	a3,a6,80005470 <__ledf2+0x3c>
    80005464:	06060c63          	beqz	a2,800054dc <__ledf2+0xa8>
    80005468:	00200513          	li	a0,2
    8000546c:	00008067          	ret
    80005470:	01051463          	bne	a0,a6,80005478 <__ledf2+0x44>
    80005474:	fe071ae3          	bnez	a4,80005468 <__ledf2+0x34>
    80005478:	06069463          	bnez	a3,800054e0 <__ledf2+0xac>
    8000547c:	00051463          	bnez	a0,80005484 <__ledf2+0x50>
    80005480:	04070a63          	beqz	a4,800054d4 <__ledf2+0xa0>
    80005484:	00060e63          	beqz	a2,800054a0 <__ledf2+0x6c>
    80005488:	00b79463          	bne	a5,a1,80005490 <__ledf2+0x5c>
    8000548c:	02d55263          	bge	a0,a3,800054b0 <__ledf2+0x7c>
    80005490:	00100513          	li	a0,1
    80005494:	02078e63          	beqz	a5,800054d0 <__ledf2+0x9c>
    80005498:	fff00513          	li	a0,-1
    8000549c:	00008067          	ret
    800054a0:	fff00513          	li	a0,-1
    800054a4:	02058663          	beqz	a1,800054d0 <__ledf2+0x9c>
    800054a8:	00058513          	mv	a0,a1
    800054ac:	00008067          	ret
    800054b0:	00a6da63          	bge	a3,a0,800054c4 <__ledf2+0x90>
    800054b4:	fff00513          	li	a0,-1
    800054b8:	00078c63          	beqz	a5,800054d0 <__ledf2+0x9c>
    800054bc:	00078513          	mv	a0,a5
    800054c0:	00008067          	ret
    800054c4:	fcc766e3          	bltu	a4,a2,80005490 <__ledf2+0x5c>
    800054c8:	00000513          	li	a0,0
    800054cc:	fee664e3          	bltu	a2,a4,800054b4 <__ledf2+0x80>
    800054d0:	00008067          	ret
    800054d4:	fe060ee3          	beqz	a2,800054d0 <__ledf2+0x9c>
    800054d8:	fb9ff06f          	j	80005490 <__ledf2+0x5c>
    800054dc:	f8d50ce3          	beq	a0,a3,80005474 <__ledf2+0x40>
    800054e0:	fa0514e3          	bnez	a0,80005488 <__ledf2+0x54>
    800054e4:	fa0706e3          	beqz	a4,80005490 <__ledf2+0x5c>
    800054e8:	fa1ff06f          	j	80005488 <__ledf2+0x54>

00000000800054ec <__muldf3>:
    800054ec:	fc010113          	addi	sp,sp,-64
    800054f0:	03213023          	sd	s2,32(sp)
    800054f4:	03455913          	srli	s2,a0,0x34
    800054f8:	02913423          	sd	s1,40(sp)
    800054fc:	01313c23          	sd	s3,24(sp)
    80005500:	01513423          	sd	s5,8(sp)
    80005504:	00c51493          	slli	s1,a0,0xc
    80005508:	02113c23          	sd	ra,56(sp)
    8000550c:	02813823          	sd	s0,48(sp)
    80005510:	01413823          	sd	s4,16(sp)
    80005514:	7ff97913          	andi	s2,s2,2047
    80005518:	00058a93          	mv	s5,a1
    8000551c:	00c4d493          	srli	s1,s1,0xc
    80005520:	03f55993          	srli	s3,a0,0x3f
    80005524:	1a090663          	beqz	s2,800056d0 <__muldf3+0x1e4>
    80005528:	7ff00793          	li	a5,2047
    8000552c:	1cf90463          	beq	s2,a5,800056f4 <__muldf3+0x208>
    80005530:	00100793          	li	a5,1
    80005534:	00349493          	slli	s1,s1,0x3
    80005538:	03779793          	slli	a5,a5,0x37
    8000553c:	00f4e4b3          	or	s1,s1,a5
    80005540:	c0190913          	addi	s2,s2,-1023
    80005544:	00000a13          	li	s4,0
    80005548:	034ad793          	srli	a5,s5,0x34
    8000554c:	00ca9413          	slli	s0,s5,0xc
    80005550:	7ff7f793          	andi	a5,a5,2047
    80005554:	00c45413          	srli	s0,s0,0xc
    80005558:	03fada93          	srli	s5,s5,0x3f
    8000555c:	1a078c63          	beqz	a5,80005714 <__muldf3+0x228>
    80005560:	7ff00713          	li	a4,2047
    80005564:	1ce78a63          	beq	a5,a4,80005738 <__muldf3+0x24c>
    80005568:	00100713          	li	a4,1
    8000556c:	00341413          	slli	s0,s0,0x3
    80005570:	03771713          	slli	a4,a4,0x37
    80005574:	00e46433          	or	s0,s0,a4
    80005578:	c0178793          	addi	a5,a5,-1023
    8000557c:	00000613          	li	a2,0
    80005580:	002a1713          	slli	a4,s4,0x2
    80005584:	00f90933          	add	s2,s2,a5
    80005588:	00c76733          	or	a4,a4,a2
    8000558c:	00a00793          	li	a5,10
    80005590:	0159c6b3          	xor	a3,s3,s5
    80005594:	00190513          	addi	a0,s2,1
    80005598:	20e7c863          	blt	a5,a4,800057a8 <__muldf3+0x2bc>
    8000559c:	00200793          	li	a5,2
    800055a0:	1ae7cc63          	blt	a5,a4,80005758 <__muldf3+0x26c>
    800055a4:	fff70713          	addi	a4,a4,-1
    800055a8:	00100793          	li	a5,1
    800055ac:	1ce7f863          	bgeu	a5,a4,8000577c <__muldf3+0x290>
    800055b0:	fff00713          	li	a4,-1
    800055b4:	02075713          	srli	a4,a4,0x20
    800055b8:	0204d613          	srli	a2,s1,0x20
    800055bc:	02045793          	srli	a5,s0,0x20
    800055c0:	00e4f4b3          	and	s1,s1,a4
    800055c4:	00e47733          	and	a4,s0,a4
    800055c8:	02970833          	mul	a6,a4,s1
    800055cc:	02e60733          	mul	a4,a2,a4
    800055d0:	02f60633          	mul	a2,a2,a5
    800055d4:	029787b3          	mul	a5,a5,s1
    800055d8:	00e785b3          	add	a1,a5,a4
    800055dc:	02085793          	srli	a5,a6,0x20
    800055e0:	00b787b3          	add	a5,a5,a1
    800055e4:	00e7f863          	bgeu	a5,a4,800055f4 <__muldf3+0x108>
    800055e8:	00100713          	li	a4,1
    800055ec:	02071713          	slli	a4,a4,0x20
    800055f0:	00e60633          	add	a2,a2,a4
    800055f4:	fff00593          	li	a1,-1
    800055f8:	0205d593          	srli	a1,a1,0x20
    800055fc:	00b7f733          	and	a4,a5,a1
    80005600:	02071713          	slli	a4,a4,0x20
    80005604:	00b87833          	and	a6,a6,a1
    80005608:	01070733          	add	a4,a4,a6
    8000560c:	00971413          	slli	s0,a4,0x9
    80005610:	0207d793          	srli	a5,a5,0x20
    80005614:	00803433          	snez	s0,s0
    80005618:	03775713          	srli	a4,a4,0x37
    8000561c:	00c787b3          	add	a5,a5,a2
    80005620:	00979793          	slli	a5,a5,0x9
    80005624:	00e46433          	or	s0,s0,a4
    80005628:	0087e433          	or	s0,a5,s0
    8000562c:	0387d793          	srli	a5,a5,0x38
    80005630:	0017f793          	andi	a5,a5,1
    80005634:	1a078463          	beqz	a5,800057dc <__muldf3+0x2f0>
    80005638:	00145793          	srli	a5,s0,0x1
    8000563c:	00147413          	andi	s0,s0,1
    80005640:	0087e433          	or	s0,a5,s0
    80005644:	3ff50713          	addi	a4,a0,1023
    80005648:	18e05e63          	blez	a4,800057e4 <__muldf3+0x2f8>
    8000564c:	00747793          	andi	a5,s0,7
    80005650:	00078a63          	beqz	a5,80005664 <__muldf3+0x178>
    80005654:	00f47793          	andi	a5,s0,15
    80005658:	00400613          	li	a2,4
    8000565c:	00c78463          	beq	a5,a2,80005664 <__muldf3+0x178>
    80005660:	00440413          	addi	s0,s0,4
    80005664:	03845793          	srli	a5,s0,0x38
    80005668:	0017f793          	andi	a5,a5,1
    8000566c:	00078c63          	beqz	a5,80005684 <__muldf3+0x198>
    80005670:	fff00793          	li	a5,-1
    80005674:	03879793          	slli	a5,a5,0x38
    80005678:	fff78793          	addi	a5,a5,-1
    8000567c:	00f47433          	and	s0,s0,a5
    80005680:	40050713          	addi	a4,a0,1024
    80005684:	7fe00793          	li	a5,2046
    80005688:	1ce7c663          	blt	a5,a4,80005854 <__muldf3+0x368>
    8000568c:	00345793          	srli	a5,s0,0x3
    80005690:	03813083          	ld	ra,56(sp)
    80005694:	03013403          	ld	s0,48(sp)
    80005698:	7ff77713          	andi	a4,a4,2047
    8000569c:	00c79793          	slli	a5,a5,0xc
    800056a0:	03471713          	slli	a4,a4,0x34
    800056a4:	00c7d793          	srli	a5,a5,0xc
    800056a8:	00f76733          	or	a4,a4,a5
    800056ac:	03f69513          	slli	a0,a3,0x3f
    800056b0:	02813483          	ld	s1,40(sp)
    800056b4:	02013903          	ld	s2,32(sp)
    800056b8:	01813983          	ld	s3,24(sp)
    800056bc:	01013a03          	ld	s4,16(sp)
    800056c0:	00813a83          	ld	s5,8(sp)
    800056c4:	00a76533          	or	a0,a4,a0
    800056c8:	04010113          	addi	sp,sp,64
    800056cc:	00008067          	ret
    800056d0:	02048c63          	beqz	s1,80005708 <__muldf3+0x21c>
    800056d4:	00048513          	mv	a0,s1
    800056d8:	045000ef          	jal	ra,80005f1c <__clzdi2>
    800056dc:	0005079b          	sext.w	a5,a0
    800056e0:	c0d00913          	li	s2,-1011
    800056e4:	ff85051b          	addiw	a0,a0,-8
    800056e8:	00a494b3          	sll	s1,s1,a0
    800056ec:	40f90933          	sub	s2,s2,a5
    800056f0:	e55ff06f          	j	80005544 <__muldf3+0x58>
    800056f4:	7ff00913          	li	s2,2047
    800056f8:	00200a13          	li	s4,2
    800056fc:	e40486e3          	beqz	s1,80005548 <__muldf3+0x5c>
    80005700:	00300a13          	li	s4,3
    80005704:	e45ff06f          	j	80005548 <__muldf3+0x5c>
    80005708:	00000913          	li	s2,0
    8000570c:	00100a13          	li	s4,1
    80005710:	e39ff06f          	j	80005548 <__muldf3+0x5c>
    80005714:	02040c63          	beqz	s0,8000574c <__muldf3+0x260>
    80005718:	00040513          	mv	a0,s0
    8000571c:	001000ef          	jal	ra,80005f1c <__clzdi2>
    80005720:	0005071b          	sext.w	a4,a0
    80005724:	c0d00793          	li	a5,-1011
    80005728:	ff85051b          	addiw	a0,a0,-8
    8000572c:	00a41433          	sll	s0,s0,a0
    80005730:	40e787b3          	sub	a5,a5,a4
    80005734:	e49ff06f          	j	8000557c <__muldf3+0x90>
    80005738:	7ff00793          	li	a5,2047
    8000573c:	00200613          	li	a2,2
    80005740:	e40400e3          	beqz	s0,80005580 <__muldf3+0x94>
    80005744:	00300613          	li	a2,3
    80005748:	e39ff06f          	j	80005580 <__muldf3+0x94>
    8000574c:	00000793          	li	a5,0
    80005750:	00100613          	li	a2,1
    80005754:	e2dff06f          	j	80005580 <__muldf3+0x94>
    80005758:	00100793          	li	a5,1
    8000575c:	00e79733          	sll	a4,a5,a4
    80005760:	53077593          	andi	a1,a4,1328
    80005764:	04059c63          	bnez	a1,800057bc <__muldf3+0x2d0>
    80005768:	24077593          	andi	a1,a4,576
    8000576c:	0c059c63          	bnez	a1,80005844 <__muldf3+0x358>
    80005770:	08877713          	andi	a4,a4,136
    80005774:	e2070ee3          	beqz	a4,800055b0 <__muldf3+0xc4>
    80005778:	000a8693          	mv	a3,s5
    8000577c:	00200593          	li	a1,2
    80005780:	00000793          	li	a5,0
    80005784:	7ff00713          	li	a4,2047
    80005788:	f0b604e3          	beq	a2,a1,80005690 <__muldf3+0x1a4>
    8000578c:	00300793          	li	a5,3
    80005790:	0af60863          	beq	a2,a5,80005840 <__muldf3+0x354>
    80005794:	00100793          	li	a5,1
    80005798:	eaf616e3          	bne	a2,a5,80005644 <__muldf3+0x158>
    8000579c:	00000793          	li	a5,0
    800057a0:	00000713          	li	a4,0
    800057a4:	eedff06f          	j	80005690 <__muldf3+0x1a4>
    800057a8:	00f00793          	li	a5,15
    800057ac:	00f70e63          	beq	a4,a5,800057c8 <__muldf3+0x2dc>
    800057b0:	00b00793          	li	a5,11
    800057b4:	fcf702e3          	beq	a4,a5,80005778 <__muldf3+0x28c>
    800057b8:	00098693          	mv	a3,s3
    800057bc:	00048413          	mv	s0,s1
    800057c0:	000a0613          	mv	a2,s4
    800057c4:	fb9ff06f          	j	8000577c <__muldf3+0x290>
    800057c8:	00100413          	li	s0,1
    800057cc:	03341413          	slli	s0,s0,0x33
    800057d0:	00000693          	li	a3,0
    800057d4:	00300613          	li	a2,3
    800057d8:	fb5ff06f          	j	8000578c <__muldf3+0x2a0>
    800057dc:	00090513          	mv	a0,s2
    800057e0:	e65ff06f          	j	80005644 <__muldf3+0x158>
    800057e4:	00100793          	li	a5,1
    800057e8:	40e78733          	sub	a4,a5,a4
    800057ec:	03800793          	li	a5,56
    800057f0:	fae7c6e3          	blt	a5,a4,8000579c <__muldf3+0x2b0>
    800057f4:	04000613          	li	a2,64
    800057f8:	00e457b3          	srl	a5,s0,a4
    800057fc:	40e6073b          	subw	a4,a2,a4
    80005800:	00e41433          	sll	s0,s0,a4
    80005804:	00803433          	snez	s0,s0
    80005808:	0087e7b3          	or	a5,a5,s0
    8000580c:	0077f713          	andi	a4,a5,7
    80005810:	00070a63          	beqz	a4,80005824 <__muldf3+0x338>
    80005814:	00f7f713          	andi	a4,a5,15
    80005818:	00400613          	li	a2,4
    8000581c:	00c70463          	beq	a4,a2,80005824 <__muldf3+0x338>
    80005820:	00478793          	addi	a5,a5,4
    80005824:	0377d713          	srli	a4,a5,0x37
    80005828:	00177713          	andi	a4,a4,1
    8000582c:	0037d793          	srli	a5,a5,0x3
    80005830:	e60700e3          	beqz	a4,80005690 <__muldf3+0x1a4>
    80005834:	00000793          	li	a5,0
    80005838:	00100713          	li	a4,1
    8000583c:	e55ff06f          	j	80005690 <__muldf3+0x1a4>
    80005840:	00100793          	li	a5,1
    80005844:	03379793          	slli	a5,a5,0x33
    80005848:	7ff00713          	li	a4,2047
    8000584c:	00000693          	li	a3,0
    80005850:	e41ff06f          	j	80005690 <__muldf3+0x1a4>
    80005854:	00000793          	li	a5,0
    80005858:	7ff00713          	li	a4,2047
    8000585c:	e35ff06f          	j	80005690 <__muldf3+0x1a4>

0000000080005860 <__subdf3>:
    80005860:	fff00713          	li	a4,-1
    80005864:	fe010113          	addi	sp,sp,-32
    80005868:	00c75713          	srli	a4,a4,0xc
    8000586c:	0345d813          	srli	a6,a1,0x34
    80005870:	03455613          	srli	a2,a0,0x34
    80005874:	00a777b3          	and	a5,a4,a0
    80005878:	00813823          	sd	s0,16(sp)
    8000587c:	00b77733          	and	a4,a4,a1
    80005880:	00913423          	sd	s1,8(sp)
    80005884:	7ff67613          	andi	a2,a2,2047
    80005888:	00113c23          	sd	ra,24(sp)
    8000588c:	01213023          	sd	s2,0(sp)
    80005890:	7ff87813          	andi	a6,a6,2047
    80005894:	7ff00693          	li	a3,2047
    80005898:	00060413          	mv	s0,a2
    8000589c:	03f55493          	srli	s1,a0,0x3f
    800058a0:	00379793          	slli	a5,a5,0x3
    800058a4:	03f5d593          	srli	a1,a1,0x3f
    800058a8:	00371713          	slli	a4,a4,0x3
    800058ac:	00d81463          	bne	a6,a3,800058b4 <__subdf3+0x54>
    800058b0:	00071463          	bnez	a4,800058b8 <__subdf3+0x58>
    800058b4:	0015c593          	xori	a1,a1,1
    800058b8:	410606bb          	subw	a3,a2,a6
    800058bc:	0006851b          	sext.w	a0,a3
    800058c0:	1a959263          	bne	a1,s1,80005a64 <__subdf3+0x204>
    800058c4:	0aa05a63          	blez	a0,80005978 <__subdf3+0x118>
    800058c8:	06081863          	bnez	a6,80005938 <__subdf3+0xd8>
    800058cc:	04070863          	beqz	a4,8000591c <__subdf3+0xbc>
    800058d0:	fff6851b          	addiw	a0,a3,-1
    800058d4:	04051063          	bnez	a0,80005914 <__subdf3+0xb4>
    800058d8:	00e787b3          	add	a5,a5,a4
    800058dc:	0377d713          	srli	a4,a5,0x37
    800058e0:	00177713          	andi	a4,a4,1
    800058e4:	02070c63          	beqz	a4,8000591c <__subdf3+0xbc>
    800058e8:	00140413          	addi	s0,s0,1
    800058ec:	7ff00713          	li	a4,2047
    800058f0:	36e40863          	beq	s0,a4,80005c60 <__subdf3+0x400>
    800058f4:	1ff00713          	li	a4,511
    800058f8:	03671713          	slli	a4,a4,0x36
    800058fc:	0017f693          	andi	a3,a5,1
    80005900:	fff70713          	addi	a4,a4,-1
    80005904:	0017d793          	srli	a5,a5,0x1
    80005908:	00e7f7b3          	and	a5,a5,a4
    8000590c:	00d7e7b3          	or	a5,a5,a3
    80005910:	00c0006f          	j	8000591c <__subdf3+0xbc>
    80005914:	7ff00693          	li	a3,2047
    80005918:	02d61a63          	bne	a2,a3,8000594c <__subdf3+0xec>
    8000591c:	0077f713          	andi	a4,a5,7
    80005920:	34070263          	beqz	a4,80005c64 <__subdf3+0x404>
    80005924:	00f7f713          	andi	a4,a5,15
    80005928:	00400693          	li	a3,4
    8000592c:	32d70c63          	beq	a4,a3,80005c64 <__subdf3+0x404>
    80005930:	00478793          	addi	a5,a5,4
    80005934:	3300006f          	j	80005c64 <__subdf3+0x404>
    80005938:	7ff00693          	li	a3,2047
    8000593c:	fed600e3          	beq	a2,a3,8000591c <__subdf3+0xbc>
    80005940:	00100693          	li	a3,1
    80005944:	03769693          	slli	a3,a3,0x37
    80005948:	00d76733          	or	a4,a4,a3
    8000594c:	03800613          	li	a2,56
    80005950:	00100693          	li	a3,1
    80005954:	00a64e63          	blt	a2,a0,80005970 <__subdf3+0x110>
    80005958:	04000693          	li	a3,64
    8000595c:	40a686bb          	subw	a3,a3,a0
    80005960:	00a75633          	srl	a2,a4,a0
    80005964:	00d71733          	sll	a4,a4,a3
    80005968:	00e03733          	snez	a4,a4
    8000596c:	00e666b3          	or	a3,a2,a4
    80005970:	00d787b3          	add	a5,a5,a3
    80005974:	f69ff06f          	j	800058dc <__subdf3+0x7c>
    80005978:	06050c63          	beqz	a0,800059f0 <__subdf3+0x190>
    8000597c:	02061863          	bnez	a2,800059ac <__subdf3+0x14c>
    80005980:	2c078463          	beqz	a5,80005c48 <__subdf3+0x3e8>
    80005984:	fff6c693          	not	a3,a3
    80005988:	0006869b          	sext.w	a3,a3
    8000598c:	00069863          	bnez	a3,8000599c <__subdf3+0x13c>
    80005990:	00e787b3          	add	a5,a5,a4
    80005994:	00080413          	mv	s0,a6
    80005998:	f45ff06f          	j	800058dc <__subdf3+0x7c>
    8000599c:	7ff00613          	li	a2,2047
    800059a0:	02c81263          	bne	a6,a2,800059c4 <__subdf3+0x164>
    800059a4:	00070793          	mv	a5,a4
    800059a8:	2180006f          	j	80005bc0 <__subdf3+0x360>
    800059ac:	7ff00613          	li	a2,2047
    800059b0:	fec80ae3          	beq	a6,a2,800059a4 <__subdf3+0x144>
    800059b4:	00100613          	li	a2,1
    800059b8:	03761613          	slli	a2,a2,0x37
    800059bc:	40d006bb          	negw	a3,a3
    800059c0:	00c7e7b3          	or	a5,a5,a2
    800059c4:	03800593          	li	a1,56
    800059c8:	00100613          	li	a2,1
    800059cc:	00d5ce63          	blt	a1,a3,800059e8 <__subdf3+0x188>
    800059d0:	04000613          	li	a2,64
    800059d4:	00d7d5b3          	srl	a1,a5,a3
    800059d8:	40d606bb          	subw	a3,a2,a3
    800059dc:	00d797b3          	sll	a5,a5,a3
    800059e0:	00f037b3          	snez	a5,a5
    800059e4:	00f5e633          	or	a2,a1,a5
    800059e8:	00e607b3          	add	a5,a2,a4
    800059ec:	fa9ff06f          	j	80005994 <__subdf3+0x134>
    800059f0:	00160693          	addi	a3,a2,1
    800059f4:	7fe6f593          	andi	a1,a3,2046
    800059f8:	04059a63          	bnez	a1,80005a4c <__subdf3+0x1ec>
    800059fc:	02061a63          	bnez	a2,80005a30 <__subdf3+0x1d0>
    80005a00:	24078a63          	beqz	a5,80005c54 <__subdf3+0x3f4>
    80005a04:	f0070ce3          	beqz	a4,8000591c <__subdf3+0xbc>
    80005a08:	00e787b3          	add	a5,a5,a4
    80005a0c:	0377d713          	srli	a4,a5,0x37
    80005a10:	00177713          	andi	a4,a4,1
    80005a14:	f00704e3          	beqz	a4,8000591c <__subdf3+0xbc>
    80005a18:	fff00713          	li	a4,-1
    80005a1c:	03771713          	slli	a4,a4,0x37
    80005a20:	fff70713          	addi	a4,a4,-1
    80005a24:	00e7f7b3          	and	a5,a5,a4
    80005a28:	00100413          	li	s0,1
    80005a2c:	ef1ff06f          	j	8000591c <__subdf3+0xbc>
    80005a30:	f6078ae3          	beqz	a5,800059a4 <__subdf3+0x144>
    80005a34:	18070663          	beqz	a4,80005bc0 <__subdf3+0x360>
    80005a38:	00100793          	li	a5,1
    80005a3c:	00000493          	li	s1,0
    80005a40:	03679793          	slli	a5,a5,0x36
    80005a44:	7ff00413          	li	s0,2047
    80005a48:	21c0006f          	j	80005c64 <__subdf3+0x404>
    80005a4c:	7ff00613          	li	a2,2047
    80005a50:	20c68663          	beq	a3,a2,80005c5c <__subdf3+0x3fc>
    80005a54:	00e78733          	add	a4,a5,a4
    80005a58:	00175793          	srli	a5,a4,0x1
    80005a5c:	00068413          	mv	s0,a3
    80005a60:	ebdff06f          	j	8000591c <__subdf3+0xbc>
    80005a64:	06a05e63          	blez	a0,80005ae0 <__subdf3+0x280>
    80005a68:	06081063          	bnez	a6,80005ac8 <__subdf3+0x268>
    80005a6c:	ea0708e3          	beqz	a4,8000591c <__subdf3+0xbc>
    80005a70:	fff6851b          	addiw	a0,a3,-1
    80005a74:	02051063          	bnez	a0,80005a94 <__subdf3+0x234>
    80005a78:	40e787b3          	sub	a5,a5,a4
    80005a7c:	0377d713          	srli	a4,a5,0x37
    80005a80:	00177713          	andi	a4,a4,1
    80005a84:	e8070ce3          	beqz	a4,8000591c <__subdf3+0xbc>
    80005a88:	00979913          	slli	s2,a5,0x9
    80005a8c:	00995913          	srli	s2,s2,0x9
    80005a90:	1500006f          	j	80005be0 <__subdf3+0x380>
    80005a94:	7ff00693          	li	a3,2047
    80005a98:	e8d602e3          	beq	a2,a3,8000591c <__subdf3+0xbc>
    80005a9c:	03800613          	li	a2,56
    80005aa0:	00100693          	li	a3,1
    80005aa4:	00a64e63          	blt	a2,a0,80005ac0 <__subdf3+0x260>
    80005aa8:	04000693          	li	a3,64
    80005aac:	40a686bb          	subw	a3,a3,a0
    80005ab0:	00a75633          	srl	a2,a4,a0
    80005ab4:	00d71733          	sll	a4,a4,a3
    80005ab8:	00e03733          	snez	a4,a4
    80005abc:	00e666b3          	or	a3,a2,a4
    80005ac0:	40d787b3          	sub	a5,a5,a3
    80005ac4:	fb9ff06f          	j	80005a7c <__subdf3+0x21c>
    80005ac8:	7ff00693          	li	a3,2047
    80005acc:	e4d608e3          	beq	a2,a3,8000591c <__subdf3+0xbc>
    80005ad0:	00100693          	li	a3,1
    80005ad4:	03769693          	slli	a3,a3,0x37
    80005ad8:	00d76733          	or	a4,a4,a3
    80005adc:	fc1ff06f          	j	80005a9c <__subdf3+0x23c>
    80005ae0:	08050063          	beqz	a0,80005b60 <__subdf3+0x300>
    80005ae4:	02061c63          	bnez	a2,80005b1c <__subdf3+0x2bc>
    80005ae8:	1e078a63          	beqz	a5,80005cdc <__subdf3+0x47c>
    80005aec:	fff6c693          	not	a3,a3
    80005af0:	0006869b          	sext.w	a3,a3
    80005af4:	00069a63          	bnez	a3,80005b08 <__subdf3+0x2a8>
    80005af8:	40f707b3          	sub	a5,a4,a5
    80005afc:	00080413          	mv	s0,a6
    80005b00:	00058493          	mv	s1,a1
    80005b04:	f79ff06f          	j	80005a7c <__subdf3+0x21c>
    80005b08:	7ff00613          	li	a2,2047
    80005b0c:	02c81463          	bne	a6,a2,80005b34 <__subdf3+0x2d4>
    80005b10:	00070793          	mv	a5,a4
    80005b14:	7ff00413          	li	s0,2047
    80005b18:	0680006f          	j	80005b80 <__subdf3+0x320>
    80005b1c:	7ff00613          	li	a2,2047
    80005b20:	fec808e3          	beq	a6,a2,80005b10 <__subdf3+0x2b0>
    80005b24:	00100613          	li	a2,1
    80005b28:	03761613          	slli	a2,a2,0x37
    80005b2c:	40d006bb          	negw	a3,a3
    80005b30:	00c7e7b3          	or	a5,a5,a2
    80005b34:	03800513          	li	a0,56
    80005b38:	00100613          	li	a2,1
    80005b3c:	00d54e63          	blt	a0,a3,80005b58 <__subdf3+0x2f8>
    80005b40:	04000613          	li	a2,64
    80005b44:	00d7d533          	srl	a0,a5,a3
    80005b48:	40d606bb          	subw	a3,a2,a3
    80005b4c:	00d797b3          	sll	a5,a5,a3
    80005b50:	00f037b3          	snez	a5,a5
    80005b54:	00f56633          	or	a2,a0,a5
    80005b58:	40c707b3          	sub	a5,a4,a2
    80005b5c:	fa1ff06f          	j	80005afc <__subdf3+0x29c>
    80005b60:	00160693          	addi	a3,a2,1
    80005b64:	7fe6f693          	andi	a3,a3,2046
    80005b68:	06069063          	bnez	a3,80005bc8 <__subdf3+0x368>
    80005b6c:	04061263          	bnez	a2,80005bb0 <__subdf3+0x350>
    80005b70:	00079c63          	bnez	a5,80005b88 <__subdf3+0x328>
    80005b74:	00000493          	li	s1,0
    80005b78:	0e070663          	beqz	a4,80005c64 <__subdf3+0x404>
    80005b7c:	00070793          	mv	a5,a4
    80005b80:	00058493          	mv	s1,a1
    80005b84:	d99ff06f          	j	8000591c <__subdf3+0xbc>
    80005b88:	d8070ae3          	beqz	a4,8000591c <__subdf3+0xbc>
    80005b8c:	40e786b3          	sub	a3,a5,a4
    80005b90:	0376d613          	srli	a2,a3,0x37
    80005b94:	00167613          	andi	a2,a2,1
    80005b98:	40f707b3          	sub	a5,a4,a5
    80005b9c:	fe0612e3          	bnez	a2,80005b80 <__subdf3+0x320>
    80005ba0:	00000793          	li	a5,0
    80005ba4:	08068263          	beqz	a3,80005c28 <__subdf3+0x3c8>
    80005ba8:	00068793          	mv	a5,a3
    80005bac:	d71ff06f          	j	8000591c <__subdf3+0xbc>
    80005bb0:	e80792e3          	bnez	a5,80005a34 <__subdf3+0x1d4>
    80005bb4:	e80702e3          	beqz	a4,80005a38 <__subdf3+0x1d8>
    80005bb8:	00070793          	mv	a5,a4
    80005bbc:	00058493          	mv	s1,a1
    80005bc0:	7ff00413          	li	s0,2047
    80005bc4:	d59ff06f          	j	8000591c <__subdf3+0xbc>
    80005bc8:	40e78933          	sub	s2,a5,a4
    80005bcc:	03795693          	srli	a3,s2,0x37
    80005bd0:	0016f693          	andi	a3,a3,1
    80005bd4:	04068463          	beqz	a3,80005c1c <__subdf3+0x3bc>
    80005bd8:	40f70933          	sub	s2,a4,a5
    80005bdc:	00058493          	mv	s1,a1
    80005be0:	00090513          	mv	a0,s2
    80005be4:	338000ef          	jal	ra,80005f1c <__clzdi2>
    80005be8:	ff85079b          	addiw	a5,a0,-8
    80005bec:	00f91933          	sll	s2,s2,a5
    80005bf0:	0487c063          	blt	a5,s0,80005c30 <__subdf3+0x3d0>
    80005bf4:	4087853b          	subw	a0,a5,s0
    80005bf8:	0015051b          	addiw	a0,a0,1
    80005bfc:	04000713          	li	a4,64
    80005c00:	40a7073b          	subw	a4,a4,a0
    80005c04:	00a957b3          	srl	a5,s2,a0
    80005c08:	00e91933          	sll	s2,s2,a4
    80005c0c:	01203933          	snez	s2,s2
    80005c10:	0127e7b3          	or	a5,a5,s2
    80005c14:	00000413          	li	s0,0
    80005c18:	d05ff06f          	j	8000591c <__subdf3+0xbc>
    80005c1c:	fc0912e3          	bnez	s2,80005be0 <__subdf3+0x380>
    80005c20:	00000793          	li	a5,0
    80005c24:	00000413          	li	s0,0
    80005c28:	00000493          	li	s1,0
    80005c2c:	0380006f          	j	80005c64 <__subdf3+0x404>
    80005c30:	40f40433          	sub	s0,s0,a5
    80005c34:	fff00793          	li	a5,-1
    80005c38:	03779793          	slli	a5,a5,0x37
    80005c3c:	fff78793          	addi	a5,a5,-1
    80005c40:	00f977b3          	and	a5,s2,a5
    80005c44:	cd9ff06f          	j	8000591c <__subdf3+0xbc>
    80005c48:	00070793          	mv	a5,a4
    80005c4c:	00080413          	mv	s0,a6
    80005c50:	ccdff06f          	j	8000591c <__subdf3+0xbc>
    80005c54:	00070793          	mv	a5,a4
    80005c58:	cc5ff06f          	j	8000591c <__subdf3+0xbc>
    80005c5c:	7ff00413          	li	s0,2047
    80005c60:	00000793          	li	a5,0
    80005c64:	0377d713          	srli	a4,a5,0x37
    80005c68:	00177713          	andi	a4,a4,1
    80005c6c:	02070063          	beqz	a4,80005c8c <__subdf3+0x42c>
    80005c70:	00140413          	addi	s0,s0,1
    80005c74:	7ff00713          	li	a4,2047
    80005c78:	06e40863          	beq	s0,a4,80005ce8 <__subdf3+0x488>
    80005c7c:	fff00713          	li	a4,-1
    80005c80:	03771713          	slli	a4,a4,0x37
    80005c84:	fff70713          	addi	a4,a4,-1
    80005c88:	00e7f7b3          	and	a5,a5,a4
    80005c8c:	7ff00713          	li	a4,2047
    80005c90:	0037d793          	srli	a5,a5,0x3
    80005c94:	00e41a63          	bne	s0,a4,80005ca8 <__subdf3+0x448>
    80005c98:	00078863          	beqz	a5,80005ca8 <__subdf3+0x448>
    80005c9c:	00100793          	li	a5,1
    80005ca0:	03379793          	slli	a5,a5,0x33
    80005ca4:	00000493          	li	s1,0
    80005ca8:	7ff47413          	andi	s0,s0,2047
    80005cac:	00c79793          	slli	a5,a5,0xc
    80005cb0:	03441413          	slli	s0,s0,0x34
    80005cb4:	00c7d793          	srli	a5,a5,0xc
    80005cb8:	00f46433          	or	s0,s0,a5
    80005cbc:	03f49513          	slli	a0,s1,0x3f
    80005cc0:	01813083          	ld	ra,24(sp)
    80005cc4:	00a46533          	or	a0,s0,a0
    80005cc8:	01013403          	ld	s0,16(sp)
    80005ccc:	00813483          	ld	s1,8(sp)
    80005cd0:	00013903          	ld	s2,0(sp)
    80005cd4:	02010113          	addi	sp,sp,32
    80005cd8:	00008067          	ret
    80005cdc:	00070793          	mv	a5,a4
    80005ce0:	00080413          	mv	s0,a6
    80005ce4:	e9dff06f          	j	80005b80 <__subdf3+0x320>
    80005ce8:	00000793          	li	a5,0
    80005cec:	fa1ff06f          	j	80005c8c <__subdf3+0x42c>

0000000080005cf0 <__fixdfsi>:
    80005cf0:	03455693          	srli	a3,a0,0x34
    80005cf4:	00c51793          	slli	a5,a0,0xc
    80005cf8:	7ff6f693          	andi	a3,a3,2047
    80005cfc:	3fe00613          	li	a2,1022
    80005d00:	00c7d793          	srli	a5,a5,0xc
    80005d04:	03f55713          	srli	a4,a0,0x3f
    80005d08:	04d65263          	bge	a2,a3,80005d4c <__fixdfsi+0x5c>
    80005d0c:	41d00613          	li	a2,1053
    80005d10:	00d65a63          	bge	a2,a3,80005d24 <__fixdfsi+0x34>
    80005d14:	80000537          	lui	a0,0x80000
    80005d18:	fff54513          	not	a0,a0
    80005d1c:	00e5053b          	addw	a0,a0,a4
    80005d20:	00008067          	ret
    80005d24:	00100613          	li	a2,1
    80005d28:	03461613          	slli	a2,a2,0x34
    80005d2c:	00c7e533          	or	a0,a5,a2
    80005d30:	43300793          	li	a5,1075
    80005d34:	40d787bb          	subw	a5,a5,a3
    80005d38:	00f55533          	srl	a0,a0,a5
    80005d3c:	0005051b          	sext.w	a0,a0
    80005d40:	00070863          	beqz	a4,80005d50 <__fixdfsi+0x60>
    80005d44:	40a0053b          	negw	a0,a0
    80005d48:	00008067          	ret
    80005d4c:	00000513          	li	a0,0
    80005d50:	00008067          	ret

0000000080005d54 <__floatsidf>:
    80005d54:	fe010113          	addi	sp,sp,-32
    80005d58:	00113c23          	sd	ra,24(sp)
    80005d5c:	00813823          	sd	s0,16(sp)
    80005d60:	00913423          	sd	s1,8(sp)
    80005d64:	06050063          	beqz	a0,80005dc4 <__floatsidf+0x70>
    80005d68:	0005079b          	sext.w	a5,a0
    80005d6c:	03f55493          	srli	s1,a0,0x3f
    80005d70:	00055463          	bgez	a0,80005d78 <__floatsidf+0x24>
    80005d74:	40f007bb          	negw	a5,a5
    80005d78:	02079413          	slli	s0,a5,0x20
    80005d7c:	02045413          	srli	s0,s0,0x20
    80005d80:	00040513          	mv	a0,s0
    80005d84:	198000ef          	jal	ra,80005f1c <__clzdi2>
    80005d88:	43e00713          	li	a4,1086
    80005d8c:	40a7073b          	subw	a4,a4,a0
    80005d90:	ff55051b          	addiw	a0,a0,-11
    80005d94:	00a417b3          	sll	a5,s0,a0
    80005d98:	01813083          	ld	ra,24(sp)
    80005d9c:	01013403          	ld	s0,16(sp)
    80005da0:	00c79793          	slli	a5,a5,0xc
    80005da4:	03471713          	slli	a4,a4,0x34
    80005da8:	00c7d793          	srli	a5,a5,0xc
    80005dac:	03f49513          	slli	a0,s1,0x3f
    80005db0:	00f76733          	or	a4,a4,a5
    80005db4:	00813483          	ld	s1,8(sp)
    80005db8:	00a76533          	or	a0,a4,a0
    80005dbc:	02010113          	addi	sp,sp,32
    80005dc0:	00008067          	ret
    80005dc4:	00000793          	li	a5,0
    80005dc8:	00000713          	li	a4,0
    80005dcc:	00000493          	li	s1,0
    80005dd0:	fc9ff06f          	j	80005d98 <__floatsidf+0x44>

0000000080005dd4 <__fixunsdfdi>:
    80005dd4:	03455713          	srli	a4,a0,0x34
    80005dd8:	00c51693          	slli	a3,a0,0xc
    80005ddc:	7ff77713          	andi	a4,a4,2047
    80005de0:	3fe00613          	li	a2,1022
    80005de4:	03f55793          	srli	a5,a0,0x3f
    80005de8:	00c6d693          	srli	a3,a3,0xc
    80005dec:	00000513          	li	a0,0
    80005df0:	04e65663          	bge	a2,a4,80005e3c <__fixunsdfdi+0x68>
    80005df4:	00079863          	bnez	a5,80005e04 <__fixunsdfdi+0x30>
    80005df8:	43e00793          	li	a5,1086
    80005dfc:	fff00513          	li	a0,-1
    80005e00:	00e7d463          	bge	a5,a4,80005e08 <__fixunsdfdi+0x34>
    80005e04:	00008067          	ret
    80005e08:	00100513          	li	a0,1
    80005e0c:	03451513          	slli	a0,a0,0x34
    80005e10:	00a6e533          	or	a0,a3,a0
    80005e14:	43200693          	li	a3,1074
    80005e18:	0007079b          	sext.w	a5,a4
    80005e1c:	00e6d863          	bge	a3,a4,80005e2c <__fixunsdfdi+0x58>
    80005e20:	bcd7879b          	addiw	a5,a5,-1075
    80005e24:	00f51533          	sll	a0,a0,a5
    80005e28:	00008067          	ret
    80005e2c:	43300713          	li	a4,1075
    80005e30:	40f707bb          	subw	a5,a4,a5
    80005e34:	00f55533          	srl	a0,a0,a5
    80005e38:	00008067          	ret
    80005e3c:	00008067          	ret

0000000080005e40 <__floatundidf>:
    80005e40:	ff010113          	addi	sp,sp,-16
    80005e44:	00813023          	sd	s0,0(sp)
    80005e48:	00113423          	sd	ra,8(sp)
    80005e4c:	00050413          	mv	s0,a0
    80005e50:	00000793          	li	a5,0
    80005e54:	02050263          	beqz	a0,80005e78 <__floatundidf+0x38>
    80005e58:	0c4000ef          	jal	ra,80005f1c <__clzdi2>
    80005e5c:	43e00793          	li	a5,1086
    80005e60:	40a787bb          	subw	a5,a5,a0
    80005e64:	43300713          	li	a4,1075
    80005e68:	02f74863          	blt	a4,a5,80005e98 <__floatundidf+0x58>
    80005e6c:	00e78663          	beq	a5,a4,80005e78 <__floatundidf+0x38>
    80005e70:	ff55051b          	addiw	a0,a0,-11
    80005e74:	00a41433          	sll	s0,s0,a0
    80005e78:	00c41413          	slli	s0,s0,0xc
    80005e7c:	00c45413          	srli	s0,s0,0xc
    80005e80:	03479513          	slli	a0,a5,0x34
    80005e84:	00813083          	ld	ra,8(sp)
    80005e88:	00856533          	or	a0,a0,s0
    80005e8c:	00013403          	ld	s0,0(sp)
    80005e90:	01010113          	addi	sp,sp,16
    80005e94:	00008067          	ret
    80005e98:	43600713          	li	a4,1078
    80005e9c:	06f75863          	bge	a4,a5,80005f0c <__floatundidf+0xcc>
    80005ea0:	0385071b          	addiw	a4,a0,56
    80005ea4:	00800693          	li	a3,8
    80005ea8:	00e41733          	sll	a4,s0,a4
    80005eac:	40a686bb          	subw	a3,a3,a0
    80005eb0:	00e03733          	snez	a4,a4
    80005eb4:	00d45433          	srl	s0,s0,a3
    80005eb8:	00876433          	or	s0,a4,s0
    80005ebc:	fff00713          	li	a4,-1
    80005ec0:	03771713          	slli	a4,a4,0x37
    80005ec4:	fff70713          	addi	a4,a4,-1
    80005ec8:	00747693          	andi	a3,s0,7
    80005ecc:	00e47733          	and	a4,s0,a4
    80005ed0:	00068a63          	beqz	a3,80005ee4 <__floatundidf+0xa4>
    80005ed4:	00f47413          	andi	s0,s0,15
    80005ed8:	00400693          	li	a3,4
    80005edc:	00d40463          	beq	s0,a3,80005ee4 <__floatundidf+0xa4>
    80005ee0:	00470713          	addi	a4,a4,4
    80005ee4:	03775693          	srli	a3,a4,0x37
    80005ee8:	0016f693          	andi	a3,a3,1
    80005eec:	00068c63          	beqz	a3,80005f04 <__floatundidf+0xc4>
    80005ef0:	fff00693          	li	a3,-1
    80005ef4:	03769693          	slli	a3,a3,0x37
    80005ef8:	fff68693          	addi	a3,a3,-1
    80005efc:	00d77733          	and	a4,a4,a3
    80005f00:	00178793          	addi	a5,a5,1
    80005f04:	00375413          	srli	s0,a4,0x3
    80005f08:	f71ff06f          	j	80005e78 <__floatundidf+0x38>
    80005f0c:	fae788e3          	beq	a5,a4,80005ebc <__floatundidf+0x7c>
    80005f10:	ff85051b          	addiw	a0,a0,-8
    80005f14:	00a41433          	sll	s0,s0,a0
    80005f18:	fa5ff06f          	j	80005ebc <__floatundidf+0x7c>

0000000080005f1c <__clzdi2>:
    80005f1c:	03800793          	li	a5,56
    80005f20:	00f55733          	srl	a4,a0,a5
    80005f24:	0ff77713          	zext.b	a4,a4
    80005f28:	00071663          	bnez	a4,80005f34 <__clzdi2+0x18>
    80005f2c:	ff878793          	addi	a5,a5,-8
    80005f30:	fe0798e3          	bnez	a5,80005f20 <__clzdi2+0x4>
    80005f34:	04000713          	li	a4,64
    80005f38:	40f70733          	sub	a4,a4,a5
    80005f3c:	00f55533          	srl	a0,a0,a5
    80005f40:	00003797          	auipc	a5,0x3
    80005f44:	35078793          	addi	a5,a5,848 # 80009290 <__clz_tab>
    80005f48:	00a787b3          	add	a5,a5,a0
    80005f4c:	0007c503          	lbu	a0,0(a5)
    80005f50:	40a7053b          	subw	a0,a4,a0
    80005f54:	00008067          	ret

0000000080005f58 <__sflush_r>:
    80005f58:	01059783          	lh	a5,16(a1)
    80005f5c:	fd010113          	addi	sp,sp,-48
    80005f60:	02813023          	sd	s0,32(sp)
    80005f64:	01313423          	sd	s3,8(sp)
    80005f68:	02113423          	sd	ra,40(sp)
    80005f6c:	00913c23          	sd	s1,24(sp)
    80005f70:	01213823          	sd	s2,16(sp)
    80005f74:	0087f693          	andi	a3,a5,8
    80005f78:	00058413          	mv	s0,a1
    80005f7c:	00050993          	mv	s3,a0
    80005f80:	10069c63          	bnez	a3,80006098 <__sflush_r+0x140>
    80005f84:	00001737          	lui	a4,0x1
    80005f88:	80070713          	addi	a4,a4,-2048 # 800 <_start-0x7ffff800>
    80005f8c:	0085a683          	lw	a3,8(a1)
    80005f90:	00e7e7b3          	or	a5,a5,a4
    80005f94:	00f59823          	sh	a5,16(a1)
    80005f98:	18d05663          	blez	a3,80006124 <__sflush_r+0x1cc>
    80005f9c:	04843703          	ld	a4,72(s0)
    80005fa0:	0c070c63          	beqz	a4,80006078 <__sflush_r+0x120>
    80005fa4:	03079793          	slli	a5,a5,0x30
    80005fa8:	0307d793          	srli	a5,a5,0x30
    80005fac:	000016b7          	lui	a3,0x1
    80005fb0:	0009a483          	lw	s1,0(s3)
    80005fb4:	00d7f6b3          	and	a3,a5,a3
    80005fb8:	0009a023          	sw	zero,0(s3)
    80005fbc:	03043583          	ld	a1,48(s0)
    80005fc0:	16069863          	bnez	a3,80006130 <__sflush_r+0x1d8>
    80005fc4:	00000613          	li	a2,0
    80005fc8:	00100693          	li	a3,1
    80005fcc:	00098513          	mv	a0,s3
    80005fd0:	000700e7          	jalr	a4
    80005fd4:	fff00793          	li	a5,-1
    80005fd8:	00050613          	mv	a2,a0
    80005fdc:	18f50c63          	beq	a0,a5,80006174 <__sflush_r+0x21c>
    80005fe0:	01045783          	lhu	a5,16(s0)
    80005fe4:	04843703          	ld	a4,72(s0)
    80005fe8:	03043583          	ld	a1,48(s0)
    80005fec:	0047f793          	andi	a5,a5,4
    80005ff0:	00078e63          	beqz	a5,8000600c <__sflush_r+0xb4>
    80005ff4:	00842683          	lw	a3,8(s0)
    80005ff8:	05843783          	ld	a5,88(s0)
    80005ffc:	40d60633          	sub	a2,a2,a3
    80006000:	00078663          	beqz	a5,8000600c <__sflush_r+0xb4>
    80006004:	07042783          	lw	a5,112(s0)
    80006008:	40f60633          	sub	a2,a2,a5
    8000600c:	00000693          	li	a3,0
    80006010:	00098513          	mv	a0,s3
    80006014:	000700e7          	jalr	a4
    80006018:	fff00793          	li	a5,-1
    8000601c:	10f51e63          	bne	a0,a5,80006138 <__sflush_r+0x1e0>
    80006020:	0009a703          	lw	a4,0(s3)
    80006024:	01041783          	lh	a5,16(s0)
    80006028:	16070863          	beqz	a4,80006198 <__sflush_r+0x240>
    8000602c:	01d00693          	li	a3,29
    80006030:	00d70663          	beq	a4,a3,8000603c <__sflush_r+0xe4>
    80006034:	01600693          	li	a3,22
    80006038:	16d71a63          	bne	a4,a3,800061ac <__sflush_r+0x254>
    8000603c:	01843683          	ld	a3,24(s0)
    80006040:	fffff737          	lui	a4,0xfffff
    80006044:	7ff70713          	addi	a4,a4,2047 # fffffffffffff7ff <__stack_end+0xffffffff7feff7ff>
    80006048:	00e7f7b3          	and	a5,a5,a4
    8000604c:	00f41823          	sh	a5,16(s0)
    80006050:	00042423          	sw	zero,8(s0)
    80006054:	00d43023          	sd	a3,0(s0)
    80006058:	05843583          	ld	a1,88(s0)
    8000605c:	0099a023          	sw	s1,0(s3)
    80006060:	00058c63          	beqz	a1,80006078 <__sflush_r+0x120>
    80006064:	07440793          	addi	a5,s0,116
    80006068:	00f58663          	beq	a1,a5,80006074 <__sflush_r+0x11c>
    8000606c:	00098513          	mv	a0,s3
    80006070:	710000ef          	jal	ra,80006780 <_free_r>
    80006074:	04043c23          	sd	zero,88(s0)
    80006078:	00000513          	li	a0,0
    8000607c:	02813083          	ld	ra,40(sp)
    80006080:	02013403          	ld	s0,32(sp)
    80006084:	01813483          	ld	s1,24(sp)
    80006088:	01013903          	ld	s2,16(sp)
    8000608c:	00813983          	ld	s3,8(sp)
    80006090:	03010113          	addi	sp,sp,48
    80006094:	00008067          	ret
    80006098:	0185b903          	ld	s2,24(a1)
    8000609c:	fc090ee3          	beqz	s2,80006078 <__sflush_r+0x120>
    800060a0:	0005b483          	ld	s1,0(a1)
    800060a4:	03079713          	slli	a4,a5,0x30
    800060a8:	03075713          	srli	a4,a4,0x30
    800060ac:	00377713          	andi	a4,a4,3
    800060b0:	0125b023          	sd	s2,0(a1)
    800060b4:	412484bb          	subw	s1,s1,s2
    800060b8:	00000793          	li	a5,0
    800060bc:	00071463          	bnez	a4,800060c4 <__sflush_r+0x16c>
    800060c0:	0205a783          	lw	a5,32(a1)
    800060c4:	00f42623          	sw	a5,12(s0)
    800060c8:	00904863          	bgtz	s1,800060d8 <__sflush_r+0x180>
    800060cc:	fadff06f          	j	80006078 <__sflush_r+0x120>
    800060d0:	00a90933          	add	s2,s2,a0
    800060d4:	fa9052e3          	blez	s1,80006078 <__sflush_r+0x120>
    800060d8:	04043783          	ld	a5,64(s0)
    800060dc:	03043583          	ld	a1,48(s0)
    800060e0:	00048693          	mv	a3,s1
    800060e4:	00090613          	mv	a2,s2
    800060e8:	00098513          	mv	a0,s3
    800060ec:	000780e7          	jalr	a5
    800060f0:	40a484bb          	subw	s1,s1,a0
    800060f4:	fca04ee3          	bgtz	a0,800060d0 <__sflush_r+0x178>
    800060f8:	01045783          	lhu	a5,16(s0)
    800060fc:	02813083          	ld	ra,40(sp)
    80006100:	01813483          	ld	s1,24(sp)
    80006104:	0407e793          	ori	a5,a5,64
    80006108:	00f41823          	sh	a5,16(s0)
    8000610c:	02013403          	ld	s0,32(sp)
    80006110:	01013903          	ld	s2,16(sp)
    80006114:	00813983          	ld	s3,8(sp)
    80006118:	fff00513          	li	a0,-1
    8000611c:	03010113          	addi	sp,sp,48
    80006120:	00008067          	ret
    80006124:	0705a703          	lw	a4,112(a1)
    80006128:	e6e04ae3          	bgtz	a4,80005f9c <__sflush_r+0x44>
    8000612c:	f4dff06f          	j	80006078 <__sflush_r+0x120>
    80006130:	09043603          	ld	a2,144(s0)
    80006134:	eb9ff06f          	j	80005fec <__sflush_r+0x94>
    80006138:	01045783          	lhu	a5,16(s0)
    8000613c:	fffff737          	lui	a4,0xfffff
    80006140:	7ff70713          	addi	a4,a4,2047 # fffffffffffff7ff <__stack_end+0xffffffff7feff7ff>
    80006144:	00e7f7b3          	and	a5,a5,a4
    80006148:	01843683          	ld	a3,24(s0)
    8000614c:	0107979b          	slliw	a5,a5,0x10
    80006150:	4107d79b          	sraiw	a5,a5,0x10
    80006154:	00001737          	lui	a4,0x1
    80006158:	00f41823          	sh	a5,16(s0)
    8000615c:	00042423          	sw	zero,8(s0)
    80006160:	00d43023          	sd	a3,0(s0)
    80006164:	00e7f7b3          	and	a5,a5,a4
    80006168:	ee0788e3          	beqz	a5,80006058 <__sflush_r+0x100>
    8000616c:	08a43823          	sd	a0,144(s0)
    80006170:	ee9ff06f          	j	80006058 <__sflush_r+0x100>
    80006174:	0009a783          	lw	a5,0(s3)
    80006178:	e60784e3          	beqz	a5,80005fe0 <__sflush_r+0x88>
    8000617c:	01d00713          	li	a4,29
    80006180:	00e78663          	beq	a5,a4,8000618c <__sflush_r+0x234>
    80006184:	01600713          	li	a4,22
    80006188:	f6e798e3          	bne	a5,a4,800060f8 <__sflush_r+0x1a0>
    8000618c:	0099a023          	sw	s1,0(s3)
    80006190:	00000513          	li	a0,0
    80006194:	ee9ff06f          	j	8000607c <__sflush_r+0x124>
    80006198:	fffff737          	lui	a4,0xfffff
    8000619c:	7ff70713          	addi	a4,a4,2047 # fffffffffffff7ff <__stack_end+0xffffffff7feff7ff>
    800061a0:	01843683          	ld	a3,24(s0)
    800061a4:	00e7f7b3          	and	a5,a5,a4
    800061a8:	fadff06f          	j	80006154 <__sflush_r+0x1fc>
    800061ac:	0407e793          	ori	a5,a5,64
    800061b0:	00f41823          	sh	a5,16(s0)
    800061b4:	fff00513          	li	a0,-1
    800061b8:	ec5ff06f          	j	8000607c <__sflush_r+0x124>

00000000800061bc <_fflush_r>:
    800061bc:	fe010113          	addi	sp,sp,-32
    800061c0:	00813823          	sd	s0,16(sp)
    800061c4:	00113c23          	sd	ra,24(sp)
    800061c8:	00050413          	mv	s0,a0
    800061cc:	00050663          	beqz	a0,800061d8 <_fflush_r+0x1c>
    800061d0:	05052783          	lw	a5,80(a0) # ffffffff80000050 <__stack_end+0xfffffffefff00050>
    800061d4:	02078063          	beqz	a5,800061f4 <_fflush_r+0x38>
    800061d8:	01059783          	lh	a5,16(a1)
    800061dc:	02079663          	bnez	a5,80006208 <_fflush_r+0x4c>
    800061e0:	01813083          	ld	ra,24(sp)
    800061e4:	01013403          	ld	s0,16(sp)
    800061e8:	00000513          	li	a0,0
    800061ec:	02010113          	addi	sp,sp,32
    800061f0:	00008067          	ret
    800061f4:	00b13423          	sd	a1,8(sp)
    800061f8:	400000ef          	jal	ra,800065f8 <__sinit>
    800061fc:	00813583          	ld	a1,8(sp)
    80006200:	01059783          	lh	a5,16(a1)
    80006204:	fc078ee3          	beqz	a5,800061e0 <_fflush_r+0x24>
    80006208:	00040513          	mv	a0,s0
    8000620c:	01013403          	ld	s0,16(sp)
    80006210:	01813083          	ld	ra,24(sp)
    80006214:	02010113          	addi	sp,sp,32
    80006218:	d41ff06f          	j	80005f58 <__sflush_r>

000000008000621c <fflush>:
    8000621c:	06050863          	beqz	a0,8000628c <fflush+0x70>
    80006220:	fe010113          	addi	sp,sp,-32
    80006224:	00813823          	sd	s0,16(sp)
    80006228:	00113c23          	sd	ra,24(sp)
    8000622c:	00050413          	mv	s0,a0
    80006230:	00003517          	auipc	a0,0x3
    80006234:	16053503          	ld	a0,352(a0) # 80009390 <_impure_ptr>
    80006238:	00050663          	beqz	a0,80006244 <fflush+0x28>
    8000623c:	05052783          	lw	a5,80(a0)
    80006240:	02078a63          	beqz	a5,80006274 <fflush+0x58>
    80006244:	01041783          	lh	a5,16(s0)
    80006248:	00079c63          	bnez	a5,80006260 <fflush+0x44>
    8000624c:	01813083          	ld	ra,24(sp)
    80006250:	01013403          	ld	s0,16(sp)
    80006254:	00000513          	li	a0,0
    80006258:	02010113          	addi	sp,sp,32
    8000625c:	00008067          	ret
    80006260:	00040593          	mv	a1,s0
    80006264:	01013403          	ld	s0,16(sp)
    80006268:	01813083          	ld	ra,24(sp)
    8000626c:	02010113          	addi	sp,sp,32
    80006270:	ce9ff06f          	j	80005f58 <__sflush_r>
    80006274:	00a13423          	sd	a0,8(sp)
    80006278:	380000ef          	jal	ra,800065f8 <__sinit>
    8000627c:	01041783          	lh	a5,16(s0)
    80006280:	00813503          	ld	a0,8(sp)
    80006284:	fc0784e3          	beqz	a5,8000624c <fflush+0x30>
    80006288:	fd9ff06f          	j	80006260 <fflush+0x44>
    8000628c:	00000597          	auipc	a1,0x0
    80006290:	f3058593          	addi	a1,a1,-208 # 800061bc <_fflush_r>
    80006294:	00002517          	auipc	a0,0x2
    80006298:	cbc53503          	ld	a0,-836(a0) # 80007f50 <_global_impure_ptr>
    8000629c:	0d90006f          	j	80006b74 <_fwalk_reent>

00000000800062a0 <__fp_lock>:
    800062a0:	00000513          	li	a0,0
    800062a4:	00008067          	ret

00000000800062a8 <_cleanup_r>:
    800062a8:	00001597          	auipc	a1,0x1
    800062ac:	6b458593          	addi	a1,a1,1716 # 8000795c <_fclose_r>
    800062b0:	0c50006f          	j	80006b74 <_fwalk_reent>

00000000800062b4 <__fp_unlock>:
    800062b4:	00000513          	li	a0,0
    800062b8:	00008067          	ret

00000000800062bc <__sinit.part.0>:
    800062bc:	fc010113          	addi	sp,sp,-64
    800062c0:	02113c23          	sd	ra,56(sp)
    800062c4:	02813823          	sd	s0,48(sp)
    800062c8:	02913423          	sd	s1,40(sp)
    800062cc:	03213023          	sd	s2,32(sp)
    800062d0:	01313c23          	sd	s3,24(sp)
    800062d4:	01413823          	sd	s4,16(sp)
    800062d8:	01513423          	sd	s5,8(sp)
    800062dc:	01613023          	sd	s6,0(sp)
    800062e0:	00853403          	ld	s0,8(a0)
    800062e4:	00000717          	auipc	a4,0x0
    800062e8:	fc470713          	addi	a4,a4,-60 # 800062a8 <_cleanup_r>
    800062ec:	04e53c23          	sd	a4,88(a0)
    800062f0:	53850793          	addi	a5,a0,1336
    800062f4:	00300713          	li	a4,3
    800062f8:	52e52423          	sw	a4,1320(a0)
    800062fc:	52f53823          	sd	a5,1328(a0)
    80006300:	52053023          	sd	zero,1312(a0)
    80006304:	00400793          	li	a5,4
    80006308:	00050913          	mv	s2,a0
    8000630c:	00f42823          	sw	a5,16(s0)
    80006310:	00800613          	li	a2,8
    80006314:	00000593          	li	a1,0
    80006318:	0a042623          	sw	zero,172(s0)
    8000631c:	00043023          	sd	zero,0(s0)
    80006320:	00043423          	sd	zero,8(s0)
    80006324:	00043c23          	sd	zero,24(s0)
    80006328:	02042023          	sw	zero,32(s0)
    8000632c:	02042423          	sw	zero,40(s0)
    80006330:	0a440513          	addi	a0,s0,164
    80006334:	2d4010ef          	jal	ra,80007608 <memset>
    80006338:	01093483          	ld	s1,16(s2)
    8000633c:	00001b17          	auipc	s6,0x1
    80006340:	408b0b13          	addi	s6,s6,1032 # 80007744 <__sread>
    80006344:	00001a97          	auipc	s5,0x1
    80006348:	464a8a93          	addi	s5,s5,1124 # 800077a8 <__swrite>
    8000634c:	00001a17          	auipc	s4,0x1
    80006350:	4e4a0a13          	addi	s4,s4,1252 # 80007830 <__sseek>
    80006354:	00001997          	auipc	s3,0x1
    80006358:	54498993          	addi	s3,s3,1348 # 80007898 <__sclose>
    8000635c:	000107b7          	lui	a5,0x10
    80006360:	03643c23          	sd	s6,56(s0)
    80006364:	05543023          	sd	s5,64(s0)
    80006368:	05443423          	sd	s4,72(s0)
    8000636c:	05343823          	sd	s3,80(s0)
    80006370:	02843823          	sd	s0,48(s0)
    80006374:	00978793          	addi	a5,a5,9 # 10009 <_start-0x7ffefff7>
    80006378:	00f4a823          	sw	a5,16(s1)
    8000637c:	00800613          	li	a2,8
    80006380:	00000593          	li	a1,0
    80006384:	0a04a623          	sw	zero,172(s1)
    80006388:	0004b023          	sd	zero,0(s1)
    8000638c:	0004b423          	sd	zero,8(s1)
    80006390:	0004bc23          	sd	zero,24(s1)
    80006394:	0204a023          	sw	zero,32(s1)
    80006398:	0204a423          	sw	zero,40(s1)
    8000639c:	0a448513          	addi	a0,s1,164
    800063a0:	268010ef          	jal	ra,80007608 <memset>
    800063a4:	01893403          	ld	s0,24(s2)
    800063a8:	000207b7          	lui	a5,0x20
    800063ac:	0364bc23          	sd	s6,56(s1)
    800063b0:	0554b023          	sd	s5,64(s1)
    800063b4:	0544b423          	sd	s4,72(s1)
    800063b8:	0534b823          	sd	s3,80(s1)
    800063bc:	0294b823          	sd	s1,48(s1)
    800063c0:	01278793          	addi	a5,a5,18 # 20012 <_start-0x7ffdffee>
    800063c4:	00f42823          	sw	a5,16(s0)
    800063c8:	0a042623          	sw	zero,172(s0)
    800063cc:	00043023          	sd	zero,0(s0)
    800063d0:	00043423          	sd	zero,8(s0)
    800063d4:	00043c23          	sd	zero,24(s0)
    800063d8:	02042023          	sw	zero,32(s0)
    800063dc:	02042423          	sw	zero,40(s0)
    800063e0:	0a440513          	addi	a0,s0,164
    800063e4:	00800613          	li	a2,8
    800063e8:	00000593          	li	a1,0
    800063ec:	21c010ef          	jal	ra,80007608 <memset>
    800063f0:	03813083          	ld	ra,56(sp)
    800063f4:	03643c23          	sd	s6,56(s0)
    800063f8:	05543023          	sd	s5,64(s0)
    800063fc:	05443423          	sd	s4,72(s0)
    80006400:	05343823          	sd	s3,80(s0)
    80006404:	02843823          	sd	s0,48(s0)
    80006408:	03013403          	ld	s0,48(sp)
    8000640c:	00100793          	li	a5,1
    80006410:	04f92823          	sw	a5,80(s2)
    80006414:	02813483          	ld	s1,40(sp)
    80006418:	02013903          	ld	s2,32(sp)
    8000641c:	01813983          	ld	s3,24(sp)
    80006420:	01013a03          	ld	s4,16(sp)
    80006424:	00813a83          	ld	s5,8(sp)
    80006428:	00013b03          	ld	s6,0(sp)
    8000642c:	04010113          	addi	sp,sp,64
    80006430:	00008067          	ret

0000000080006434 <__sfmoreglue>:
    80006434:	fe010113          	addi	sp,sp,-32
    80006438:	00913423          	sd	s1,8(sp)
    8000643c:	0b000793          	li	a5,176
    80006440:	fff5849b          	addiw	s1,a1,-1
    80006444:	02f484b3          	mul	s1,s1,a5
    80006448:	01213023          	sd	s2,0(sp)
    8000644c:	00058913          	mv	s2,a1
    80006450:	00813823          	sd	s0,16(sp)
    80006454:	00113c23          	sd	ra,24(sp)
    80006458:	0c848593          	addi	a1,s1,200
    8000645c:	7ec000ef          	jal	ra,80006c48 <_malloc_r>
    80006460:	00050413          	mv	s0,a0
    80006464:	02050063          	beqz	a0,80006484 <__sfmoreglue+0x50>
    80006468:	01850513          	addi	a0,a0,24
    8000646c:	00043023          	sd	zero,0(s0)
    80006470:	01242423          	sw	s2,8(s0)
    80006474:	00a43823          	sd	a0,16(s0)
    80006478:	0b048613          	addi	a2,s1,176
    8000647c:	00000593          	li	a1,0
    80006480:	188010ef          	jal	ra,80007608 <memset>
    80006484:	01813083          	ld	ra,24(sp)
    80006488:	00040513          	mv	a0,s0
    8000648c:	01013403          	ld	s0,16(sp)
    80006490:	00813483          	ld	s1,8(sp)
    80006494:	00013903          	ld	s2,0(sp)
    80006498:	02010113          	addi	sp,sp,32
    8000649c:	00008067          	ret

00000000800064a0 <__sfp>:
    800064a0:	fd010113          	addi	sp,sp,-48
    800064a4:	00913c23          	sd	s1,24(sp)
    800064a8:	00002497          	auipc	s1,0x2
    800064ac:	aa84b483          	ld	s1,-1368(s1) # 80007f50 <_global_impure_ptr>
    800064b0:	0504a783          	lw	a5,80(s1)
    800064b4:	01213823          	sd	s2,16(sp)
    800064b8:	02113423          	sd	ra,40(sp)
    800064bc:	02813023          	sd	s0,32(sp)
    800064c0:	01313423          	sd	s3,8(sp)
    800064c4:	01413023          	sd	s4,0(sp)
    800064c8:	00050913          	mv	s2,a0
    800064cc:	0c078063          	beqz	a5,8000658c <__sfp+0xec>
    800064d0:	52048493          	addi	s1,s1,1312
    800064d4:	0b000993          	li	s3,176
    800064d8:	00400a13          	li	s4,4
    800064dc:	0084a783          	lw	a5,8(s1)
    800064e0:	0104b403          	ld	s0,16(s1)
    800064e4:	08f05c63          	blez	a5,8000657c <__sfp+0xdc>
    800064e8:	fff7879b          	addiw	a5,a5,-1
    800064ec:	02079793          	slli	a5,a5,0x20
    800064f0:	0207d793          	srli	a5,a5,0x20
    800064f4:	00178793          	addi	a5,a5,1
    800064f8:	033787b3          	mul	a5,a5,s3
    800064fc:	00f407b3          	add	a5,s0,a5
    80006500:	00c0006f          	j	8000650c <__sfp+0x6c>
    80006504:	0b040413          	addi	s0,s0,176
    80006508:	06f40a63          	beq	s0,a5,8000657c <__sfp+0xdc>
    8000650c:	01041703          	lh	a4,16(s0)
    80006510:	fe071ae3          	bnez	a4,80006504 <__sfp+0x64>
    80006514:	ffff07b7          	lui	a5,0xffff0
    80006518:	00178793          	addi	a5,a5,1 # ffffffffffff0001 <__stack_end+0xffffffff7fef0001>
    8000651c:	0a042623          	sw	zero,172(s0)
    80006520:	00043023          	sd	zero,0(s0)
    80006524:	00043423          	sd	zero,8(s0)
    80006528:	00f42823          	sw	a5,16(s0)
    8000652c:	00043c23          	sd	zero,24(s0)
    80006530:	02042023          	sw	zero,32(s0)
    80006534:	02042423          	sw	zero,40(s0)
    80006538:	00800613          	li	a2,8
    8000653c:	00000593          	li	a1,0
    80006540:	0a440513          	addi	a0,s0,164
    80006544:	0c4010ef          	jal	ra,80007608 <memset>
    80006548:	04043c23          	sd	zero,88(s0)
    8000654c:	06042023          	sw	zero,96(s0)
    80006550:	06043c23          	sd	zero,120(s0)
    80006554:	08042023          	sw	zero,128(s0)
    80006558:	02813083          	ld	ra,40(sp)
    8000655c:	00040513          	mv	a0,s0
    80006560:	02013403          	ld	s0,32(sp)
    80006564:	01813483          	ld	s1,24(sp)
    80006568:	01013903          	ld	s2,16(sp)
    8000656c:	00813983          	ld	s3,8(sp)
    80006570:	00013a03          	ld	s4,0(sp)
    80006574:	03010113          	addi	sp,sp,48
    80006578:	00008067          	ret
    8000657c:	0004b403          	ld	s0,0(s1)
    80006580:	00040c63          	beqz	s0,80006598 <__sfp+0xf8>
    80006584:	00040493          	mv	s1,s0
    80006588:	f55ff06f          	j	800064dc <__sfp+0x3c>
    8000658c:	00048513          	mv	a0,s1
    80006590:	d2dff0ef          	jal	ra,800062bc <__sinit.part.0>
    80006594:	f3dff06f          	j	800064d0 <__sfp+0x30>
    80006598:	2d800593          	li	a1,728
    8000659c:	00090513          	mv	a0,s2
    800065a0:	6a8000ef          	jal	ra,80006c48 <_malloc_r>
    800065a4:	00050413          	mv	s0,a0
    800065a8:	02050663          	beqz	a0,800065d4 <__sfp+0x134>
    800065ac:	01850513          	addi	a0,a0,24
    800065b0:	00043023          	sd	zero,0(s0)
    800065b4:	01442423          	sw	s4,8(s0)
    800065b8:	00a43823          	sd	a0,16(s0)
    800065bc:	2c000613          	li	a2,704
    800065c0:	00000593          	li	a1,0
    800065c4:	044010ef          	jal	ra,80007608 <memset>
    800065c8:	0084b023          	sd	s0,0(s1)
    800065cc:	00040493          	mv	s1,s0
    800065d0:	f0dff06f          	j	800064dc <__sfp+0x3c>
    800065d4:	0004b023          	sd	zero,0(s1)
    800065d8:	00c00793          	li	a5,12
    800065dc:	00f92023          	sw	a5,0(s2)
    800065e0:	f79ff06f          	j	80006558 <__sfp+0xb8>

00000000800065e4 <_cleanup>:
    800065e4:	00001597          	auipc	a1,0x1
    800065e8:	37858593          	addi	a1,a1,888 # 8000795c <_fclose_r>
    800065ec:	00002517          	auipc	a0,0x2
    800065f0:	96453503          	ld	a0,-1692(a0) # 80007f50 <_global_impure_ptr>
    800065f4:	5800006f          	j	80006b74 <_fwalk_reent>

00000000800065f8 <__sinit>:
    800065f8:	05052783          	lw	a5,80(a0)
    800065fc:	00078463          	beqz	a5,80006604 <__sinit+0xc>
    80006600:	00008067          	ret
    80006604:	cb9ff06f          	j	800062bc <__sinit.part.0>

0000000080006608 <__sfp_lock_acquire>:
    80006608:	00008067          	ret

000000008000660c <__sfp_lock_release>:
    8000660c:	00008067          	ret

0000000080006610 <__sinit_lock_acquire>:
    80006610:	00008067          	ret

0000000080006614 <__sinit_lock_release>:
    80006614:	00008067          	ret

0000000080006618 <__fp_lock_all>:
    80006618:	00000597          	auipc	a1,0x0
    8000661c:	c8858593          	addi	a1,a1,-888 # 800062a0 <__fp_lock>
    80006620:	00003517          	auipc	a0,0x3
    80006624:	d7053503          	ld	a0,-656(a0) # 80009390 <_impure_ptr>
    80006628:	4880006f          	j	80006ab0 <_fwalk>

000000008000662c <__fp_unlock_all>:
    8000662c:	00000597          	auipc	a1,0x0
    80006630:	c8858593          	addi	a1,a1,-888 # 800062b4 <__fp_unlock>
    80006634:	00003517          	auipc	a0,0x3
    80006638:	d5c53503          	ld	a0,-676(a0) # 80009390 <_impure_ptr>
    8000663c:	4740006f          	j	80006ab0 <_fwalk>

0000000080006640 <_malloc_trim_r>:
    80006640:	fd010113          	addi	sp,sp,-48
    80006644:	02813023          	sd	s0,32(sp)
    80006648:	00913c23          	sd	s1,24(sp)
    8000664c:	01213823          	sd	s2,16(sp)
    80006650:	01313423          	sd	s3,8(sp)
    80006654:	01413023          	sd	s4,0(sp)
    80006658:	00058993          	mv	s3,a1
    8000665c:	02113423          	sd	ra,40(sp)
    80006660:	00002a17          	auipc	s4,0x2
    80006664:	040a0a13          	addi	s4,s4,64 # 800086a0 <__malloc_av_>
    80006668:	00050913          	mv	s2,a0
    8000666c:	078010ef          	jal	ra,800076e4 <__malloc_lock>
    80006670:	010a3703          	ld	a4,16(s4)
    80006674:	000017b7          	lui	a5,0x1
    80006678:	fdf78413          	addi	s0,a5,-33 # fdf <_start-0x7ffff021>
    8000667c:	00873483          	ld	s1,8(a4)
    80006680:	41340433          	sub	s0,s0,s3
    80006684:	ffc4f493          	andi	s1,s1,-4
    80006688:	00940433          	add	s0,s0,s1
    8000668c:	00c45413          	srli	s0,s0,0xc
    80006690:	fff40413          	addi	s0,s0,-1
    80006694:	00c41413          	slli	s0,s0,0xc
    80006698:	00f44e63          	blt	s0,a5,800066b4 <_malloc_trim_r+0x74>
    8000669c:	00000593          	li	a1,0
    800066a0:	00090513          	mv	a0,s2
    800066a4:	048010ef          	jal	ra,800076ec <_sbrk_r>
    800066a8:	010a3783          	ld	a5,16(s4)
    800066ac:	009787b3          	add	a5,a5,s1
    800066b0:	02f50863          	beq	a0,a5,800066e0 <_malloc_trim_r+0xa0>
    800066b4:	00090513          	mv	a0,s2
    800066b8:	030010ef          	jal	ra,800076e8 <__malloc_unlock>
    800066bc:	02813083          	ld	ra,40(sp)
    800066c0:	02013403          	ld	s0,32(sp)
    800066c4:	01813483          	ld	s1,24(sp)
    800066c8:	01013903          	ld	s2,16(sp)
    800066cc:	00813983          	ld	s3,8(sp)
    800066d0:	00013a03          	ld	s4,0(sp)
    800066d4:	00000513          	li	a0,0
    800066d8:	03010113          	addi	sp,sp,48
    800066dc:	00008067          	ret
    800066e0:	408005b3          	neg	a1,s0
    800066e4:	00090513          	mv	a0,s2
    800066e8:	004010ef          	jal	ra,800076ec <_sbrk_r>
    800066ec:	fff00793          	li	a5,-1
    800066f0:	04f50a63          	beq	a0,a5,80006744 <_malloc_trim_r+0x104>
    800066f4:	00004717          	auipc	a4,0x4
    800066f8:	c9470713          	addi	a4,a4,-876 # 8000a388 <__malloc_current_mallinfo>
    800066fc:	00072783          	lw	a5,0(a4)
    80006700:	010a3683          	ld	a3,16(s4)
    80006704:	408484b3          	sub	s1,s1,s0
    80006708:	0014e493          	ori	s1,s1,1
    8000670c:	408787bb          	subw	a5,a5,s0
    80006710:	00090513          	mv	a0,s2
    80006714:	0096b423          	sd	s1,8(a3) # 1008 <_start-0x7fffeff8>
    80006718:	00f72023          	sw	a5,0(a4)
    8000671c:	7cd000ef          	jal	ra,800076e8 <__malloc_unlock>
    80006720:	02813083          	ld	ra,40(sp)
    80006724:	02013403          	ld	s0,32(sp)
    80006728:	01813483          	ld	s1,24(sp)
    8000672c:	01013903          	ld	s2,16(sp)
    80006730:	00813983          	ld	s3,8(sp)
    80006734:	00013a03          	ld	s4,0(sp)
    80006738:	00100513          	li	a0,1
    8000673c:	03010113          	addi	sp,sp,48
    80006740:	00008067          	ret
    80006744:	00000593          	li	a1,0
    80006748:	00090513          	mv	a0,s2
    8000674c:	7a1000ef          	jal	ra,800076ec <_sbrk_r>
    80006750:	010a3703          	ld	a4,16(s4)
    80006754:	01f00693          	li	a3,31
    80006758:	40e507b3          	sub	a5,a0,a4
    8000675c:	f4f6dce3          	bge	a3,a5,800066b4 <_malloc_trim_r+0x74>
    80006760:	00003697          	auipc	a3,0x3
    80006764:	c386b683          	ld	a3,-968(a3) # 80009398 <__malloc_sbrk_base>
    80006768:	40d50533          	sub	a0,a0,a3
    8000676c:	0017e793          	ori	a5,a5,1
    80006770:	00004697          	auipc	a3,0x4
    80006774:	c0a6ac23          	sw	a0,-1000(a3) # 8000a388 <__malloc_current_mallinfo>
    80006778:	00f73423          	sd	a5,8(a4)
    8000677c:	f39ff06f          	j	800066b4 <_malloc_trim_r+0x74>

0000000080006780 <_free_r>:
    80006780:	12058e63          	beqz	a1,800068bc <_free_r+0x13c>
    80006784:	fe010113          	addi	sp,sp,-32
    80006788:	00813823          	sd	s0,16(sp)
    8000678c:	00913423          	sd	s1,8(sp)
    80006790:	00058413          	mv	s0,a1
    80006794:	00050493          	mv	s1,a0
    80006798:	00113c23          	sd	ra,24(sp)
    8000679c:	749000ef          	jal	ra,800076e4 <__malloc_lock>
    800067a0:	ff843583          	ld	a1,-8(s0)
    800067a4:	ff040713          	addi	a4,s0,-16
    800067a8:	00002517          	auipc	a0,0x2
    800067ac:	ef850513          	addi	a0,a0,-264 # 800086a0 <__malloc_av_>
    800067b0:	ffe5f793          	andi	a5,a1,-2
    800067b4:	00f70633          	add	a2,a4,a5
    800067b8:	00863683          	ld	a3,8(a2)
    800067bc:	01053803          	ld	a6,16(a0)
    800067c0:	ffc6f693          	andi	a3,a3,-4
    800067c4:	1cc80063          	beq	a6,a2,80006984 <_free_r+0x204>
    800067c8:	00d63423          	sd	a3,8(a2)
    800067cc:	0015f593          	andi	a1,a1,1
    800067d0:	00d60833          	add	a6,a2,a3
    800067d4:	0a059463          	bnez	a1,8000687c <_free_r+0xfc>
    800067d8:	ff043303          	ld	t1,-16(s0)
    800067dc:	00883583          	ld	a1,8(a6)
    800067e0:	00002897          	auipc	a7,0x2
    800067e4:	ed088893          	addi	a7,a7,-304 # 800086b0 <__malloc_av_+0x10>
    800067e8:	40670733          	sub	a4,a4,t1
    800067ec:	01073803          	ld	a6,16(a4)
    800067f0:	006787b3          	add	a5,a5,t1
    800067f4:	0015f593          	andi	a1,a1,1
    800067f8:	15180663          	beq	a6,a7,80006944 <_free_r+0x1c4>
    800067fc:	01873303          	ld	t1,24(a4)
    80006800:	00683c23          	sd	t1,24(a6)
    80006804:	01033823          	sd	a6,16(t1)
    80006808:	1e058c63          	beqz	a1,80006a00 <_free_r+0x280>
    8000680c:	0017e693          	ori	a3,a5,1
    80006810:	00d73423          	sd	a3,8(a4)
    80006814:	00f63023          	sd	a5,0(a2)
    80006818:	1ff00693          	li	a3,511
    8000681c:	0af6ec63          	bltu	a3,a5,800068d4 <_free_r+0x154>
    80006820:	0037d793          	srli	a5,a5,0x3
    80006824:	0017869b          	addiw	a3,a5,1
    80006828:	0016969b          	slliw	a3,a3,0x1
    8000682c:	00369693          	slli	a3,a3,0x3
    80006830:	00853803          	ld	a6,8(a0)
    80006834:	00d506b3          	add	a3,a0,a3
    80006838:	0006b583          	ld	a1,0(a3)
    8000683c:	4027d61b          	sraiw	a2,a5,0x2
    80006840:	00100793          	li	a5,1
    80006844:	00c797b3          	sll	a5,a5,a2
    80006848:	0107e7b3          	or	a5,a5,a6
    8000684c:	ff068613          	addi	a2,a3,-16
    80006850:	00c73c23          	sd	a2,24(a4)
    80006854:	00b73823          	sd	a1,16(a4)
    80006858:	00f53423          	sd	a5,8(a0)
    8000685c:	00e6b023          	sd	a4,0(a3)
    80006860:	00e5bc23          	sd	a4,24(a1)
    80006864:	01013403          	ld	s0,16(sp)
    80006868:	01813083          	ld	ra,24(sp)
    8000686c:	00048513          	mv	a0,s1
    80006870:	00813483          	ld	s1,8(sp)
    80006874:	02010113          	addi	sp,sp,32
    80006878:	6710006f          	j	800076e8 <__malloc_unlock>
    8000687c:	00883583          	ld	a1,8(a6)
    80006880:	0015f593          	andi	a1,a1,1
    80006884:	02059e63          	bnez	a1,800068c0 <_free_r+0x140>
    80006888:	00d787b3          	add	a5,a5,a3
    8000688c:	00002897          	auipc	a7,0x2
    80006890:	e2488893          	addi	a7,a7,-476 # 800086b0 <__malloc_av_+0x10>
    80006894:	01063683          	ld	a3,16(a2)
    80006898:	0017e813          	ori	a6,a5,1
    8000689c:	00f705b3          	add	a1,a4,a5
    800068a0:	17168e63          	beq	a3,a7,80006a1c <_free_r+0x29c>
    800068a4:	01863603          	ld	a2,24(a2)
    800068a8:	00c6bc23          	sd	a2,24(a3)
    800068ac:	00d63823          	sd	a3,16(a2)
    800068b0:	01073423          	sd	a6,8(a4)
    800068b4:	00f5b023          	sd	a5,0(a1)
    800068b8:	f61ff06f          	j	80006818 <_free_r+0x98>
    800068bc:	00008067          	ret
    800068c0:	0017e693          	ori	a3,a5,1
    800068c4:	fed43c23          	sd	a3,-8(s0)
    800068c8:	00f63023          	sd	a5,0(a2)
    800068cc:	1ff00693          	li	a3,511
    800068d0:	f4f6f8e3          	bgeu	a3,a5,80006820 <_free_r+0xa0>
    800068d4:	0097d693          	srli	a3,a5,0x9
    800068d8:	00400613          	li	a2,4
    800068dc:	0ed66e63          	bltu	a2,a3,800069d8 <_free_r+0x258>
    800068e0:	0067d693          	srli	a3,a5,0x6
    800068e4:	0396859b          	addiw	a1,a3,57
    800068e8:	0015959b          	slliw	a1,a1,0x1
    800068ec:	0386861b          	addiw	a2,a3,56
    800068f0:	00359593          	slli	a1,a1,0x3
    800068f4:	00b505b3          	add	a1,a0,a1
    800068f8:	0005b683          	ld	a3,0(a1)
    800068fc:	ff058593          	addi	a1,a1,-16
    80006900:	12d58c63          	beq	a1,a3,80006a38 <_free_r+0x2b8>
    80006904:	0086b603          	ld	a2,8(a3)
    80006908:	ffc67613          	andi	a2,a2,-4
    8000690c:	00c7f663          	bgeu	a5,a2,80006918 <_free_r+0x198>
    80006910:	0106b683          	ld	a3,16(a3)
    80006914:	fed598e3          	bne	a1,a3,80006904 <_free_r+0x184>
    80006918:	0186b583          	ld	a1,24(a3)
    8000691c:	00b73c23          	sd	a1,24(a4)
    80006920:	00d73823          	sd	a3,16(a4)
    80006924:	01013403          	ld	s0,16(sp)
    80006928:	01813083          	ld	ra,24(sp)
    8000692c:	00e5b823          	sd	a4,16(a1)
    80006930:	00048513          	mv	a0,s1
    80006934:	00813483          	ld	s1,8(sp)
    80006938:	00e6bc23          	sd	a4,24(a3)
    8000693c:	02010113          	addi	sp,sp,32
    80006940:	5a90006f          	j	800076e8 <__malloc_unlock>
    80006944:	14059e63          	bnez	a1,80006aa0 <_free_r+0x320>
    80006948:	01863583          	ld	a1,24(a2)
    8000694c:	01063603          	ld	a2,16(a2)
    80006950:	00f686b3          	add	a3,a3,a5
    80006954:	01013403          	ld	s0,16(sp)
    80006958:	00b63c23          	sd	a1,24(a2)
    8000695c:	00c5b823          	sd	a2,16(a1)
    80006960:	0016e793          	ori	a5,a3,1
    80006964:	01813083          	ld	ra,24(sp)
    80006968:	00f73423          	sd	a5,8(a4)
    8000696c:	00048513          	mv	a0,s1
    80006970:	00d70733          	add	a4,a4,a3
    80006974:	00813483          	ld	s1,8(sp)
    80006978:	00d73023          	sd	a3,0(a4)
    8000697c:	02010113          	addi	sp,sp,32
    80006980:	5690006f          	j	800076e8 <__malloc_unlock>
    80006984:	0015f593          	andi	a1,a1,1
    80006988:	00d786b3          	add	a3,a5,a3
    8000698c:	02059063          	bnez	a1,800069ac <_free_r+0x22c>
    80006990:	ff043583          	ld	a1,-16(s0)
    80006994:	40b70733          	sub	a4,a4,a1
    80006998:	01873783          	ld	a5,24(a4)
    8000699c:	01073603          	ld	a2,16(a4)
    800069a0:	00b686b3          	add	a3,a3,a1
    800069a4:	00f63c23          	sd	a5,24(a2)
    800069a8:	00c7b823          	sd	a2,16(a5)
    800069ac:	0016e793          	ori	a5,a3,1
    800069b0:	00f73423          	sd	a5,8(a4)
    800069b4:	00e53823          	sd	a4,16(a0)
    800069b8:	00003797          	auipc	a5,0x3
    800069bc:	9e87b783          	ld	a5,-1560(a5) # 800093a0 <__malloc_trim_threshold>
    800069c0:	eaf6e2e3          	bltu	a3,a5,80006864 <_free_r+0xe4>
    800069c4:	00004597          	auipc	a1,0x4
    800069c8:	a6c5b583          	ld	a1,-1428(a1) # 8000a430 <__malloc_top_pad>
    800069cc:	00048513          	mv	a0,s1
    800069d0:	c71ff0ef          	jal	ra,80006640 <_malloc_trim_r>
    800069d4:	e91ff06f          	j	80006864 <_free_r+0xe4>
    800069d8:	01400613          	li	a2,20
    800069dc:	02d67663          	bgeu	a2,a3,80006a08 <_free_r+0x288>
    800069e0:	05400613          	li	a2,84
    800069e4:	06d66863          	bltu	a2,a3,80006a54 <_free_r+0x2d4>
    800069e8:	00c7d693          	srli	a3,a5,0xc
    800069ec:	06f6859b          	addiw	a1,a3,111
    800069f0:	0015959b          	slliw	a1,a1,0x1
    800069f4:	06e6861b          	addiw	a2,a3,110
    800069f8:	00359593          	slli	a1,a1,0x3
    800069fc:	ef9ff06f          	j	800068f4 <_free_r+0x174>
    80006a00:	00d787b3          	add	a5,a5,a3
    80006a04:	e91ff06f          	j	80006894 <_free_r+0x114>
    80006a08:	05c6859b          	addiw	a1,a3,92
    80006a0c:	0015959b          	slliw	a1,a1,0x1
    80006a10:	05b6861b          	addiw	a2,a3,91
    80006a14:	00359593          	slli	a1,a1,0x3
    80006a18:	eddff06f          	j	800068f4 <_free_r+0x174>
    80006a1c:	02e53423          	sd	a4,40(a0)
    80006a20:	02e53023          	sd	a4,32(a0)
    80006a24:	01173c23          	sd	a7,24(a4)
    80006a28:	01173823          	sd	a7,16(a4)
    80006a2c:	01073423          	sd	a6,8(a4)
    80006a30:	00f5b023          	sd	a5,0(a1)
    80006a34:	e31ff06f          	j	80006864 <_free_r+0xe4>
    80006a38:	00853803          	ld	a6,8(a0)
    80006a3c:	4026561b          	sraiw	a2,a2,0x2
    80006a40:	00100793          	li	a5,1
    80006a44:	00c797b3          	sll	a5,a5,a2
    80006a48:	0107e7b3          	or	a5,a5,a6
    80006a4c:	00f53423          	sd	a5,8(a0)
    80006a50:	ecdff06f          	j	8000691c <_free_r+0x19c>
    80006a54:	15400613          	li	a2,340
    80006a58:	00d66e63          	bltu	a2,a3,80006a74 <_free_r+0x2f4>
    80006a5c:	00f7d693          	srli	a3,a5,0xf
    80006a60:	0786859b          	addiw	a1,a3,120
    80006a64:	0015959b          	slliw	a1,a1,0x1
    80006a68:	0776861b          	addiw	a2,a3,119
    80006a6c:	00359593          	slli	a1,a1,0x3
    80006a70:	e85ff06f          	j	800068f4 <_free_r+0x174>
    80006a74:	55400613          	li	a2,1364
    80006a78:	00d66e63          	bltu	a2,a3,80006a94 <_free_r+0x314>
    80006a7c:	0127d693          	srli	a3,a5,0x12
    80006a80:	07d6859b          	addiw	a1,a3,125
    80006a84:	0015959b          	slliw	a1,a1,0x1
    80006a88:	07c6861b          	addiw	a2,a3,124
    80006a8c:	00359593          	slli	a1,a1,0x3
    80006a90:	e65ff06f          	j	800068f4 <_free_r+0x174>
    80006a94:	7f000593          	li	a1,2032
    80006a98:	07e00613          	li	a2,126
    80006a9c:	e59ff06f          	j	800068f4 <_free_r+0x174>
    80006aa0:	0017e693          	ori	a3,a5,1
    80006aa4:	00d73423          	sd	a3,8(a4)
    80006aa8:	00f63023          	sd	a5,0(a2)
    80006aac:	db9ff06f          	j	80006864 <_free_r+0xe4>

0000000080006ab0 <_fwalk>:
    80006ab0:	fb010113          	addi	sp,sp,-80
    80006ab4:	03213823          	sd	s2,48(sp)
    80006ab8:	03313423          	sd	s3,40(sp)
    80006abc:	03413023          	sd	s4,32(sp)
    80006ac0:	01513c23          	sd	s5,24(sp)
    80006ac4:	01613823          	sd	s6,16(sp)
    80006ac8:	01713423          	sd	s7,8(sp)
    80006acc:	04113423          	sd	ra,72(sp)
    80006ad0:	04813023          	sd	s0,64(sp)
    80006ad4:	02913c23          	sd	s1,56(sp)
    80006ad8:	00058a13          	mv	s4,a1
    80006adc:	52050913          	addi	s2,a0,1312
    80006ae0:	00000b13          	li	s6,0
    80006ae4:	0b000a93          	li	s5,176
    80006ae8:	00100b93          	li	s7,1
    80006aec:	fff00993          	li	s3,-1
    80006af0:	00892783          	lw	a5,8(s2)
    80006af4:	01093403          	ld	s0,16(s2)
    80006af8:	04f05263          	blez	a5,80006b3c <_fwalk+0x8c>
    80006afc:	fff7849b          	addiw	s1,a5,-1
    80006b00:	02049493          	slli	s1,s1,0x20
    80006b04:	0204d493          	srli	s1,s1,0x20
    80006b08:	00148493          	addi	s1,s1,1
    80006b0c:	035484b3          	mul	s1,s1,s5
    80006b10:	009404b3          	add	s1,s0,s1
    80006b14:	01045783          	lhu	a5,16(s0)
    80006b18:	00fbfe63          	bgeu	s7,a5,80006b34 <_fwalk+0x84>
    80006b1c:	01241783          	lh	a5,18(s0)
    80006b20:	00040513          	mv	a0,s0
    80006b24:	01378863          	beq	a5,s3,80006b34 <_fwalk+0x84>
    80006b28:	000a00e7          	jalr	s4
    80006b2c:	01656b33          	or	s6,a0,s6
    80006b30:	000b0b1b          	sext.w	s6,s6
    80006b34:	0b040413          	addi	s0,s0,176
    80006b38:	fc849ee3          	bne	s1,s0,80006b14 <_fwalk+0x64>
    80006b3c:	00093903          	ld	s2,0(s2)
    80006b40:	fa0918e3          	bnez	s2,80006af0 <_fwalk+0x40>
    80006b44:	04813083          	ld	ra,72(sp)
    80006b48:	04013403          	ld	s0,64(sp)
    80006b4c:	03813483          	ld	s1,56(sp)
    80006b50:	03013903          	ld	s2,48(sp)
    80006b54:	02813983          	ld	s3,40(sp)
    80006b58:	02013a03          	ld	s4,32(sp)
    80006b5c:	01813a83          	ld	s5,24(sp)
    80006b60:	00813b83          	ld	s7,8(sp)
    80006b64:	000b0513          	mv	a0,s6
    80006b68:	01013b03          	ld	s6,16(sp)
    80006b6c:	05010113          	addi	sp,sp,80
    80006b70:	00008067          	ret

0000000080006b74 <_fwalk_reent>:
    80006b74:	fb010113          	addi	sp,sp,-80
    80006b78:	03213823          	sd	s2,48(sp)
    80006b7c:	03313423          	sd	s3,40(sp)
    80006b80:	03413023          	sd	s4,32(sp)
    80006b84:	01513c23          	sd	s5,24(sp)
    80006b88:	01613823          	sd	s6,16(sp)
    80006b8c:	01713423          	sd	s7,8(sp)
    80006b90:	01813023          	sd	s8,0(sp)
    80006b94:	04113423          	sd	ra,72(sp)
    80006b98:	04813023          	sd	s0,64(sp)
    80006b9c:	02913c23          	sd	s1,56(sp)
    80006ba0:	00050c13          	mv	s8,a0
    80006ba4:	00058a13          	mv	s4,a1
    80006ba8:	52050913          	addi	s2,a0,1312
    80006bac:	00000b13          	li	s6,0
    80006bb0:	0b000a93          	li	s5,176
    80006bb4:	00100b93          	li	s7,1
    80006bb8:	fff00993          	li	s3,-1
    80006bbc:	00892783          	lw	a5,8(s2)
    80006bc0:	01093403          	ld	s0,16(s2)
    80006bc4:	04f05463          	blez	a5,80006c0c <_fwalk_reent+0x98>
    80006bc8:	fff7849b          	addiw	s1,a5,-1
    80006bcc:	02049493          	slli	s1,s1,0x20
    80006bd0:	0204d493          	srli	s1,s1,0x20
    80006bd4:	00148493          	addi	s1,s1,1
    80006bd8:	035484b3          	mul	s1,s1,s5
    80006bdc:	009404b3          	add	s1,s0,s1
    80006be0:	01045783          	lhu	a5,16(s0)
    80006be4:	02fbf063          	bgeu	s7,a5,80006c04 <_fwalk_reent+0x90>
    80006be8:	01241783          	lh	a5,18(s0)
    80006bec:	00040593          	mv	a1,s0
    80006bf0:	000c0513          	mv	a0,s8
    80006bf4:	01378863          	beq	a5,s3,80006c04 <_fwalk_reent+0x90>
    80006bf8:	000a00e7          	jalr	s4
    80006bfc:	01656b33          	or	s6,a0,s6
    80006c00:	000b0b1b          	sext.w	s6,s6
    80006c04:	0b040413          	addi	s0,s0,176
    80006c08:	fc849ce3          	bne	s1,s0,80006be0 <_fwalk_reent+0x6c>
    80006c0c:	00093903          	ld	s2,0(s2)
    80006c10:	fa0916e3          	bnez	s2,80006bbc <_fwalk_reent+0x48>
    80006c14:	04813083          	ld	ra,72(sp)
    80006c18:	04013403          	ld	s0,64(sp)
    80006c1c:	03813483          	ld	s1,56(sp)
    80006c20:	03013903          	ld	s2,48(sp)
    80006c24:	02813983          	ld	s3,40(sp)
    80006c28:	02013a03          	ld	s4,32(sp)
    80006c2c:	01813a83          	ld	s5,24(sp)
    80006c30:	00813b83          	ld	s7,8(sp)
    80006c34:	00013c03          	ld	s8,0(sp)
    80006c38:	000b0513          	mv	a0,s6
    80006c3c:	01013b03          	ld	s6,16(sp)
    80006c40:	05010113          	addi	sp,sp,80
    80006c44:	00008067          	ret

0000000080006c48 <_malloc_r>:
    80006c48:	fa010113          	addi	sp,sp,-96
    80006c4c:	04913423          	sd	s1,72(sp)
    80006c50:	05213023          	sd	s2,64(sp)
    80006c54:	04113c23          	sd	ra,88(sp)
    80006c58:	04813823          	sd	s0,80(sp)
    80006c5c:	03313c23          	sd	s3,56(sp)
    80006c60:	03413823          	sd	s4,48(sp)
    80006c64:	03513423          	sd	s5,40(sp)
    80006c68:	03613023          	sd	s6,32(sp)
    80006c6c:	01713c23          	sd	s7,24(sp)
    80006c70:	01813823          	sd	s8,16(sp)
    80006c74:	01913423          	sd	s9,8(sp)
    80006c78:	01758493          	addi	s1,a1,23
    80006c7c:	02e00793          	li	a5,46
    80006c80:	00050913          	mv	s2,a0
    80006c84:	0697e663          	bltu	a5,s1,80006cf0 <_malloc_r+0xa8>
    80006c88:	02000793          	li	a5,32
    80006c8c:	28b7e063          	bltu	a5,a1,80006f0c <_malloc_r+0x2c4>
    80006c90:	255000ef          	jal	ra,800076e4 <__malloc_lock>
    80006c94:	02000493          	li	s1,32
    80006c98:	05000793          	li	a5,80
    80006c9c:	00400613          	li	a2,4
    80006ca0:	00002997          	auipc	s3,0x2
    80006ca4:	a0098993          	addi	s3,s3,-1536 # 800086a0 <__malloc_av_>
    80006ca8:	00f987b3          	add	a5,s3,a5
    80006cac:	0087b403          	ld	s0,8(a5)
    80006cb0:	ff078713          	addi	a4,a5,-16
    80006cb4:	28e40c63          	beq	s0,a4,80006f4c <_malloc_r+0x304>
    80006cb8:	00843783          	ld	a5,8(s0)
    80006cbc:	01843683          	ld	a3,24(s0)
    80006cc0:	01043603          	ld	a2,16(s0)
    80006cc4:	ffc7f793          	andi	a5,a5,-4
    80006cc8:	00f407b3          	add	a5,s0,a5
    80006ccc:	0087b703          	ld	a4,8(a5)
    80006cd0:	00d63c23          	sd	a3,24(a2)
    80006cd4:	00c6b823          	sd	a2,16(a3)
    80006cd8:	00176713          	ori	a4,a4,1
    80006cdc:	00090513          	mv	a0,s2
    80006ce0:	00e7b423          	sd	a4,8(a5)
    80006ce4:	205000ef          	jal	ra,800076e8 <__malloc_unlock>
    80006ce8:	01040513          	addi	a0,s0,16
    80006cec:	22c0006f          	j	80006f18 <_malloc_r+0x2d0>
    80006cf0:	800007b7          	lui	a5,0x80000
    80006cf4:	ff04f493          	andi	s1,s1,-16
    80006cf8:	fff7c793          	not	a5,a5
    80006cfc:	2097e863          	bltu	a5,s1,80006f0c <_malloc_r+0x2c4>
    80006d00:	20b4e663          	bltu	s1,a1,80006f0c <_malloc_r+0x2c4>
    80006d04:	1e1000ef          	jal	ra,800076e4 <__malloc_lock>
    80006d08:	1f700793          	li	a5,503
    80006d0c:	5097f063          	bgeu	a5,s1,8000720c <_malloc_r+0x5c4>
    80006d10:	0094d793          	srli	a5,s1,0x9
    80006d14:	36078663          	beqz	a5,80007080 <_malloc_r+0x438>
    80006d18:	00400713          	li	a4,4
    80006d1c:	42f76663          	bltu	a4,a5,80007148 <_malloc_r+0x500>
    80006d20:	0064d793          	srli	a5,s1,0x6
    80006d24:	0397861b          	addiw	a2,a5,57
    80006d28:	0016169b          	slliw	a3,a2,0x1
    80006d2c:	0387851b          	addiw	a0,a5,56
    80006d30:	00369693          	slli	a3,a3,0x3
    80006d34:	00002997          	auipc	s3,0x2
    80006d38:	96c98993          	addi	s3,s3,-1684 # 800086a0 <__malloc_av_>
    80006d3c:	00d986b3          	add	a3,s3,a3
    80006d40:	0086b403          	ld	s0,8(a3)
    80006d44:	ff068693          	addi	a3,a3,-16
    80006d48:	20868863          	beq	a3,s0,80006f58 <_malloc_r+0x310>
    80006d4c:	01f00593          	li	a1,31
    80006d50:	0100006f          	j	80006d60 <_malloc_r+0x118>
    80006d54:	38075263          	bgez	a4,800070d8 <_malloc_r+0x490>
    80006d58:	01843403          	ld	s0,24(s0)
    80006d5c:	1e868e63          	beq	a3,s0,80006f58 <_malloc_r+0x310>
    80006d60:	00843783          	ld	a5,8(s0)
    80006d64:	ffc7f793          	andi	a5,a5,-4
    80006d68:	40978733          	sub	a4,a5,s1
    80006d6c:	fee5d4e3          	bge	a1,a4,80006d54 <_malloc_r+0x10c>
    80006d70:	0209b403          	ld	s0,32(s3)
    80006d74:	00002897          	auipc	a7,0x2
    80006d78:	93c88893          	addi	a7,a7,-1732 # 800086b0 <__malloc_av_+0x10>
    80006d7c:	00050613          	mv	a2,a0
    80006d80:	1f141463          	bne	s0,a7,80006f68 <_malloc_r+0x320>
    80006d84:	0089b783          	ld	a5,8(s3)
    80006d88:	4026571b          	sraiw	a4,a2,0x2
    80006d8c:	00100593          	li	a1,1
    80006d90:	00e595b3          	sll	a1,a1,a4
    80006d94:	24b7f863          	bgeu	a5,a1,80006fe4 <_malloc_r+0x39c>
    80006d98:	0109b403          	ld	s0,16(s3)
    80006d9c:	00843a83          	ld	s5,8(s0)
    80006da0:	ffcafa93          	andi	s5,s5,-4
    80006da4:	009ae863          	bltu	s5,s1,80006db4 <_malloc_r+0x16c>
    80006da8:	409a87b3          	sub	a5,s5,s1
    80006dac:	01f00713          	li	a4,31
    80006db0:	30f74063          	blt	a4,a5,800070b0 <_malloc_r+0x468>
    80006db4:	00002c97          	auipc	s9,0x2
    80006db8:	5e4c8c93          	addi	s9,s9,1508 # 80009398 <__malloc_sbrk_base>
    80006dbc:	000cb703          	ld	a4,0(s9)
    80006dc0:	00003a17          	auipc	s4,0x3
    80006dc4:	670a3a03          	ld	s4,1648(s4) # 8000a430 <__malloc_top_pad>
    80006dc8:	fff00793          	li	a5,-1
    80006dcc:	01540bb3          	add	s7,s0,s5
    80006dd0:	01448a33          	add	s4,s1,s4
    80006dd4:	50f70063          	beq	a4,a5,800072d4 <_malloc_r+0x68c>
    80006dd8:	000017b7          	lui	a5,0x1
    80006ddc:	01f78793          	addi	a5,a5,31 # 101f <_start-0x7fffefe1>
    80006de0:	00fa0a33          	add	s4,s4,a5
    80006de4:	fffff7b7          	lui	a5,0xfffff
    80006de8:	00fa7a33          	and	s4,s4,a5
    80006dec:	000a0593          	mv	a1,s4
    80006df0:	00090513          	mv	a0,s2
    80006df4:	0f9000ef          	jal	ra,800076ec <_sbrk_r>
    80006df8:	fff00793          	li	a5,-1
    80006dfc:	00050b13          	mv	s6,a0
    80006e00:	44f50063          	beq	a0,a5,80007240 <_malloc_r+0x5f8>
    80006e04:	43756c63          	bltu	a0,s7,8000723c <_malloc_r+0x5f4>
    80006e08:	00003c17          	auipc	s8,0x3
    80006e0c:	580c0c13          	addi	s8,s8,1408 # 8000a388 <__malloc_current_mallinfo>
    80006e10:	000c2703          	lw	a4,0(s8)
    80006e14:	014707bb          	addw	a5,a4,s4
    80006e18:	00fc2023          	sw	a5,0(s8)
    80006e1c:	00078693          	mv	a3,a5
    80006e20:	54ab8e63          	beq	s7,a0,8000737c <_malloc_r+0x734>
    80006e24:	000cb703          	ld	a4,0(s9)
    80006e28:	fff00793          	li	a5,-1
    80006e2c:	56f70663          	beq	a4,a5,80007398 <_malloc_r+0x750>
    80006e30:	417b07b3          	sub	a5,s6,s7
    80006e34:	00d787bb          	addw	a5,a5,a3
    80006e38:	00fc2023          	sw	a5,0(s8)
    80006e3c:	00fb7c93          	andi	s9,s6,15
    80006e40:	4a0c8c63          	beqz	s9,800072f8 <_malloc_r+0x6b0>
    80006e44:	000017b7          	lui	a5,0x1
    80006e48:	419b0b33          	sub	s6,s6,s9
    80006e4c:	01078b93          	addi	s7,a5,16 # 1010 <_start-0x7fffeff0>
    80006e50:	010b0b13          	addi	s6,s6,16
    80006e54:	419b8bb3          	sub	s7,s7,s9
    80006e58:	014b0a33          	add	s4,s6,s4
    80006e5c:	fff78793          	addi	a5,a5,-1
    80006e60:	414b8bb3          	sub	s7,s7,s4
    80006e64:	00fbfbb3          	and	s7,s7,a5
    80006e68:	000b8593          	mv	a1,s7
    80006e6c:	00090513          	mv	a0,s2
    80006e70:	07d000ef          	jal	ra,800076ec <_sbrk_r>
    80006e74:	fff00793          	li	a5,-1
    80006e78:	56f50e63          	beq	a0,a5,800073f4 <_malloc_r+0x7ac>
    80006e7c:	41650533          	sub	a0,a0,s6
    80006e80:	000b871b          	sext.w	a4,s7
    80006e84:	01750a33          	add	s4,a0,s7
    80006e88:	000c2783          	lw	a5,0(s8)
    80006e8c:	0169b823          	sd	s6,16(s3)
    80006e90:	001a6a13          	ori	s4,s4,1
    80006e94:	00e787bb          	addw	a5,a5,a4
    80006e98:	00fc2023          	sw	a5,0(s8)
    80006e9c:	014b3423          	sd	s4,8(s6)
    80006ea0:	51340063          	beq	s0,s3,800073a0 <_malloc_r+0x758>
    80006ea4:	01f00613          	li	a2,31
    80006ea8:	51567063          	bgeu	a2,s5,800073a8 <_malloc_r+0x760>
    80006eac:	00843683          	ld	a3,8(s0)
    80006eb0:	fe8a8713          	addi	a4,s5,-24
    80006eb4:	ff077713          	andi	a4,a4,-16
    80006eb8:	0016f693          	andi	a3,a3,1
    80006ebc:	00e6e6b3          	or	a3,a3,a4
    80006ec0:	00d43423          	sd	a3,8(s0)
    80006ec4:	00900593          	li	a1,9
    80006ec8:	00e406b3          	add	a3,s0,a4
    80006ecc:	00b6b423          	sd	a1,8(a3)
    80006ed0:	00b6b823          	sd	a1,16(a3)
    80006ed4:	52e66a63          	bltu	a2,a4,80007408 <_malloc_r+0x7c0>
    80006ed8:	008b3a03          	ld	s4,8(s6)
    80006edc:	000b0413          	mv	s0,s6
    80006ee0:	00003717          	auipc	a4,0x3
    80006ee4:	54870713          	addi	a4,a4,1352 # 8000a428 <__malloc_max_sbrked_mem>
    80006ee8:	00073683          	ld	a3,0(a4)
    80006eec:	00f6f463          	bgeu	a3,a5,80006ef4 <_malloc_r+0x2ac>
    80006ef0:	00f73023          	sd	a5,0(a4)
    80006ef4:	00003717          	auipc	a4,0x3
    80006ef8:	52c70713          	addi	a4,a4,1324 # 8000a420 <__malloc_max_total_mem>
    80006efc:	00073683          	ld	a3,0(a4)
    80006f00:	34f6f463          	bgeu	a3,a5,80007248 <_malloc_r+0x600>
    80006f04:	00f73023          	sd	a5,0(a4)
    80006f08:	3400006f          	j	80007248 <_malloc_r+0x600>
    80006f0c:	00c00793          	li	a5,12
    80006f10:	00f92023          	sw	a5,0(s2)
    80006f14:	00000513          	li	a0,0
    80006f18:	05813083          	ld	ra,88(sp)
    80006f1c:	05013403          	ld	s0,80(sp)
    80006f20:	04813483          	ld	s1,72(sp)
    80006f24:	04013903          	ld	s2,64(sp)
    80006f28:	03813983          	ld	s3,56(sp)
    80006f2c:	03013a03          	ld	s4,48(sp)
    80006f30:	02813a83          	ld	s5,40(sp)
    80006f34:	02013b03          	ld	s6,32(sp)
    80006f38:	01813b83          	ld	s7,24(sp)
    80006f3c:	01013c03          	ld	s8,16(sp)
    80006f40:	00813c83          	ld	s9,8(sp)
    80006f44:	06010113          	addi	sp,sp,96
    80006f48:	00008067          	ret
    80006f4c:	0187b403          	ld	s0,24(a5)
    80006f50:	0026061b          	addiw	a2,a2,2
    80006f54:	d68792e3          	bne	a5,s0,80006cb8 <_malloc_r+0x70>
    80006f58:	0209b403          	ld	s0,32(s3)
    80006f5c:	00001897          	auipc	a7,0x1
    80006f60:	75488893          	addi	a7,a7,1876 # 800086b0 <__malloc_av_+0x10>
    80006f64:	e31400e3          	beq	s0,a7,80006d84 <_malloc_r+0x13c>
    80006f68:	00843783          	ld	a5,8(s0)
    80006f6c:	01f00693          	li	a3,31
    80006f70:	ffc7f793          	andi	a5,a5,-4
    80006f74:	40978733          	sub	a4,a5,s1
    80006f78:	24e6cc63          	blt	a3,a4,800071d0 <_malloc_r+0x588>
    80006f7c:	0319b423          	sd	a7,40(s3)
    80006f80:	0319b023          	sd	a7,32(s3)
    80006f84:	10075663          	bgez	a4,80007090 <_malloc_r+0x448>
    80006f88:	1ff00713          	li	a4,511
    80006f8c:	14f76c63          	bltu	a4,a5,800070e4 <_malloc_r+0x49c>
    80006f90:	0037d793          	srli	a5,a5,0x3
    80006f94:	0017871b          	addiw	a4,a5,1
    80006f98:	0017171b          	slliw	a4,a4,0x1
    80006f9c:	00371713          	slli	a4,a4,0x3
    80006fa0:	0089b503          	ld	a0,8(s3)
    80006fa4:	00e98733          	add	a4,s3,a4
    80006fa8:	00073583          	ld	a1,0(a4)
    80006fac:	4027d69b          	sraiw	a3,a5,0x2
    80006fb0:	00100793          	li	a5,1
    80006fb4:	00d797b3          	sll	a5,a5,a3
    80006fb8:	00a7e7b3          	or	a5,a5,a0
    80006fbc:	ff070693          	addi	a3,a4,-16
    80006fc0:	00d43c23          	sd	a3,24(s0)
    80006fc4:	00b43823          	sd	a1,16(s0)
    80006fc8:	00f9b423          	sd	a5,8(s3)
    80006fcc:	00873023          	sd	s0,0(a4)
    80006fd0:	0085bc23          	sd	s0,24(a1)
    80006fd4:	4026571b          	sraiw	a4,a2,0x2
    80006fd8:	00100593          	li	a1,1
    80006fdc:	00e595b3          	sll	a1,a1,a4
    80006fe0:	dab7ece3          	bltu	a5,a1,80006d98 <_malloc_r+0x150>
    80006fe4:	00f5f733          	and	a4,a1,a5
    80006fe8:	02071463          	bnez	a4,80007010 <_malloc_r+0x3c8>
    80006fec:	00159593          	slli	a1,a1,0x1
    80006ff0:	ffc67613          	andi	a2,a2,-4
    80006ff4:	00f5f733          	and	a4,a1,a5
    80006ff8:	0046061b          	addiw	a2,a2,4
    80006ffc:	00071a63          	bnez	a4,80007010 <_malloc_r+0x3c8>
    80007000:	00159593          	slli	a1,a1,0x1
    80007004:	00f5f733          	and	a4,a1,a5
    80007008:	0046061b          	addiw	a2,a2,4
    8000700c:	fe070ae3          	beqz	a4,80007000 <_malloc_r+0x3b8>
    80007010:	01f00813          	li	a6,31
    80007014:	0016031b          	addiw	t1,a2,1
    80007018:	0013131b          	slliw	t1,t1,0x1
    8000701c:	00331313          	slli	t1,t1,0x3
    80007020:	ff030313          	addi	t1,t1,-16
    80007024:	00698333          	add	t1,s3,t1
    80007028:	00030513          	mv	a0,t1
    8000702c:	01853783          	ld	a5,24(a0)
    80007030:	00060e13          	mv	t3,a2
    80007034:	12f50e63          	beq	a0,a5,80007170 <_malloc_r+0x528>
    80007038:	0087b703          	ld	a4,8(a5)
    8000703c:	00078413          	mv	s0,a5
    80007040:	0187b783          	ld	a5,24(a5)
    80007044:	ffc77713          	andi	a4,a4,-4
    80007048:	409706b3          	sub	a3,a4,s1
    8000704c:	12d84e63          	blt	a6,a3,80007188 <_malloc_r+0x540>
    80007050:	fe06c2e3          	bltz	a3,80007034 <_malloc_r+0x3ec>
    80007054:	00e40733          	add	a4,s0,a4
    80007058:	00873683          	ld	a3,8(a4)
    8000705c:	01043603          	ld	a2,16(s0)
    80007060:	00090513          	mv	a0,s2
    80007064:	0016e693          	ori	a3,a3,1
    80007068:	00d73423          	sd	a3,8(a4)
    8000706c:	00f63c23          	sd	a5,24(a2)
    80007070:	00c7b823          	sd	a2,16(a5)
    80007074:	674000ef          	jal	ra,800076e8 <__malloc_unlock>
    80007078:	01040513          	addi	a0,s0,16
    8000707c:	e9dff06f          	j	80006f18 <_malloc_r+0x2d0>
    80007080:	40000693          	li	a3,1024
    80007084:	04000613          	li	a2,64
    80007088:	03f00513          	li	a0,63
    8000708c:	ca9ff06f          	j	80006d34 <_malloc_r+0xec>
    80007090:	00f407b3          	add	a5,s0,a5
    80007094:	0087b703          	ld	a4,8(a5)
    80007098:	00090513          	mv	a0,s2
    8000709c:	00176713          	ori	a4,a4,1
    800070a0:	00e7b423          	sd	a4,8(a5)
    800070a4:	644000ef          	jal	ra,800076e8 <__malloc_unlock>
    800070a8:	01040513          	addi	a0,s0,16
    800070ac:	e6dff06f          	j	80006f18 <_malloc_r+0x2d0>
    800070b0:	0014e713          	ori	a4,s1,1
    800070b4:	00e43423          	sd	a4,8(s0)
    800070b8:	009404b3          	add	s1,s0,s1
    800070bc:	0099b823          	sd	s1,16(s3)
    800070c0:	0017e793          	ori	a5,a5,1
    800070c4:	00090513          	mv	a0,s2
    800070c8:	00f4b423          	sd	a5,8(s1)
    800070cc:	61c000ef          	jal	ra,800076e8 <__malloc_unlock>
    800070d0:	01040513          	addi	a0,s0,16
    800070d4:	e45ff06f          	j	80006f18 <_malloc_r+0x2d0>
    800070d8:	01843683          	ld	a3,24(s0)
    800070dc:	01043603          	ld	a2,16(s0)
    800070e0:	be9ff06f          	j	80006cc8 <_malloc_r+0x80>
    800070e4:	0097d713          	srli	a4,a5,0x9
    800070e8:	00400693          	li	a3,4
    800070ec:	12e6fc63          	bgeu	a3,a4,80007224 <_malloc_r+0x5dc>
    800070f0:	01400693          	li	a3,20
    800070f4:	22e6e863          	bltu	a3,a4,80007324 <_malloc_r+0x6dc>
    800070f8:	05c7059b          	addiw	a1,a4,92
    800070fc:	0015959b          	slliw	a1,a1,0x1
    80007100:	05b7069b          	addiw	a3,a4,91
    80007104:	00359593          	slli	a1,a1,0x3
    80007108:	00b985b3          	add	a1,s3,a1
    8000710c:	0005b703          	ld	a4,0(a1)
    80007110:	ff058593          	addi	a1,a1,-16
    80007114:	1ce58463          	beq	a1,a4,800072dc <_malloc_r+0x694>
    80007118:	00873683          	ld	a3,8(a4)
    8000711c:	ffc6f693          	andi	a3,a3,-4
    80007120:	00d7f663          	bgeu	a5,a3,8000712c <_malloc_r+0x4e4>
    80007124:	01073703          	ld	a4,16(a4)
    80007128:	fee598e3          	bne	a1,a4,80007118 <_malloc_r+0x4d0>
    8000712c:	01873583          	ld	a1,24(a4)
    80007130:	0089b783          	ld	a5,8(s3)
    80007134:	00b43c23          	sd	a1,24(s0)
    80007138:	00e43823          	sd	a4,16(s0)
    8000713c:	0085b823          	sd	s0,16(a1)
    80007140:	00873c23          	sd	s0,24(a4)
    80007144:	e91ff06f          	j	80006fd4 <_malloc_r+0x38c>
    80007148:	01400713          	li	a4,20
    8000714c:	12f77063          	bgeu	a4,a5,8000726c <_malloc_r+0x624>
    80007150:	05400713          	li	a4,84
    80007154:	1ef76863          	bltu	a4,a5,80007344 <_malloc_r+0x6fc>
    80007158:	00c4d793          	srli	a5,s1,0xc
    8000715c:	06f7861b          	addiw	a2,a5,111
    80007160:	0016169b          	slliw	a3,a2,0x1
    80007164:	06e7851b          	addiw	a0,a5,110
    80007168:	00369693          	slli	a3,a3,0x3
    8000716c:	bc9ff06f          	j	80006d34 <_malloc_r+0xec>
    80007170:	001e0e1b          	addiw	t3,t3,1
    80007174:	003e7793          	andi	a5,t3,3
    80007178:	01050513          	addi	a0,a0,16
    8000717c:	10078863          	beqz	a5,8000728c <_malloc_r+0x644>
    80007180:	01853783          	ld	a5,24(a0)
    80007184:	eb1ff06f          	j	80007034 <_malloc_r+0x3ec>
    80007188:	01043603          	ld	a2,16(s0)
    8000718c:	0014e593          	ori	a1,s1,1
    80007190:	00b43423          	sd	a1,8(s0)
    80007194:	00f63c23          	sd	a5,24(a2)
    80007198:	00c7b823          	sd	a2,16(a5)
    8000719c:	009404b3          	add	s1,s0,s1
    800071a0:	0299b423          	sd	s1,40(s3)
    800071a4:	0299b023          	sd	s1,32(s3)
    800071a8:	0016e793          	ori	a5,a3,1
    800071ac:	0114bc23          	sd	a7,24(s1)
    800071b0:	0114b823          	sd	a7,16(s1)
    800071b4:	00f4b423          	sd	a5,8(s1)
    800071b8:	00e40733          	add	a4,s0,a4
    800071bc:	00090513          	mv	a0,s2
    800071c0:	00d73023          	sd	a3,0(a4)
    800071c4:	524000ef          	jal	ra,800076e8 <__malloc_unlock>
    800071c8:	01040513          	addi	a0,s0,16
    800071cc:	d4dff06f          	j	80006f18 <_malloc_r+0x2d0>
    800071d0:	0014e693          	ori	a3,s1,1
    800071d4:	00d43423          	sd	a3,8(s0)
    800071d8:	009404b3          	add	s1,s0,s1
    800071dc:	0299b423          	sd	s1,40(s3)
    800071e0:	0299b023          	sd	s1,32(s3)
    800071e4:	00176693          	ori	a3,a4,1
    800071e8:	0114bc23          	sd	a7,24(s1)
    800071ec:	0114b823          	sd	a7,16(s1)
    800071f0:	00d4b423          	sd	a3,8(s1)
    800071f4:	00f407b3          	add	a5,s0,a5
    800071f8:	00090513          	mv	a0,s2
    800071fc:	00e7b023          	sd	a4,0(a5)
    80007200:	4e8000ef          	jal	ra,800076e8 <__malloc_unlock>
    80007204:	01040513          	addi	a0,s0,16
    80007208:	d11ff06f          	j	80006f18 <_malloc_r+0x2d0>
    8000720c:	0034d613          	srli	a2,s1,0x3
    80007210:	0016079b          	addiw	a5,a2,1
    80007214:	0017979b          	slliw	a5,a5,0x1
    80007218:	0006061b          	sext.w	a2,a2
    8000721c:	00379793          	slli	a5,a5,0x3
    80007220:	a81ff06f          	j	80006ca0 <_malloc_r+0x58>
    80007224:	0067d713          	srli	a4,a5,0x6
    80007228:	0397059b          	addiw	a1,a4,57
    8000722c:	0015959b          	slliw	a1,a1,0x1
    80007230:	0387069b          	addiw	a3,a4,56
    80007234:	00359593          	slli	a1,a1,0x3
    80007238:	ed1ff06f          	j	80007108 <_malloc_r+0x4c0>
    8000723c:	13340463          	beq	s0,s3,80007364 <_malloc_r+0x71c>
    80007240:	0109b403          	ld	s0,16(s3)
    80007244:	00843a03          	ld	s4,8(s0)
    80007248:	ffca7a13          	andi	s4,s4,-4
    8000724c:	409a07b3          	sub	a5,s4,s1
    80007250:	009a6663          	bltu	s4,s1,8000725c <_malloc_r+0x614>
    80007254:	01f00713          	li	a4,31
    80007258:	e4f74ce3          	blt	a4,a5,800070b0 <_malloc_r+0x468>
    8000725c:	00090513          	mv	a0,s2
    80007260:	488000ef          	jal	ra,800076e8 <__malloc_unlock>
    80007264:	00000513          	li	a0,0
    80007268:	cb1ff06f          	j	80006f18 <_malloc_r+0x2d0>
    8000726c:	05c7861b          	addiw	a2,a5,92
    80007270:	0016169b          	slliw	a3,a2,0x1
    80007274:	05b7851b          	addiw	a0,a5,91
    80007278:	00369693          	slli	a3,a3,0x3
    8000727c:	ab9ff06f          	j	80006d34 <_malloc_r+0xec>
    80007280:	01033783          	ld	a5,16(t1)
    80007284:	fff6061b          	addiw	a2,a2,-1
    80007288:	1c679c63          	bne	a5,t1,80007460 <_malloc_r+0x818>
    8000728c:	00367793          	andi	a5,a2,3
    80007290:	ff030313          	addi	t1,t1,-16
    80007294:	fe0796e3          	bnez	a5,80007280 <_malloc_r+0x638>
    80007298:	0089b703          	ld	a4,8(s3)
    8000729c:	fff5c793          	not	a5,a1
    800072a0:	00e7f7b3          	and	a5,a5,a4
    800072a4:	00f9b423          	sd	a5,8(s3)
    800072a8:	00159593          	slli	a1,a1,0x1
    800072ac:	aeb7e6e3          	bltu	a5,a1,80006d98 <_malloc_r+0x150>
    800072b0:	ae0584e3          	beqz	a1,80006d98 <_malloc_r+0x150>
    800072b4:	00f5f733          	and	a4,a1,a5
    800072b8:	00071a63          	bnez	a4,800072cc <_malloc_r+0x684>
    800072bc:	00159593          	slli	a1,a1,0x1
    800072c0:	00f5f733          	and	a4,a1,a5
    800072c4:	004e0e1b          	addiw	t3,t3,4
    800072c8:	fe070ae3          	beqz	a4,800072bc <_malloc_r+0x674>
    800072cc:	000e0613          	mv	a2,t3
    800072d0:	d45ff06f          	j	80007014 <_malloc_r+0x3cc>
    800072d4:	020a0a13          	addi	s4,s4,32
    800072d8:	b15ff06f          	j	80006dec <_malloc_r+0x1a4>
    800072dc:	0089b503          	ld	a0,8(s3)
    800072e0:	4026d69b          	sraiw	a3,a3,0x2
    800072e4:	00100793          	li	a5,1
    800072e8:	00d797b3          	sll	a5,a5,a3
    800072ec:	00a7e7b3          	or	a5,a5,a0
    800072f0:	00f9b423          	sd	a5,8(s3)
    800072f4:	e41ff06f          	j	80007134 <_malloc_r+0x4ec>
    800072f8:	014b0bb3          	add	s7,s6,s4
    800072fc:	41700bb3          	neg	s7,s7
    80007300:	034b9b93          	slli	s7,s7,0x34
    80007304:	034bdb93          	srli	s7,s7,0x34
    80007308:	000b8593          	mv	a1,s7
    8000730c:	00090513          	mv	a0,s2
    80007310:	3dc000ef          	jal	ra,800076ec <_sbrk_r>
    80007314:	fff00793          	li	a5,-1
    80007318:	00000713          	li	a4,0
    8000731c:	b6f510e3          	bne	a0,a5,80006e7c <_malloc_r+0x234>
    80007320:	b69ff06f          	j	80006e88 <_malloc_r+0x240>
    80007324:	05400693          	li	a3,84
    80007328:	08e6e663          	bltu	a3,a4,800073b4 <_malloc_r+0x76c>
    8000732c:	00c7d713          	srli	a4,a5,0xc
    80007330:	06f7059b          	addiw	a1,a4,111
    80007334:	0015959b          	slliw	a1,a1,0x1
    80007338:	06e7069b          	addiw	a3,a4,110
    8000733c:	00359593          	slli	a1,a1,0x3
    80007340:	dc9ff06f          	j	80007108 <_malloc_r+0x4c0>
    80007344:	15400713          	li	a4,340
    80007348:	08f76663          	bltu	a4,a5,800073d4 <_malloc_r+0x78c>
    8000734c:	00f4d793          	srli	a5,s1,0xf
    80007350:	0787861b          	addiw	a2,a5,120
    80007354:	0016169b          	slliw	a3,a2,0x1
    80007358:	0777851b          	addiw	a0,a5,119
    8000735c:	00369693          	slli	a3,a3,0x3
    80007360:	9d5ff06f          	j	80006d34 <_malloc_r+0xec>
    80007364:	00003c17          	auipc	s8,0x3
    80007368:	024c0c13          	addi	s8,s8,36 # 8000a388 <__malloc_current_mallinfo>
    8000736c:	000c2783          	lw	a5,0(s8)
    80007370:	014786bb          	addw	a3,a5,s4
    80007374:	00dc2023          	sw	a3,0(s8)
    80007378:	aadff06f          	j	80006e24 <_malloc_r+0x1dc>
    8000737c:	034b9713          	slli	a4,s7,0x34
    80007380:	aa0712e3          	bnez	a4,80006e24 <_malloc_r+0x1dc>
    80007384:	0109b403          	ld	s0,16(s3)
    80007388:	014a8a33          	add	s4,s5,s4
    8000738c:	001a6a13          	ori	s4,s4,1
    80007390:	01443423          	sd	s4,8(s0)
    80007394:	b4dff06f          	j	80006ee0 <_malloc_r+0x298>
    80007398:	016cb023          	sd	s6,0(s9)
    8000739c:	aa1ff06f          	j	80006e3c <_malloc_r+0x1f4>
    800073a0:	000b0413          	mv	s0,s6
    800073a4:	b3dff06f          	j	80006ee0 <_malloc_r+0x298>
    800073a8:	00100793          	li	a5,1
    800073ac:	00fb3423          	sd	a5,8(s6)
    800073b0:	eadff06f          	j	8000725c <_malloc_r+0x614>
    800073b4:	15400693          	li	a3,340
    800073b8:	06e6e663          	bltu	a3,a4,80007424 <_malloc_r+0x7dc>
    800073bc:	00f7d713          	srli	a4,a5,0xf
    800073c0:	0787059b          	addiw	a1,a4,120
    800073c4:	0015959b          	slliw	a1,a1,0x1
    800073c8:	0777069b          	addiw	a3,a4,119
    800073cc:	00359593          	slli	a1,a1,0x3
    800073d0:	d39ff06f          	j	80007108 <_malloc_r+0x4c0>
    800073d4:	55400713          	li	a4,1364
    800073d8:	06f76663          	bltu	a4,a5,80007444 <_malloc_r+0x7fc>
    800073dc:	0124d793          	srli	a5,s1,0x12
    800073e0:	07d7861b          	addiw	a2,a5,125
    800073e4:	0016169b          	slliw	a3,a2,0x1
    800073e8:	07c7851b          	addiw	a0,a5,124
    800073ec:	00369693          	slli	a3,a3,0x3
    800073f0:	945ff06f          	j	80006d34 <_malloc_r+0xec>
    800073f4:	ff0c8c93          	addi	s9,s9,-16
    800073f8:	019a0a33          	add	s4,s4,s9
    800073fc:	416a0a33          	sub	s4,s4,s6
    80007400:	00000713          	li	a4,0
    80007404:	a85ff06f          	j	80006e88 <_malloc_r+0x240>
    80007408:	01040593          	addi	a1,s0,16
    8000740c:	00090513          	mv	a0,s2
    80007410:	b70ff0ef          	jal	ra,80006780 <_free_r>
    80007414:	0109b403          	ld	s0,16(s3)
    80007418:	000c2783          	lw	a5,0(s8)
    8000741c:	00843a03          	ld	s4,8(s0)
    80007420:	ac1ff06f          	j	80006ee0 <_malloc_r+0x298>
    80007424:	55400693          	li	a3,1364
    80007428:	02e6e663          	bltu	a3,a4,80007454 <_malloc_r+0x80c>
    8000742c:	0127d713          	srli	a4,a5,0x12
    80007430:	07d7059b          	addiw	a1,a4,125
    80007434:	0015959b          	slliw	a1,a1,0x1
    80007438:	07c7069b          	addiw	a3,a4,124
    8000743c:	00359593          	slli	a1,a1,0x3
    80007440:	cc9ff06f          	j	80007108 <_malloc_r+0x4c0>
    80007444:	7f000693          	li	a3,2032
    80007448:	07f00613          	li	a2,127
    8000744c:	07e00513          	li	a0,126
    80007450:	8e5ff06f          	j	80006d34 <_malloc_r+0xec>
    80007454:	7f000593          	li	a1,2032
    80007458:	07e00693          	li	a3,126
    8000745c:	cadff06f          	j	80007108 <_malloc_r+0x4c0>
    80007460:	0089b783          	ld	a5,8(s3)
    80007464:	e45ff06f          	j	800072a8 <_malloc_r+0x660>

0000000080007468 <memcmp>:
    80007468:	00700793          	li	a5,7
    8000746c:	02c7f863          	bgeu	a5,a2,8000749c <memcmp+0x34>
    80007470:	00b567b3          	or	a5,a0,a1
    80007474:	0077f793          	andi	a5,a5,7
    80007478:	00700693          	li	a3,7
    8000747c:	04079e63          	bnez	a5,800074d8 <memcmp+0x70>
    80007480:	00053703          	ld	a4,0(a0)
    80007484:	0005b783          	ld	a5,0(a1)
    80007488:	04f71863          	bne	a4,a5,800074d8 <memcmp+0x70>
    8000748c:	ff860613          	addi	a2,a2,-8
    80007490:	00850513          	addi	a0,a0,8
    80007494:	00858593          	addi	a1,a1,8
    80007498:	fec6e4e3          	bltu	a3,a2,80007480 <memcmp+0x18>
    8000749c:	fff60693          	addi	a3,a2,-1
    800074a0:	02060863          	beqz	a2,800074d0 <memcmp+0x68>
    800074a4:	00168693          	addi	a3,a3,1
    800074a8:	00d506b3          	add	a3,a0,a3
    800074ac:	0080006f          	j	800074b4 <memcmp+0x4c>
    800074b0:	02d50063          	beq	a0,a3,800074d0 <memcmp+0x68>
    800074b4:	00054783          	lbu	a5,0(a0)
    800074b8:	0005c703          	lbu	a4,0(a1)
    800074bc:	00150513          	addi	a0,a0,1
    800074c0:	00158593          	addi	a1,a1,1
    800074c4:	fee786e3          	beq	a5,a4,800074b0 <memcmp+0x48>
    800074c8:	40e7853b          	subw	a0,a5,a4
    800074cc:	00008067          	ret
    800074d0:	00000513          	li	a0,0
    800074d4:	00008067          	ret
    800074d8:	fff60693          	addi	a3,a2,-1
    800074dc:	fc9ff06f          	j	800074a4 <memcmp+0x3c>

00000000800074e0 <memcpy>:
    800074e0:	00b547b3          	xor	a5,a0,a1
    800074e4:	0077f793          	andi	a5,a5,7
    800074e8:	00c508b3          	add	a7,a0,a2
    800074ec:	06079663          	bnez	a5,80007558 <memcpy+0x78>
    800074f0:	00700793          	li	a5,7
    800074f4:	06c7f263          	bgeu	a5,a2,80007558 <memcpy+0x78>
    800074f8:	00757793          	andi	a5,a0,7
    800074fc:	00050713          	mv	a4,a0
    80007500:	0c079a63          	bnez	a5,800075d4 <memcpy+0xf4>
    80007504:	ff88f613          	andi	a2,a7,-8
    80007508:	40e606b3          	sub	a3,a2,a4
    8000750c:	04000793          	li	a5,64
    80007510:	04000293          	li	t0,64
    80007514:	06d7c263          	blt	a5,a3,80007578 <memcpy+0x98>
    80007518:	00058693          	mv	a3,a1
    8000751c:	00070793          	mv	a5,a4
    80007520:	02c77863          	bgeu	a4,a2,80007550 <memcpy+0x70>
    80007524:	0006b803          	ld	a6,0(a3)
    80007528:	00878793          	addi	a5,a5,8
    8000752c:	00868693          	addi	a3,a3,8
    80007530:	ff07bc23          	sd	a6,-8(a5)
    80007534:	fec7e8e3          	bltu	a5,a2,80007524 <memcpy+0x44>
    80007538:	fff60793          	addi	a5,a2,-1
    8000753c:	40e787b3          	sub	a5,a5,a4
    80007540:	ff87f793          	andi	a5,a5,-8
    80007544:	00878793          	addi	a5,a5,8
    80007548:	00f70733          	add	a4,a4,a5
    8000754c:	00f585b3          	add	a1,a1,a5
    80007550:	01176863          	bltu	a4,a7,80007560 <memcpy+0x80>
    80007554:	00008067          	ret
    80007558:	00050713          	mv	a4,a0
    8000755c:	ff157ce3          	bgeu	a0,a7,80007554 <memcpy+0x74>
    80007560:	0005c783          	lbu	a5,0(a1)
    80007564:	00170713          	addi	a4,a4,1
    80007568:	00158593          	addi	a1,a1,1
    8000756c:	fef70fa3          	sb	a5,-1(a4)
    80007570:	ff1768e3          	bltu	a4,a7,80007560 <memcpy+0x80>
    80007574:	00008067          	ret
    80007578:	0085b683          	ld	a3,8(a1)
    8000757c:	0385b783          	ld	a5,56(a1)
    80007580:	0005bf83          	ld	t6,0(a1)
    80007584:	0105bf03          	ld	t5,16(a1)
    80007588:	0185be83          	ld	t4,24(a1)
    8000758c:	0205be03          	ld	t3,32(a1)
    80007590:	0285b303          	ld	t1,40(a1)
    80007594:	0305b803          	ld	a6,48(a1)
    80007598:	00d73423          	sd	a3,8(a4)
    8000759c:	0405b683          	ld	a3,64(a1)
    800075a0:	01f73023          	sd	t6,0(a4)
    800075a4:	01e73823          	sd	t5,16(a4)
    800075a8:	01d73c23          	sd	t4,24(a4)
    800075ac:	03c73023          	sd	t3,32(a4)
    800075b0:	02673423          	sd	t1,40(a4)
    800075b4:	03073823          	sd	a6,48(a4)
    800075b8:	02f73c23          	sd	a5,56(a4)
    800075bc:	04870713          	addi	a4,a4,72
    800075c0:	40e607b3          	sub	a5,a2,a4
    800075c4:	fed73c23          	sd	a3,-8(a4)
    800075c8:	04858593          	addi	a1,a1,72
    800075cc:	faf2c6e3          	blt	t0,a5,80007578 <memcpy+0x98>
    800075d0:	f49ff06f          	j	80007518 <memcpy+0x38>
    800075d4:	0005c683          	lbu	a3,0(a1)
    800075d8:	00170713          	addi	a4,a4,1
    800075dc:	00777793          	andi	a5,a4,7
    800075e0:	fed70fa3          	sb	a3,-1(a4)
    800075e4:	00158593          	addi	a1,a1,1
    800075e8:	f0078ee3          	beqz	a5,80007504 <memcpy+0x24>
    800075ec:	0005c683          	lbu	a3,0(a1)
    800075f0:	00170713          	addi	a4,a4,1
    800075f4:	00777793          	andi	a5,a4,7
    800075f8:	fed70fa3          	sb	a3,-1(a4)
    800075fc:	00158593          	addi	a1,a1,1
    80007600:	fc079ae3          	bnez	a5,800075d4 <memcpy+0xf4>
    80007604:	f01ff06f          	j	80007504 <memcpy+0x24>

0000000080007608 <memset>:
    80007608:	00f00313          	li	t1,15
    8000760c:	00050713          	mv	a4,a0
    80007610:	02c37a63          	bgeu	t1,a2,80007644 <memset+0x3c>
    80007614:	00f77793          	andi	a5,a4,15
    80007618:	0a079063          	bnez	a5,800076b8 <memset+0xb0>
    8000761c:	06059e63          	bnez	a1,80007698 <memset+0x90>
    80007620:	ff067693          	andi	a3,a2,-16
    80007624:	00f67613          	andi	a2,a2,15
    80007628:	00e686b3          	add	a3,a3,a4
    8000762c:	00b73023          	sd	a1,0(a4)
    80007630:	00b73423          	sd	a1,8(a4)
    80007634:	01070713          	addi	a4,a4,16
    80007638:	fed76ae3          	bltu	a4,a3,8000762c <memset+0x24>
    8000763c:	00061463          	bnez	a2,80007644 <memset+0x3c>
    80007640:	00008067          	ret
    80007644:	40c306b3          	sub	a3,t1,a2
    80007648:	00269693          	slli	a3,a3,0x2
    8000764c:	00000297          	auipc	t0,0x0
    80007650:	005686b3          	add	a3,a3,t0
    80007654:	00c68067          	jr	12(a3)
    80007658:	00b70723          	sb	a1,14(a4)
    8000765c:	00b706a3          	sb	a1,13(a4)
    80007660:	00b70623          	sb	a1,12(a4)
    80007664:	00b705a3          	sb	a1,11(a4)
    80007668:	00b70523          	sb	a1,10(a4)
    8000766c:	00b704a3          	sb	a1,9(a4)
    80007670:	00b70423          	sb	a1,8(a4)
    80007674:	00b703a3          	sb	a1,7(a4)
    80007678:	00b70323          	sb	a1,6(a4)
    8000767c:	00b702a3          	sb	a1,5(a4)
    80007680:	00b70223          	sb	a1,4(a4)
    80007684:	00b701a3          	sb	a1,3(a4)
    80007688:	00b70123          	sb	a1,2(a4)
    8000768c:	00b700a3          	sb	a1,1(a4)
    80007690:	00b70023          	sb	a1,0(a4)
    80007694:	00008067          	ret
    80007698:	0ff5f593          	zext.b	a1,a1
    8000769c:	00859693          	slli	a3,a1,0x8
    800076a0:	00d5e5b3          	or	a1,a1,a3
    800076a4:	01059693          	slli	a3,a1,0x10
    800076a8:	00d5e5b3          	or	a1,a1,a3
    800076ac:	02059693          	slli	a3,a1,0x20
    800076b0:	00d5e5b3          	or	a1,a1,a3
    800076b4:	f6dff06f          	j	80007620 <memset+0x18>
    800076b8:	00279693          	slli	a3,a5,0x2
    800076bc:	00000297          	auipc	t0,0x0
    800076c0:	005686b3          	add	a3,a3,t0
    800076c4:	00008293          	mv	t0,ra
    800076c8:	f98680e7          	jalr	-104(a3)
    800076cc:	00028093          	mv	ra,t0
    800076d0:	ff078793          	addi	a5,a5,-16
    800076d4:	40f70733          	sub	a4,a4,a5
    800076d8:	00f60633          	add	a2,a2,a5
    800076dc:	f6c374e3          	bgeu	t1,a2,80007644 <memset+0x3c>
    800076e0:	f3dff06f          	j	8000761c <memset+0x14>

00000000800076e4 <__malloc_lock>:
    800076e4:	00008067          	ret

00000000800076e8 <__malloc_unlock>:
    800076e8:	00008067          	ret

00000000800076ec <_sbrk_r>:
    800076ec:	ff010113          	addi	sp,sp,-16
    800076f0:	00813023          	sd	s0,0(sp)
    800076f4:	00050413          	mv	s0,a0
    800076f8:	00058513          	mv	a0,a1
    800076fc:	00003797          	auipc	a5,0x3
    80007700:	d207ae23          	sw	zero,-708(a5) # 8000a438 <errno>
    80007704:	00113423          	sd	ra,8(sp)
    80007708:	6bc000ef          	jal	ra,80007dc4 <_sbrk>
    8000770c:	fff00793          	li	a5,-1
    80007710:	00f50a63          	beq	a0,a5,80007724 <_sbrk_r+0x38>
    80007714:	00813083          	ld	ra,8(sp)
    80007718:	00013403          	ld	s0,0(sp)
    8000771c:	01010113          	addi	sp,sp,16
    80007720:	00008067          	ret
    80007724:	00003797          	auipc	a5,0x3
    80007728:	d147a783          	lw	a5,-748(a5) # 8000a438 <errno>
    8000772c:	fe0784e3          	beqz	a5,80007714 <_sbrk_r+0x28>
    80007730:	00813083          	ld	ra,8(sp)
    80007734:	00f42023          	sw	a5,0(s0)
    80007738:	00013403          	ld	s0,0(sp)
    8000773c:	01010113          	addi	sp,sp,16
    80007740:	00008067          	ret

0000000080007744 <__sread>:
    80007744:	ff010113          	addi	sp,sp,-16
    80007748:	00813023          	sd	s0,0(sp)
    8000774c:	00058413          	mv	s0,a1
    80007750:	01259583          	lh	a1,18(a1)
    80007754:	00113423          	sd	ra,8(sp)
    80007758:	388000ef          	jal	ra,80007ae0 <_read_r>
    8000775c:	02054063          	bltz	a0,8000777c <__sread+0x38>
    80007760:	09043783          	ld	a5,144(s0)
    80007764:	00813083          	ld	ra,8(sp)
    80007768:	00a787b3          	add	a5,a5,a0
    8000776c:	08f43823          	sd	a5,144(s0)
    80007770:	00013403          	ld	s0,0(sp)
    80007774:	01010113          	addi	sp,sp,16
    80007778:	00008067          	ret
    8000777c:	01045783          	lhu	a5,16(s0)
    80007780:	fffff737          	lui	a4,0xfffff
    80007784:	fff70713          	addi	a4,a4,-1 # ffffffffffffefff <__stack_end+0xffffffff7fefefff>
    80007788:	00e7f7b3          	and	a5,a5,a4
    8000778c:	00813083          	ld	ra,8(sp)
    80007790:	00f41823          	sh	a5,16(s0)
    80007794:	00013403          	ld	s0,0(sp)
    80007798:	01010113          	addi	sp,sp,16
    8000779c:	00008067          	ret

00000000800077a0 <__seofread>:
    800077a0:	00000513          	li	a0,0
    800077a4:	00008067          	ret

00000000800077a8 <__swrite>:
    800077a8:	01059783          	lh	a5,16(a1)
    800077ac:	fd010113          	addi	sp,sp,-48
    800077b0:	02813023          	sd	s0,32(sp)
    800077b4:	00913c23          	sd	s1,24(sp)
    800077b8:	01213823          	sd	s2,16(sp)
    800077bc:	01313423          	sd	s3,8(sp)
    800077c0:	02113423          	sd	ra,40(sp)
    800077c4:	1007f713          	andi	a4,a5,256
    800077c8:	00058413          	mv	s0,a1
    800077cc:	00050493          	mv	s1,a0
    800077d0:	00060913          	mv	s2,a2
    800077d4:	00068993          	mv	s3,a3
    800077d8:	04071063          	bnez	a4,80007818 <__swrite+0x70>
    800077dc:	fffff737          	lui	a4,0xfffff
    800077e0:	fff70713          	addi	a4,a4,-1 # ffffffffffffefff <__stack_end+0xffffffff7fefefff>
    800077e4:	00e7f7b3          	and	a5,a5,a4
    800077e8:	01241583          	lh	a1,18(s0)
    800077ec:	00f41823          	sh	a5,16(s0)
    800077f0:	02013403          	ld	s0,32(sp)
    800077f4:	02813083          	ld	ra,40(sp)
    800077f8:	00098693          	mv	a3,s3
    800077fc:	00090613          	mv	a2,s2
    80007800:	00813983          	ld	s3,8(sp)
    80007804:	01013903          	ld	s2,16(sp)
    80007808:	00048513          	mv	a0,s1
    8000780c:	01813483          	ld	s1,24(sp)
    80007810:	03010113          	addi	sp,sp,48
    80007814:	08c0006f          	j	800078a0 <_write_r>
    80007818:	01259583          	lh	a1,18(a1)
    8000781c:	00200693          	li	a3,2
    80007820:	00000613          	li	a2,0
    80007824:	258000ef          	jal	ra,80007a7c <_lseek_r>
    80007828:	01041783          	lh	a5,16(s0)
    8000782c:	fb1ff06f          	j	800077dc <__swrite+0x34>

0000000080007830 <__sseek>:
    80007830:	ff010113          	addi	sp,sp,-16
    80007834:	00813023          	sd	s0,0(sp)
    80007838:	00058413          	mv	s0,a1
    8000783c:	01259583          	lh	a1,18(a1)
    80007840:	00113423          	sd	ra,8(sp)
    80007844:	238000ef          	jal	ra,80007a7c <_lseek_r>
    80007848:	fff00793          	li	a5,-1
    8000784c:	02f50463          	beq	a0,a5,80007874 <__sseek+0x44>
    80007850:	01045783          	lhu	a5,16(s0)
    80007854:	00001737          	lui	a4,0x1
    80007858:	00813083          	ld	ra,8(sp)
    8000785c:	00e7e7b3          	or	a5,a5,a4
    80007860:	08a43823          	sd	a0,144(s0)
    80007864:	00f41823          	sh	a5,16(s0)
    80007868:	00013403          	ld	s0,0(sp)
    8000786c:	01010113          	addi	sp,sp,16
    80007870:	00008067          	ret
    80007874:	01045783          	lhu	a5,16(s0)
    80007878:	fffff737          	lui	a4,0xfffff
    8000787c:	fff70713          	addi	a4,a4,-1 # ffffffffffffefff <__stack_end+0xffffffff7fefefff>
    80007880:	00e7f7b3          	and	a5,a5,a4
    80007884:	00813083          	ld	ra,8(sp)
    80007888:	00f41823          	sh	a5,16(s0)
    8000788c:	00013403          	ld	s0,0(sp)
    80007890:	01010113          	addi	sp,sp,16
    80007894:	00008067          	ret

0000000080007898 <__sclose>:
    80007898:	01259583          	lh	a1,18(a1)
    8000789c:	0680006f          	j	80007904 <_close_r>

00000000800078a0 <_write_r>:
    800078a0:	ff010113          	addi	sp,sp,-16
    800078a4:	00058713          	mv	a4,a1
    800078a8:	00813023          	sd	s0,0(sp)
    800078ac:	00060593          	mv	a1,a2
    800078b0:	00050413          	mv	s0,a0
    800078b4:	00068613          	mv	a2,a3
    800078b8:	00070513          	mv	a0,a4
    800078bc:	00003797          	auipc	a5,0x3
    800078c0:	b607ae23          	sw	zero,-1156(a5) # 8000a438 <errno>
    800078c4:	00113423          	sd	ra,8(sp)
    800078c8:	57c000ef          	jal	ra,80007e44 <_write>
    800078cc:	fff00793          	li	a5,-1
    800078d0:	00f50a63          	beq	a0,a5,800078e4 <_write_r+0x44>
    800078d4:	00813083          	ld	ra,8(sp)
    800078d8:	00013403          	ld	s0,0(sp)
    800078dc:	01010113          	addi	sp,sp,16
    800078e0:	00008067          	ret
    800078e4:	00003797          	auipc	a5,0x3
    800078e8:	b547a783          	lw	a5,-1196(a5) # 8000a438 <errno>
    800078ec:	fe0784e3          	beqz	a5,800078d4 <_write_r+0x34>
    800078f0:	00813083          	ld	ra,8(sp)
    800078f4:	00f42023          	sw	a5,0(s0)
    800078f8:	00013403          	ld	s0,0(sp)
    800078fc:	01010113          	addi	sp,sp,16
    80007900:	00008067          	ret

0000000080007904 <_close_r>:
    80007904:	ff010113          	addi	sp,sp,-16
    80007908:	00813023          	sd	s0,0(sp)
    8000790c:	00050413          	mv	s0,a0
    80007910:	00058513          	mv	a0,a1
    80007914:	00003797          	auipc	a5,0x3
    80007918:	b207a223          	sw	zero,-1244(a5) # 8000a438 <errno>
    8000791c:	00113423          	sd	ra,8(sp)
    80007920:	3d8000ef          	jal	ra,80007cf8 <_close>
    80007924:	fff00793          	li	a5,-1
    80007928:	00f50a63          	beq	a0,a5,8000793c <_close_r+0x38>
    8000792c:	00813083          	ld	ra,8(sp)
    80007930:	00013403          	ld	s0,0(sp)
    80007934:	01010113          	addi	sp,sp,16
    80007938:	00008067          	ret
    8000793c:	00003797          	auipc	a5,0x3
    80007940:	afc7a783          	lw	a5,-1284(a5) # 8000a438 <errno>
    80007944:	fe0784e3          	beqz	a5,8000792c <_close_r+0x28>
    80007948:	00813083          	ld	ra,8(sp)
    8000794c:	00f42023          	sw	a5,0(s0)
    80007950:	00013403          	ld	s0,0(sp)
    80007954:	01010113          	addi	sp,sp,16
    80007958:	00008067          	ret

000000008000795c <_fclose_r>:
    8000795c:	fe010113          	addi	sp,sp,-32
    80007960:	00113c23          	sd	ra,24(sp)
    80007964:	00813823          	sd	s0,16(sp)
    80007968:	00913423          	sd	s1,8(sp)
    8000796c:	01213023          	sd	s2,0(sp)
    80007970:	02058063          	beqz	a1,80007990 <_fclose_r+0x34>
    80007974:	00058413          	mv	s0,a1
    80007978:	00050493          	mv	s1,a0
    8000797c:	00050663          	beqz	a0,80007988 <_fclose_r+0x2c>
    80007980:	05052783          	lw	a5,80(a0)
    80007984:	0a078c63          	beqz	a5,80007a3c <_fclose_r+0xe0>
    80007988:	01041783          	lh	a5,16(s0)
    8000798c:	02079263          	bnez	a5,800079b0 <_fclose_r+0x54>
    80007990:	01813083          	ld	ra,24(sp)
    80007994:	01013403          	ld	s0,16(sp)
    80007998:	00000913          	li	s2,0
    8000799c:	00813483          	ld	s1,8(sp)
    800079a0:	00090513          	mv	a0,s2
    800079a4:	00013903          	ld	s2,0(sp)
    800079a8:	02010113          	addi	sp,sp,32
    800079ac:	00008067          	ret
    800079b0:	00040593          	mv	a1,s0
    800079b4:	00048513          	mv	a0,s1
    800079b8:	da0fe0ef          	jal	ra,80005f58 <__sflush_r>
    800079bc:	05043783          	ld	a5,80(s0)
    800079c0:	00050913          	mv	s2,a0
    800079c4:	00078a63          	beqz	a5,800079d8 <_fclose_r+0x7c>
    800079c8:	03043583          	ld	a1,48(s0)
    800079cc:	00048513          	mv	a0,s1
    800079d0:	000780e7          	jalr	a5
    800079d4:	06054c63          	bltz	a0,80007a4c <_fclose_r+0xf0>
    800079d8:	01045783          	lhu	a5,16(s0)
    800079dc:	0807f793          	andi	a5,a5,128
    800079e0:	06079e63          	bnez	a5,80007a5c <_fclose_r+0x100>
    800079e4:	05843583          	ld	a1,88(s0)
    800079e8:	00058c63          	beqz	a1,80007a00 <_fclose_r+0xa4>
    800079ec:	07440793          	addi	a5,s0,116
    800079f0:	00f58663          	beq	a1,a5,800079fc <_fclose_r+0xa0>
    800079f4:	00048513          	mv	a0,s1
    800079f8:	d89fe0ef          	jal	ra,80006780 <_free_r>
    800079fc:	04043c23          	sd	zero,88(s0)
    80007a00:	07843583          	ld	a1,120(s0)
    80007a04:	00058863          	beqz	a1,80007a14 <_fclose_r+0xb8>
    80007a08:	00048513          	mv	a0,s1
    80007a0c:	d75fe0ef          	jal	ra,80006780 <_free_r>
    80007a10:	06043c23          	sd	zero,120(s0)
    80007a14:	bf5fe0ef          	jal	ra,80006608 <__sfp_lock_acquire>
    80007a18:	00041823          	sh	zero,16(s0)
    80007a1c:	bf1fe0ef          	jal	ra,8000660c <__sfp_lock_release>
    80007a20:	01813083          	ld	ra,24(sp)
    80007a24:	01013403          	ld	s0,16(sp)
    80007a28:	00813483          	ld	s1,8(sp)
    80007a2c:	00090513          	mv	a0,s2
    80007a30:	00013903          	ld	s2,0(sp)
    80007a34:	02010113          	addi	sp,sp,32
    80007a38:	00008067          	ret
    80007a3c:	bbdfe0ef          	jal	ra,800065f8 <__sinit>
    80007a40:	01041783          	lh	a5,16(s0)
    80007a44:	f40786e3          	beqz	a5,80007990 <_fclose_r+0x34>
    80007a48:	f69ff06f          	j	800079b0 <_fclose_r+0x54>
    80007a4c:	01045783          	lhu	a5,16(s0)
    80007a50:	fff00913          	li	s2,-1
    80007a54:	0807f793          	andi	a5,a5,128
    80007a58:	f80786e3          	beqz	a5,800079e4 <_fclose_r+0x88>
    80007a5c:	01843583          	ld	a1,24(s0)
    80007a60:	00048513          	mv	a0,s1
    80007a64:	d1dfe0ef          	jal	ra,80006780 <_free_r>
    80007a68:	f7dff06f          	j	800079e4 <_fclose_r+0x88>

0000000080007a6c <fclose>:
    80007a6c:	00050593          	mv	a1,a0
    80007a70:	00002517          	auipc	a0,0x2
    80007a74:	92053503          	ld	a0,-1760(a0) # 80009390 <_impure_ptr>
    80007a78:	ee5ff06f          	j	8000795c <_fclose_r>

0000000080007a7c <_lseek_r>:
    80007a7c:	ff010113          	addi	sp,sp,-16
    80007a80:	00058713          	mv	a4,a1
    80007a84:	00813023          	sd	s0,0(sp)
    80007a88:	00060593          	mv	a1,a2
    80007a8c:	00050413          	mv	s0,a0
    80007a90:	00068613          	mv	a2,a3
    80007a94:	00070513          	mv	a0,a4
    80007a98:	00003797          	auipc	a5,0x3
    80007a9c:	9a07a023          	sw	zero,-1632(a5) # 8000a438 <errno>
    80007aa0:	00113423          	sd	ra,8(sp)
    80007aa4:	298000ef          	jal	ra,80007d3c <_lseek>
    80007aa8:	fff00793          	li	a5,-1
    80007aac:	00f50a63          	beq	a0,a5,80007ac0 <_lseek_r+0x44>
    80007ab0:	00813083          	ld	ra,8(sp)
    80007ab4:	00013403          	ld	s0,0(sp)
    80007ab8:	01010113          	addi	sp,sp,16
    80007abc:	00008067          	ret
    80007ac0:	00003797          	auipc	a5,0x3
    80007ac4:	9787a783          	lw	a5,-1672(a5) # 8000a438 <errno>
    80007ac8:	fe0784e3          	beqz	a5,80007ab0 <_lseek_r+0x34>
    80007acc:	00813083          	ld	ra,8(sp)
    80007ad0:	00f42023          	sw	a5,0(s0)
    80007ad4:	00013403          	ld	s0,0(sp)
    80007ad8:	01010113          	addi	sp,sp,16
    80007adc:	00008067          	ret

0000000080007ae0 <_read_r>:
    80007ae0:	ff010113          	addi	sp,sp,-16
    80007ae4:	00058713          	mv	a4,a1
    80007ae8:	00813023          	sd	s0,0(sp)
    80007aec:	00060593          	mv	a1,a2
    80007af0:	00050413          	mv	s0,a0
    80007af4:	00068613          	mv	a2,a3
    80007af8:	00070513          	mv	a0,a4
    80007afc:	00003797          	auipc	a5,0x3
    80007b00:	9207ae23          	sw	zero,-1732(a5) # 8000a438 <errno>
    80007b04:	00113423          	sd	ra,8(sp)
    80007b08:	278000ef          	jal	ra,80007d80 <_read>
    80007b0c:	fff00793          	li	a5,-1
    80007b10:	00f50a63          	beq	a0,a5,80007b24 <_read_r+0x44>
    80007b14:	00813083          	ld	ra,8(sp)
    80007b18:	00013403          	ld	s0,0(sp)
    80007b1c:	01010113          	addi	sp,sp,16
    80007b20:	00008067          	ret
    80007b24:	00003797          	auipc	a5,0x3
    80007b28:	9147a783          	lw	a5,-1772(a5) # 8000a438 <errno>
    80007b2c:	fe0784e3          	beqz	a5,80007b14 <_read_r+0x34>
    80007b30:	00813083          	ld	ra,8(sp)
    80007b34:	00f42023          	sw	a5,0(s0)
    80007b38:	00013403          	ld	s0,0(sp)
    80007b3c:	01010113          	addi	sp,sp,16
    80007b40:	00008067          	ret

0000000080007b44 <cleanup_glue>:
    80007b44:	fd010113          	addi	sp,sp,-48
    80007b48:	01213823          	sd	s2,16(sp)
    80007b4c:	0005b903          	ld	s2,0(a1)
    80007b50:	02813023          	sd	s0,32(sp)
    80007b54:	00913c23          	sd	s1,24(sp)
    80007b58:	02113423          	sd	ra,40(sp)
    80007b5c:	01313423          	sd	s3,8(sp)
    80007b60:	01413023          	sd	s4,0(sp)
    80007b64:	00058413          	mv	s0,a1
    80007b68:	00050493          	mv	s1,a0
    80007b6c:	04090263          	beqz	s2,80007bb0 <cleanup_glue+0x6c>
    80007b70:	00093983          	ld	s3,0(s2)
    80007b74:	02098863          	beqz	s3,80007ba4 <cleanup_glue+0x60>
    80007b78:	0009ba03          	ld	s4,0(s3)
    80007b7c:	000a0e63          	beqz	s4,80007b98 <cleanup_glue+0x54>
    80007b80:	000a3583          	ld	a1,0(s4)
    80007b84:	00058463          	beqz	a1,80007b8c <cleanup_glue+0x48>
    80007b88:	fbdff0ef          	jal	ra,80007b44 <cleanup_glue>
    80007b8c:	000a0593          	mv	a1,s4
    80007b90:	00048513          	mv	a0,s1
    80007b94:	bedfe0ef          	jal	ra,80006780 <_free_r>
    80007b98:	00098593          	mv	a1,s3
    80007b9c:	00048513          	mv	a0,s1
    80007ba0:	be1fe0ef          	jal	ra,80006780 <_free_r>
    80007ba4:	00090593          	mv	a1,s2
    80007ba8:	00048513          	mv	a0,s1
    80007bac:	bd5fe0ef          	jal	ra,80006780 <_free_r>
    80007bb0:	00040593          	mv	a1,s0
    80007bb4:	02013403          	ld	s0,32(sp)
    80007bb8:	02813083          	ld	ra,40(sp)
    80007bbc:	01013903          	ld	s2,16(sp)
    80007bc0:	00813983          	ld	s3,8(sp)
    80007bc4:	00013a03          	ld	s4,0(sp)
    80007bc8:	00048513          	mv	a0,s1
    80007bcc:	01813483          	ld	s1,24(sp)
    80007bd0:	03010113          	addi	sp,sp,48
    80007bd4:	badfe06f          	j	80006780 <_free_r>

0000000080007bd8 <_reclaim_reent>:
    80007bd8:	00001797          	auipc	a5,0x1
    80007bdc:	7b87b783          	ld	a5,1976(a5) # 80009390 <_impure_ptr>
    80007be0:	10a78a63          	beq	a5,a0,80007cf4 <_reclaim_reent+0x11c>
    80007be4:	07853583          	ld	a1,120(a0)
    80007be8:	fd010113          	addi	sp,sp,-48
    80007bec:	00913c23          	sd	s1,24(sp)
    80007bf0:	02113423          	sd	ra,40(sp)
    80007bf4:	02813023          	sd	s0,32(sp)
    80007bf8:	01213823          	sd	s2,16(sp)
    80007bfc:	01313423          	sd	s3,8(sp)
    80007c00:	00050493          	mv	s1,a0
    80007c04:	04058063          	beqz	a1,80007c44 <_reclaim_reent+0x6c>
    80007c08:	00000913          	li	s2,0
    80007c0c:	20000993          	li	s3,512
    80007c10:	012587b3          	add	a5,a1,s2
    80007c14:	0007b403          	ld	s0,0(a5)
    80007c18:	00040e63          	beqz	s0,80007c34 <_reclaim_reent+0x5c>
    80007c1c:	00040593          	mv	a1,s0
    80007c20:	00043403          	ld	s0,0(s0)
    80007c24:	00048513          	mv	a0,s1
    80007c28:	b59fe0ef          	jal	ra,80006780 <_free_r>
    80007c2c:	fe0418e3          	bnez	s0,80007c1c <_reclaim_reent+0x44>
    80007c30:	0784b583          	ld	a1,120(s1)
    80007c34:	00890913          	addi	s2,s2,8
    80007c38:	fd391ce3          	bne	s2,s3,80007c10 <_reclaim_reent+0x38>
    80007c3c:	00048513          	mv	a0,s1
    80007c40:	b41fe0ef          	jal	ra,80006780 <_free_r>
    80007c44:	0604b583          	ld	a1,96(s1)
    80007c48:	00058663          	beqz	a1,80007c54 <_reclaim_reent+0x7c>
    80007c4c:	00048513          	mv	a0,s1
    80007c50:	b31fe0ef          	jal	ra,80006780 <_free_r>
    80007c54:	1f84b403          	ld	s0,504(s1)
    80007c58:	02040063          	beqz	s0,80007c78 <_reclaim_reent+0xa0>
    80007c5c:	20048913          	addi	s2,s1,512
    80007c60:	01240c63          	beq	s0,s2,80007c78 <_reclaim_reent+0xa0>
    80007c64:	00040593          	mv	a1,s0
    80007c68:	00043403          	ld	s0,0(s0)
    80007c6c:	00048513          	mv	a0,s1
    80007c70:	b11fe0ef          	jal	ra,80006780 <_free_r>
    80007c74:	fe8918e3          	bne	s2,s0,80007c64 <_reclaim_reent+0x8c>
    80007c78:	0884b583          	ld	a1,136(s1)
    80007c7c:	00058663          	beqz	a1,80007c88 <_reclaim_reent+0xb0>
    80007c80:	00048513          	mv	a0,s1
    80007c84:	afdfe0ef          	jal	ra,80006780 <_free_r>
    80007c88:	0504a783          	lw	a5,80(s1)
    80007c8c:	04078663          	beqz	a5,80007cd8 <_reclaim_reent+0x100>
    80007c90:	0584b783          	ld	a5,88(s1)
    80007c94:	00048513          	mv	a0,s1
    80007c98:	000780e7          	jalr	a5
    80007c9c:	5204b403          	ld	s0,1312(s1)
    80007ca0:	02040c63          	beqz	s0,80007cd8 <_reclaim_reent+0x100>
    80007ca4:	00043583          	ld	a1,0(s0)
    80007ca8:	00058663          	beqz	a1,80007cb4 <_reclaim_reent+0xdc>
    80007cac:	00048513          	mv	a0,s1
    80007cb0:	e95ff0ef          	jal	ra,80007b44 <cleanup_glue>
    80007cb4:	00040593          	mv	a1,s0
    80007cb8:	02013403          	ld	s0,32(sp)
    80007cbc:	02813083          	ld	ra,40(sp)
    80007cc0:	01013903          	ld	s2,16(sp)
    80007cc4:	00813983          	ld	s3,8(sp)
    80007cc8:	00048513          	mv	a0,s1
    80007ccc:	01813483          	ld	s1,24(sp)
    80007cd0:	03010113          	addi	sp,sp,48
    80007cd4:	aadfe06f          	j	80006780 <_free_r>
    80007cd8:	02813083          	ld	ra,40(sp)
    80007cdc:	02013403          	ld	s0,32(sp)
    80007ce0:	01813483          	ld	s1,24(sp)
    80007ce4:	01013903          	ld	s2,16(sp)
    80007ce8:	00813983          	ld	s3,8(sp)
    80007cec:	03010113          	addi	sp,sp,48
    80007cf0:	00008067          	ret
    80007cf4:	00008067          	ret

0000000080007cf8 <_close>:
    80007cf8:	ff010113          	addi	sp,sp,-16
    80007cfc:	00113423          	sd	ra,8(sp)
    80007d00:	00813023          	sd	s0,0(sp)
    80007d04:	03900893          	li	a7,57
    80007d08:	00000073          	ecall
    80007d0c:	00050413          	mv	s0,a0
    80007d10:	00054c63          	bltz	a0,80007d28 <_close+0x30>
    80007d14:	0005051b          	sext.w	a0,a0
    80007d18:	00813083          	ld	ra,8(sp)
    80007d1c:	00013403          	ld	s0,0(sp)
    80007d20:	01010113          	addi	sp,sp,16
    80007d24:	00008067          	ret
    80007d28:	160000ef          	jal	ra,80007e88 <__errno>
    80007d2c:	4080043b          	negw	s0,s0
    80007d30:	00852023          	sw	s0,0(a0)
    80007d34:	fff00513          	li	a0,-1
    80007d38:	fe1ff06f          	j	80007d18 <_close+0x20>

0000000080007d3c <_lseek>:
    80007d3c:	ff010113          	addi	sp,sp,-16
    80007d40:	00113423          	sd	ra,8(sp)
    80007d44:	00813023          	sd	s0,0(sp)
    80007d48:	03e00893          	li	a7,62
    80007d4c:	00000073          	ecall
    80007d50:	00050413          	mv	s0,a0
    80007d54:	00054c63          	bltz	a0,80007d6c <_lseek+0x30>
    80007d58:	00813083          	ld	ra,8(sp)
    80007d5c:	00040513          	mv	a0,s0
    80007d60:	00013403          	ld	s0,0(sp)
    80007d64:	01010113          	addi	sp,sp,16
    80007d68:	00008067          	ret
    80007d6c:	4080043b          	negw	s0,s0
    80007d70:	118000ef          	jal	ra,80007e88 <__errno>
    80007d74:	00852023          	sw	s0,0(a0)
    80007d78:	fff00413          	li	s0,-1
    80007d7c:	fddff06f          	j	80007d58 <_lseek+0x1c>

0000000080007d80 <_read>:
    80007d80:	ff010113          	addi	sp,sp,-16
    80007d84:	00113423          	sd	ra,8(sp)
    80007d88:	00813023          	sd	s0,0(sp)
    80007d8c:	03f00893          	li	a7,63
    80007d90:	00000073          	ecall
    80007d94:	00050413          	mv	s0,a0
    80007d98:	00054c63          	bltz	a0,80007db0 <_read+0x30>
    80007d9c:	00813083          	ld	ra,8(sp)
    80007da0:	00040513          	mv	a0,s0
    80007da4:	00013403          	ld	s0,0(sp)
    80007da8:	01010113          	addi	sp,sp,16
    80007dac:	00008067          	ret
    80007db0:	4080043b          	negw	s0,s0
    80007db4:	0d4000ef          	jal	ra,80007e88 <__errno>
    80007db8:	00852023          	sw	s0,0(a0)
    80007dbc:	fff00413          	li	s0,-1
    80007dc0:	fddff06f          	j	80007d9c <_read+0x1c>

0000000080007dc4 <_sbrk>:
    80007dc4:	00002697          	auipc	a3,0x2
    80007dc8:	67c68693          	addi	a3,a3,1660 # 8000a440 <heap_end.0>
    80007dcc:	0006b703          	ld	a4,0(a3)
    80007dd0:	ff010113          	addi	sp,sp,-16
    80007dd4:	00113423          	sd	ra,8(sp)
    80007dd8:	00050793          	mv	a5,a0
    80007ddc:	02071063          	bnez	a4,80007dfc <_sbrk+0x38>
    80007de0:	0d600893          	li	a7,214
    80007de4:	00000513          	li	a0,0
    80007de8:	00000073          	ecall
    80007dec:	fff00613          	li	a2,-1
    80007df0:	00050713          	mv	a4,a0
    80007df4:	02c50a63          	beq	a0,a2,80007e28 <_sbrk+0x64>
    80007df8:	00a6b023          	sd	a0,0(a3)
    80007dfc:	0d600893          	li	a7,214
    80007e00:	00e78533          	add	a0,a5,a4
    80007e04:	00000073          	ecall
    80007e08:	0006b703          	ld	a4,0(a3)
    80007e0c:	00e787b3          	add	a5,a5,a4
    80007e10:	00f51c63          	bne	a0,a5,80007e28 <_sbrk+0x64>
    80007e14:	00813083          	ld	ra,8(sp)
    80007e18:	00a6b023          	sd	a0,0(a3)
    80007e1c:	00070513          	mv	a0,a4
    80007e20:	01010113          	addi	sp,sp,16
    80007e24:	00008067          	ret
    80007e28:	060000ef          	jal	ra,80007e88 <__errno>
    80007e2c:	00813083          	ld	ra,8(sp)
    80007e30:	00c00793          	li	a5,12
    80007e34:	00f52023          	sw	a5,0(a0)
    80007e38:	fff00513          	li	a0,-1
    80007e3c:	01010113          	addi	sp,sp,16
    80007e40:	00008067          	ret

0000000080007e44 <_write>:
    80007e44:	ff010113          	addi	sp,sp,-16
    80007e48:	00113423          	sd	ra,8(sp)
    80007e4c:	00813023          	sd	s0,0(sp)
    80007e50:	04000893          	li	a7,64
    80007e54:	00000073          	ecall
    80007e58:	00050413          	mv	s0,a0
    80007e5c:	00054c63          	bltz	a0,80007e74 <_write+0x30>
    80007e60:	00813083          	ld	ra,8(sp)
    80007e64:	00040513          	mv	a0,s0
    80007e68:	00013403          	ld	s0,0(sp)
    80007e6c:	01010113          	addi	sp,sp,16
    80007e70:	00008067          	ret
    80007e74:	4080043b          	negw	s0,s0
    80007e78:	010000ef          	jal	ra,80007e88 <__errno>
    80007e7c:	00852023          	sw	s0,0(a0)
    80007e80:	fff00413          	li	s0,-1
    80007e84:	fddff06f          	j	80007e60 <_write+0x1c>

0000000080007e88 <__errno>:
    80007e88:	00001517          	auipc	a0,0x1
    80007e8c:	50853503          	ld	a0,1288(a0) # 80009390 <_impure_ptr>
    80007e90:	00008067          	ret

Disassembly of section .data:

0000000080007f58 <impure_data>:
    80007f58:	0000                	unimp
    80007f5a:	0000                	unimp
    80007f5c:	0000                	unimp
    80007f5e:	0000                	unimp
    80007f60:	8490                	0x8490
    80007f62:	8000                	0x8000
    80007f64:	0000                	unimp
    80007f66:	0000                	unimp
    80007f68:	8540                	0x8540
    80007f6a:	8000                	0x8000
    80007f6c:	0000                	unimp
    80007f6e:	0000                	unimp
    80007f70:	85f0                	0x85f0
    80007f72:	8000                	0x8000
    80007f74:	0000                	unimp
    80007f76:	0000                	unimp
    80007f78:	0000                	unimp
    80007f7a:	0000                	unimp
    80007f7c:	0000                	unimp
    80007f7e:	0000                	unimp
    80007f80:	0000                	unimp
    80007f82:	0000                	unimp
    80007f84:	0000                	unimp
    80007f86:	0000                	unimp
    80007f88:	0000                	unimp
    80007f8a:	0000                	unimp
    80007f8c:	0000                	unimp
    80007f8e:	0000                	unimp
    80007f90:	0000                	unimp
    80007f92:	0000                	unimp
    80007f94:	0000                	unimp
    80007f96:	0000                	unimp
    80007f98:	0000                	unimp
    80007f9a:	0000                	unimp
    80007f9c:	0000                	unimp
    80007f9e:	0000                	unimp
    80007fa0:	0000                	unimp
    80007fa2:	0000                	unimp
    80007fa4:	0000                	unimp
    80007fa6:	0000                	unimp
    80007fa8:	0000                	unimp
    80007faa:	0000                	unimp
    80007fac:	0000                	unimp
    80007fae:	0000                	unimp
    80007fb0:	0000                	unimp
    80007fb2:	0000                	unimp
    80007fb4:	0000                	unimp
    80007fb6:	0000                	unimp
    80007fb8:	0000                	unimp
    80007fba:	0000                	unimp
    80007fbc:	0000                	unimp
    80007fbe:	0000                	unimp
    80007fc0:	0000                	unimp
    80007fc2:	0000                	unimp
    80007fc4:	0000                	unimp
    80007fc6:	0000                	unimp
    80007fc8:	0000                	unimp
    80007fca:	0000                	unimp
    80007fcc:	0000                	unimp
    80007fce:	0000                	unimp
    80007fd0:	0000                	unimp
    80007fd2:	0000                	unimp
    80007fd4:	0000                	unimp
    80007fd6:	0000                	unimp
    80007fd8:	0000                	unimp
    80007fda:	0000                	unimp
    80007fdc:	0000                	unimp
    80007fde:	0000                	unimp
    80007fe0:	0000                	unimp
    80007fe2:	0000                	unimp
    80007fe4:	0000                	unimp
    80007fe6:	0000                	unimp
    80007fe8:	0000                	unimp
    80007fea:	0000                	unimp
    80007fec:	0000                	unimp
    80007fee:	0000                	unimp
    80007ff0:	0000                	unimp
    80007ff2:	0000                	unimp
    80007ff4:	0000                	unimp
    80007ff6:	0000                	unimp
    80007ff8:	0000                	unimp
    80007ffa:	0000                	unimp
    80007ffc:	0000                	unimp
    80007ffe:	0000                	unimp
    80008000:	0000                	unimp
    80008002:	0000                	unimp
    80008004:	0000                	unimp
    80008006:	0000                	unimp
    80008008:	0000                	unimp
    8000800a:	0000                	unimp
    8000800c:	0000                	unimp
    8000800e:	0000                	unimp
    80008010:	0000                	unimp
    80008012:	0000                	unimp
    80008014:	0000                	unimp
    80008016:	0000                	unimp
    80008018:	0000                	unimp
    8000801a:	0000                	unimp
    8000801c:	0000                	unimp
    8000801e:	0000                	unimp
    80008020:	0000                	unimp
    80008022:	0000                	unimp
    80008024:	0000                	unimp
    80008026:	0000                	unimp
    80008028:	0000                	unimp
    8000802a:	0000                	unimp
    8000802c:	0000                	unimp
    8000802e:	0000                	unimp
    80008030:	0000                	unimp
    80008032:	0000                	unimp
    80008034:	0000                	unimp
    80008036:	0000                	unimp
    80008038:	0000                	unimp
    8000803a:	0000                	unimp
    8000803c:	0000                	unimp
    8000803e:	0000                	unimp
    80008040:	0001                	nop
    80008042:	0000                	unimp
    80008044:	0000                	unimp
    80008046:	0000                	unimp
    80008048:	330e                	fld	ft6,224(sp)
    8000804a:	abcd                	j	8000863c <impure_data+0x6e4>
    8000804c:	1234                	addi	a3,sp,296
    8000804e:	e66d                	bnez	a2,80008138 <impure_data+0x1e0>
    80008050:	deec                	sw	a1,124(a3)
    80008052:	0005                	c.nop	1
    80008054:	0000000b          	0xb
    80008058:	0000                	unimp
    8000805a:	0000                	unimp
    8000805c:	0000                	unimp
    8000805e:	0000                	unimp
    80008060:	0000                	unimp
    80008062:	0000                	unimp
    80008064:	0000                	unimp
    80008066:	0000                	unimp
    80008068:	0000                	unimp
    8000806a:	0000                	unimp
    8000806c:	0000                	unimp
    8000806e:	0000                	unimp
    80008070:	0000                	unimp
    80008072:	0000                	unimp
    80008074:	0000                	unimp
    80008076:	0000                	unimp
    80008078:	0000                	unimp
    8000807a:	0000                	unimp
    8000807c:	0000                	unimp
    8000807e:	0000                	unimp
    80008080:	0000                	unimp
    80008082:	0000                	unimp
    80008084:	0000                	unimp
    80008086:	0000                	unimp
    80008088:	0000                	unimp
    8000808a:	0000                	unimp
    8000808c:	0000                	unimp
    8000808e:	0000                	unimp
    80008090:	0000                	unimp
    80008092:	0000                	unimp
    80008094:	0000                	unimp
    80008096:	0000                	unimp
    80008098:	0000                	unimp
    8000809a:	0000                	unimp
    8000809c:	0000                	unimp
    8000809e:	0000                	unimp
    800080a0:	0000                	unimp
    800080a2:	0000                	unimp
    800080a4:	0000                	unimp
    800080a6:	0000                	unimp
    800080a8:	0000                	unimp
    800080aa:	0000                	unimp
    800080ac:	0000                	unimp
    800080ae:	0000                	unimp
    800080b0:	0000                	unimp
    800080b2:	0000                	unimp
    800080b4:	0000                	unimp
    800080b6:	0000                	unimp
    800080b8:	0000                	unimp
    800080ba:	0000                	unimp
    800080bc:	0000                	unimp
    800080be:	0000                	unimp
    800080c0:	0000                	unimp
    800080c2:	0000                	unimp
    800080c4:	0000                	unimp
    800080c6:	0000                	unimp
    800080c8:	0000                	unimp
    800080ca:	0000                	unimp
    800080cc:	0000                	unimp
    800080ce:	0000                	unimp
    800080d0:	0000                	unimp
    800080d2:	0000                	unimp
    800080d4:	0000                	unimp
    800080d6:	0000                	unimp
    800080d8:	0000                	unimp
    800080da:	0000                	unimp
    800080dc:	0000                	unimp
    800080de:	0000                	unimp
    800080e0:	0000                	unimp
    800080e2:	0000                	unimp
    800080e4:	0000                	unimp
    800080e6:	0000                	unimp
    800080e8:	0000                	unimp
    800080ea:	0000                	unimp
    800080ec:	0000                	unimp
    800080ee:	0000                	unimp
    800080f0:	0000                	unimp
    800080f2:	0000                	unimp
    800080f4:	0000                	unimp
    800080f6:	0000                	unimp
    800080f8:	0000                	unimp
    800080fa:	0000                	unimp
    800080fc:	0000                	unimp
    800080fe:	0000                	unimp
    80008100:	0000                	unimp
    80008102:	0000                	unimp
    80008104:	0000                	unimp
    80008106:	0000                	unimp
    80008108:	0000                	unimp
    8000810a:	0000                	unimp
    8000810c:	0000                	unimp
    8000810e:	0000                	unimp
    80008110:	0000                	unimp
    80008112:	0000                	unimp
    80008114:	0000                	unimp
    80008116:	0000                	unimp
    80008118:	0000                	unimp
    8000811a:	0000                	unimp
    8000811c:	0000                	unimp
    8000811e:	0000                	unimp
    80008120:	0000                	unimp
    80008122:	0000                	unimp
    80008124:	0000                	unimp
    80008126:	0000                	unimp
    80008128:	0000                	unimp
    8000812a:	0000                	unimp
    8000812c:	0000                	unimp
    8000812e:	0000                	unimp
    80008130:	0000                	unimp
    80008132:	0000                	unimp
    80008134:	0000                	unimp
    80008136:	0000                	unimp
    80008138:	0000                	unimp
    8000813a:	0000                	unimp
    8000813c:	0000                	unimp
    8000813e:	0000                	unimp
    80008140:	0000                	unimp
    80008142:	0000                	unimp
    80008144:	0000                	unimp
    80008146:	0000                	unimp
    80008148:	0000                	unimp
    8000814a:	0000                	unimp
    8000814c:	0000                	unimp
    8000814e:	0000                	unimp
    80008150:	0000                	unimp
    80008152:	0000                	unimp
    80008154:	0000                	unimp
    80008156:	0000                	unimp
    80008158:	0000                	unimp
    8000815a:	0000                	unimp
    8000815c:	0000                	unimp
    8000815e:	0000                	unimp
    80008160:	0000                	unimp
    80008162:	0000                	unimp
    80008164:	0000                	unimp
    80008166:	0000                	unimp
    80008168:	0000                	unimp
    8000816a:	0000                	unimp
    8000816c:	0000                	unimp
    8000816e:	0000                	unimp
    80008170:	0000                	unimp
    80008172:	0000                	unimp
    80008174:	0000                	unimp
    80008176:	0000                	unimp
    80008178:	0000                	unimp
    8000817a:	0000                	unimp
    8000817c:	0000                	unimp
    8000817e:	0000                	unimp
    80008180:	0000                	unimp
    80008182:	0000                	unimp
    80008184:	0000                	unimp
    80008186:	0000                	unimp
    80008188:	0000                	unimp
    8000818a:	0000                	unimp
    8000818c:	0000                	unimp
    8000818e:	0000                	unimp
    80008190:	0000                	unimp
    80008192:	0000                	unimp
    80008194:	0000                	unimp
    80008196:	0000                	unimp
    80008198:	0000                	unimp
    8000819a:	0000                	unimp
    8000819c:	0000                	unimp
    8000819e:	0000                	unimp
    800081a0:	0000                	unimp
    800081a2:	0000                	unimp
    800081a4:	0000                	unimp
    800081a6:	0000                	unimp
    800081a8:	0000                	unimp
    800081aa:	0000                	unimp
    800081ac:	0000                	unimp
    800081ae:	0000                	unimp
    800081b0:	0000                	unimp
    800081b2:	0000                	unimp
    800081b4:	0000                	unimp
    800081b6:	0000                	unimp
    800081b8:	0000                	unimp
    800081ba:	0000                	unimp
    800081bc:	0000                	unimp
    800081be:	0000                	unimp
    800081c0:	0000                	unimp
    800081c2:	0000                	unimp
    800081c4:	0000                	unimp
    800081c6:	0000                	unimp
    800081c8:	0000                	unimp
    800081ca:	0000                	unimp
    800081cc:	0000                	unimp
    800081ce:	0000                	unimp
    800081d0:	0000                	unimp
    800081d2:	0000                	unimp
    800081d4:	0000                	unimp
    800081d6:	0000                	unimp
    800081d8:	0000                	unimp
    800081da:	0000                	unimp
    800081dc:	0000                	unimp
    800081de:	0000                	unimp
    800081e0:	0000                	unimp
    800081e2:	0000                	unimp
    800081e4:	0000                	unimp
    800081e6:	0000                	unimp
    800081e8:	0000                	unimp
    800081ea:	0000                	unimp
    800081ec:	0000                	unimp
    800081ee:	0000                	unimp
    800081f0:	0000                	unimp
    800081f2:	0000                	unimp
    800081f4:	0000                	unimp
    800081f6:	0000                	unimp
    800081f8:	0000                	unimp
    800081fa:	0000                	unimp
    800081fc:	0000                	unimp
    800081fe:	0000                	unimp
    80008200:	0000                	unimp
    80008202:	0000                	unimp
    80008204:	0000                	unimp
    80008206:	0000                	unimp
    80008208:	0000                	unimp
    8000820a:	0000                	unimp
    8000820c:	0000                	unimp
    8000820e:	0000                	unimp
    80008210:	0000                	unimp
    80008212:	0000                	unimp
    80008214:	0000                	unimp
    80008216:	0000                	unimp
    80008218:	0000                	unimp
    8000821a:	0000                	unimp
    8000821c:	0000                	unimp
    8000821e:	0000                	unimp
    80008220:	0000                	unimp
    80008222:	0000                	unimp
    80008224:	0000                	unimp
    80008226:	0000                	unimp
    80008228:	0000                	unimp
    8000822a:	0000                	unimp
    8000822c:	0000                	unimp
    8000822e:	0000                	unimp
    80008230:	0000                	unimp
    80008232:	0000                	unimp
    80008234:	0000                	unimp
    80008236:	0000                	unimp
    80008238:	0000                	unimp
    8000823a:	0000                	unimp
    8000823c:	0000                	unimp
    8000823e:	0000                	unimp
    80008240:	0000                	unimp
    80008242:	0000                	unimp
    80008244:	0000                	unimp
    80008246:	0000                	unimp
    80008248:	0000                	unimp
    8000824a:	0000                	unimp
    8000824c:	0000                	unimp
    8000824e:	0000                	unimp
    80008250:	0000                	unimp
    80008252:	0000                	unimp
    80008254:	0000                	unimp
    80008256:	0000                	unimp
    80008258:	0000                	unimp
    8000825a:	0000                	unimp
    8000825c:	0000                	unimp
    8000825e:	0000                	unimp
    80008260:	0000                	unimp
    80008262:	0000                	unimp
    80008264:	0000                	unimp
    80008266:	0000                	unimp
    80008268:	0000                	unimp
    8000826a:	0000                	unimp
    8000826c:	0000                	unimp
    8000826e:	0000                	unimp
    80008270:	0000                	unimp
    80008272:	0000                	unimp
    80008274:	0000                	unimp
    80008276:	0000                	unimp
    80008278:	0000                	unimp
    8000827a:	0000                	unimp
    8000827c:	0000                	unimp
    8000827e:	0000                	unimp
    80008280:	0000                	unimp
    80008282:	0000                	unimp
    80008284:	0000                	unimp
    80008286:	0000                	unimp
    80008288:	0000                	unimp
    8000828a:	0000                	unimp
    8000828c:	0000                	unimp
    8000828e:	0000                	unimp
    80008290:	0000                	unimp
    80008292:	0000                	unimp
    80008294:	0000                	unimp
    80008296:	0000                	unimp
    80008298:	0000                	unimp
    8000829a:	0000                	unimp
    8000829c:	0000                	unimp
    8000829e:	0000                	unimp
    800082a0:	0000                	unimp
    800082a2:	0000                	unimp
    800082a4:	0000                	unimp
    800082a6:	0000                	unimp
    800082a8:	0000                	unimp
    800082aa:	0000                	unimp
    800082ac:	0000                	unimp
    800082ae:	0000                	unimp
    800082b0:	0000                	unimp
    800082b2:	0000                	unimp
    800082b4:	0000                	unimp
    800082b6:	0000                	unimp
    800082b8:	0000                	unimp
    800082ba:	0000                	unimp
    800082bc:	0000                	unimp
    800082be:	0000                	unimp
    800082c0:	0000                	unimp
    800082c2:	0000                	unimp
    800082c4:	0000                	unimp
    800082c6:	0000                	unimp
    800082c8:	0000                	unimp
    800082ca:	0000                	unimp
    800082cc:	0000                	unimp
    800082ce:	0000                	unimp
    800082d0:	0000                	unimp
    800082d2:	0000                	unimp
    800082d4:	0000                	unimp
    800082d6:	0000                	unimp
    800082d8:	0000                	unimp
    800082da:	0000                	unimp
    800082dc:	0000                	unimp
    800082de:	0000                	unimp
    800082e0:	0000                	unimp
    800082e2:	0000                	unimp
    800082e4:	0000                	unimp
    800082e6:	0000                	unimp
    800082e8:	0000                	unimp
    800082ea:	0000                	unimp
    800082ec:	0000                	unimp
    800082ee:	0000                	unimp
    800082f0:	0000                	unimp
    800082f2:	0000                	unimp
    800082f4:	0000                	unimp
    800082f6:	0000                	unimp
    800082f8:	0000                	unimp
    800082fa:	0000                	unimp
    800082fc:	0000                	unimp
    800082fe:	0000                	unimp
    80008300:	0000                	unimp
    80008302:	0000                	unimp
    80008304:	0000                	unimp
    80008306:	0000                	unimp
    80008308:	0000                	unimp
    8000830a:	0000                	unimp
    8000830c:	0000                	unimp
    8000830e:	0000                	unimp
    80008310:	0000                	unimp
    80008312:	0000                	unimp
    80008314:	0000                	unimp
    80008316:	0000                	unimp
    80008318:	0000                	unimp
    8000831a:	0000                	unimp
    8000831c:	0000                	unimp
    8000831e:	0000                	unimp
    80008320:	0000                	unimp
    80008322:	0000                	unimp
    80008324:	0000                	unimp
    80008326:	0000                	unimp
    80008328:	0000                	unimp
    8000832a:	0000                	unimp
    8000832c:	0000                	unimp
    8000832e:	0000                	unimp
    80008330:	0000                	unimp
    80008332:	0000                	unimp
    80008334:	0000                	unimp
    80008336:	0000                	unimp
    80008338:	0000                	unimp
    8000833a:	0000                	unimp
    8000833c:	0000                	unimp
    8000833e:	0000                	unimp
    80008340:	0000                	unimp
    80008342:	0000                	unimp
    80008344:	0000                	unimp
    80008346:	0000                	unimp
    80008348:	0000                	unimp
    8000834a:	0000                	unimp
    8000834c:	0000                	unimp
    8000834e:	0000                	unimp
    80008350:	0000                	unimp
    80008352:	0000                	unimp
    80008354:	0000                	unimp
    80008356:	0000                	unimp
    80008358:	0000                	unimp
    8000835a:	0000                	unimp
    8000835c:	0000                	unimp
    8000835e:	0000                	unimp
    80008360:	0000                	unimp
    80008362:	0000                	unimp
    80008364:	0000                	unimp
    80008366:	0000                	unimp
    80008368:	0000                	unimp
    8000836a:	0000                	unimp
    8000836c:	0000                	unimp
    8000836e:	0000                	unimp
    80008370:	0000                	unimp
    80008372:	0000                	unimp
    80008374:	0000                	unimp
    80008376:	0000                	unimp
    80008378:	0000                	unimp
    8000837a:	0000                	unimp
    8000837c:	0000                	unimp
    8000837e:	0000                	unimp
    80008380:	0000                	unimp
    80008382:	0000                	unimp
    80008384:	0000                	unimp
    80008386:	0000                	unimp
    80008388:	0000                	unimp
    8000838a:	0000                	unimp
    8000838c:	0000                	unimp
    8000838e:	0000                	unimp
    80008390:	0000                	unimp
    80008392:	0000                	unimp
    80008394:	0000                	unimp
    80008396:	0000                	unimp
    80008398:	0000                	unimp
    8000839a:	0000                	unimp
    8000839c:	0000                	unimp
    8000839e:	0000                	unimp
    800083a0:	0000                	unimp
    800083a2:	0000                	unimp
    800083a4:	0000                	unimp
    800083a6:	0000                	unimp
    800083a8:	0000                	unimp
    800083aa:	0000                	unimp
    800083ac:	0000                	unimp
    800083ae:	0000                	unimp
    800083b0:	0000                	unimp
    800083b2:	0000                	unimp
    800083b4:	0000                	unimp
    800083b6:	0000                	unimp
    800083b8:	0000                	unimp
    800083ba:	0000                	unimp
    800083bc:	0000                	unimp
    800083be:	0000                	unimp
    800083c0:	0000                	unimp
    800083c2:	0000                	unimp
    800083c4:	0000                	unimp
    800083c6:	0000                	unimp
    800083c8:	0000                	unimp
    800083ca:	0000                	unimp
    800083cc:	0000                	unimp
    800083ce:	0000                	unimp
    800083d0:	0000                	unimp
    800083d2:	0000                	unimp
    800083d4:	0000                	unimp
    800083d6:	0000                	unimp
    800083d8:	0000                	unimp
    800083da:	0000                	unimp
    800083dc:	0000                	unimp
    800083de:	0000                	unimp
    800083e0:	0000                	unimp
    800083e2:	0000                	unimp
    800083e4:	0000                	unimp
    800083e6:	0000                	unimp
    800083e8:	0000                	unimp
    800083ea:	0000                	unimp
    800083ec:	0000                	unimp
    800083ee:	0000                	unimp
    800083f0:	0000                	unimp
    800083f2:	0000                	unimp
    800083f4:	0000                	unimp
    800083f6:	0000                	unimp
    800083f8:	0000                	unimp
    800083fa:	0000                	unimp
    800083fc:	0000                	unimp
    800083fe:	0000                	unimp
    80008400:	0000                	unimp
    80008402:	0000                	unimp
    80008404:	0000                	unimp
    80008406:	0000                	unimp
    80008408:	0000                	unimp
    8000840a:	0000                	unimp
    8000840c:	0000                	unimp
    8000840e:	0000                	unimp
    80008410:	0000                	unimp
    80008412:	0000                	unimp
    80008414:	0000                	unimp
    80008416:	0000                	unimp
    80008418:	0000                	unimp
    8000841a:	0000                	unimp
    8000841c:	0000                	unimp
    8000841e:	0000                	unimp
    80008420:	0000                	unimp
    80008422:	0000                	unimp
    80008424:	0000                	unimp
    80008426:	0000                	unimp
    80008428:	0000                	unimp
    8000842a:	0000                	unimp
    8000842c:	0000                	unimp
    8000842e:	0000                	unimp
    80008430:	0000                	unimp
    80008432:	0000                	unimp
    80008434:	0000                	unimp
    80008436:	0000                	unimp
    80008438:	0000                	unimp
    8000843a:	0000                	unimp
    8000843c:	0000                	unimp
    8000843e:	0000                	unimp
    80008440:	0000                	unimp
    80008442:	0000                	unimp
    80008444:	0000                	unimp
    80008446:	0000                	unimp
    80008448:	0000                	unimp
    8000844a:	0000                	unimp
    8000844c:	0000                	unimp
    8000844e:	0000                	unimp
    80008450:	0000                	unimp
    80008452:	0000                	unimp
    80008454:	0000                	unimp
    80008456:	0000                	unimp
    80008458:	0000                	unimp
    8000845a:	0000                	unimp
    8000845c:	0000                	unimp
    8000845e:	0000                	unimp
    80008460:	0000                	unimp
    80008462:	0000                	unimp
    80008464:	0000                	unimp
    80008466:	0000                	unimp
    80008468:	0000                	unimp
    8000846a:	0000                	unimp
    8000846c:	0000                	unimp
    8000846e:	0000                	unimp
    80008470:	0000                	unimp
    80008472:	0000                	unimp
    80008474:	0000                	unimp
    80008476:	0000                	unimp
    80008478:	0000                	unimp
    8000847a:	0000                	unimp
    8000847c:	0000                	unimp
    8000847e:	0000                	unimp
    80008480:	0000                	unimp
    80008482:	0000                	unimp
    80008484:	0000                	unimp
    80008486:	0000                	unimp
    80008488:	0000                	unimp
    8000848a:	0000                	unimp
    8000848c:	0000                	unimp
    8000848e:	0000                	unimp
    80008490:	0000                	unimp
    80008492:	0000                	unimp
    80008494:	0000                	unimp
    80008496:	0000                	unimp
    80008498:	0000                	unimp
    8000849a:	0000                	unimp
    8000849c:	0000                	unimp
    8000849e:	0000                	unimp
    800084a0:	0000                	unimp
    800084a2:	0000                	unimp
    800084a4:	0000                	unimp
    800084a6:	0000                	unimp
    800084a8:	0000                	unimp
    800084aa:	0000                	unimp
    800084ac:	0000                	unimp
    800084ae:	0000                	unimp
    800084b0:	0000                	unimp
    800084b2:	0000                	unimp
    800084b4:	0000                	unimp
    800084b6:	0000                	unimp
    800084b8:	0000                	unimp
    800084ba:	0000                	unimp
    800084bc:	0000                	unimp
    800084be:	0000                	unimp
    800084c0:	0000                	unimp
    800084c2:	0000                	unimp
    800084c4:	0000                	unimp
    800084c6:	0000                	unimp
    800084c8:	0000                	unimp
    800084ca:	0000                	unimp
    800084cc:	0000                	unimp
    800084ce:	0000                	unimp
    800084d0:	0000                	unimp
    800084d2:	0000                	unimp
    800084d4:	0000                	unimp
    800084d6:	0000                	unimp
    800084d8:	0000                	unimp
    800084da:	0000                	unimp
    800084dc:	0000                	unimp
    800084de:	0000                	unimp
    800084e0:	0000                	unimp
    800084e2:	0000                	unimp
    800084e4:	0000                	unimp
    800084e6:	0000                	unimp
    800084e8:	0000                	unimp
    800084ea:	0000                	unimp
    800084ec:	0000                	unimp
    800084ee:	0000                	unimp
    800084f0:	0000                	unimp
    800084f2:	0000                	unimp
    800084f4:	0000                	unimp
    800084f6:	0000                	unimp
    800084f8:	0000                	unimp
    800084fa:	0000                	unimp
    800084fc:	0000                	unimp
    800084fe:	0000                	unimp
    80008500:	0000                	unimp
    80008502:	0000                	unimp
    80008504:	0000                	unimp
    80008506:	0000                	unimp
    80008508:	0000                	unimp
    8000850a:	0000                	unimp
    8000850c:	0000                	unimp
    8000850e:	0000                	unimp
    80008510:	0000                	unimp
    80008512:	0000                	unimp
    80008514:	0000                	unimp
    80008516:	0000                	unimp
    80008518:	0000                	unimp
    8000851a:	0000                	unimp
    8000851c:	0000                	unimp
    8000851e:	0000                	unimp
    80008520:	0000                	unimp
    80008522:	0000                	unimp
    80008524:	0000                	unimp
    80008526:	0000                	unimp
    80008528:	0000                	unimp
    8000852a:	0000                	unimp
    8000852c:	0000                	unimp
    8000852e:	0000                	unimp
    80008530:	0000                	unimp
    80008532:	0000                	unimp
    80008534:	0000                	unimp
    80008536:	0000                	unimp
    80008538:	0000                	unimp
    8000853a:	0000                	unimp
    8000853c:	0000                	unimp
    8000853e:	0000                	unimp
    80008540:	0000                	unimp
    80008542:	0000                	unimp
    80008544:	0000                	unimp
    80008546:	0000                	unimp
    80008548:	0000                	unimp
    8000854a:	0000                	unimp
    8000854c:	0000                	unimp
    8000854e:	0000                	unimp
    80008550:	0000                	unimp
    80008552:	0000                	unimp
    80008554:	0000                	unimp
    80008556:	0000                	unimp
    80008558:	0000                	unimp
    8000855a:	0000                	unimp
    8000855c:	0000                	unimp
    8000855e:	0000                	unimp
    80008560:	0000                	unimp
    80008562:	0000                	unimp
    80008564:	0000                	unimp
    80008566:	0000                	unimp
    80008568:	0000                	unimp
    8000856a:	0000                	unimp
    8000856c:	0000                	unimp
    8000856e:	0000                	unimp
    80008570:	0000                	unimp
    80008572:	0000                	unimp
    80008574:	0000                	unimp
    80008576:	0000                	unimp
    80008578:	0000                	unimp
    8000857a:	0000                	unimp
    8000857c:	0000                	unimp
    8000857e:	0000                	unimp
    80008580:	0000                	unimp
    80008582:	0000                	unimp
    80008584:	0000                	unimp
    80008586:	0000                	unimp
    80008588:	0000                	unimp
    8000858a:	0000                	unimp
    8000858c:	0000                	unimp
    8000858e:	0000                	unimp
    80008590:	0000                	unimp
    80008592:	0000                	unimp
    80008594:	0000                	unimp
    80008596:	0000                	unimp
    80008598:	0000                	unimp
    8000859a:	0000                	unimp
    8000859c:	0000                	unimp
    8000859e:	0000                	unimp
    800085a0:	0000                	unimp
    800085a2:	0000                	unimp
    800085a4:	0000                	unimp
    800085a6:	0000                	unimp
    800085a8:	0000                	unimp
    800085aa:	0000                	unimp
    800085ac:	0000                	unimp
    800085ae:	0000                	unimp
    800085b0:	0000                	unimp
    800085b2:	0000                	unimp
    800085b4:	0000                	unimp
    800085b6:	0000                	unimp
    800085b8:	0000                	unimp
    800085ba:	0000                	unimp
    800085bc:	0000                	unimp
    800085be:	0000                	unimp
    800085c0:	0000                	unimp
    800085c2:	0000                	unimp
    800085c4:	0000                	unimp
    800085c6:	0000                	unimp
    800085c8:	0000                	unimp
    800085ca:	0000                	unimp
    800085cc:	0000                	unimp
    800085ce:	0000                	unimp
    800085d0:	0000                	unimp
    800085d2:	0000                	unimp
    800085d4:	0000                	unimp
    800085d6:	0000                	unimp
    800085d8:	0000                	unimp
    800085da:	0000                	unimp
    800085dc:	0000                	unimp
    800085de:	0000                	unimp
    800085e0:	0000                	unimp
    800085e2:	0000                	unimp
    800085e4:	0000                	unimp
    800085e6:	0000                	unimp
    800085e8:	0000                	unimp
    800085ea:	0000                	unimp
    800085ec:	0000                	unimp
    800085ee:	0000                	unimp
    800085f0:	0000                	unimp
    800085f2:	0000                	unimp
    800085f4:	0000                	unimp
    800085f6:	0000                	unimp
    800085f8:	0000                	unimp
    800085fa:	0000                	unimp
    800085fc:	0000                	unimp
    800085fe:	0000                	unimp
    80008600:	0000                	unimp
    80008602:	0000                	unimp
    80008604:	0000                	unimp
    80008606:	0000                	unimp
    80008608:	0000                	unimp
    8000860a:	0000                	unimp
    8000860c:	0000                	unimp
    8000860e:	0000                	unimp
    80008610:	0000                	unimp
    80008612:	0000                	unimp
    80008614:	0000                	unimp
    80008616:	0000                	unimp
    80008618:	0000                	unimp
    8000861a:	0000                	unimp
    8000861c:	0000                	unimp
    8000861e:	0000                	unimp
    80008620:	0000                	unimp
    80008622:	0000                	unimp
    80008624:	0000                	unimp
    80008626:	0000                	unimp
    80008628:	0000                	unimp
    8000862a:	0000                	unimp
    8000862c:	0000                	unimp
    8000862e:	0000                	unimp
    80008630:	0000                	unimp
    80008632:	0000                	unimp
    80008634:	0000                	unimp
    80008636:	0000                	unimp
    80008638:	0000                	unimp
    8000863a:	0000                	unimp
    8000863c:	0000                	unimp
    8000863e:	0000                	unimp
    80008640:	0000                	unimp
    80008642:	0000                	unimp
    80008644:	0000                	unimp
    80008646:	0000                	unimp
    80008648:	0000                	unimp
    8000864a:	0000                	unimp
    8000864c:	0000                	unimp
    8000864e:	0000                	unimp
    80008650:	0000                	unimp
    80008652:	0000                	unimp
    80008654:	0000                	unimp
    80008656:	0000                	unimp
    80008658:	0000                	unimp
    8000865a:	0000                	unimp
    8000865c:	0000                	unimp
    8000865e:	0000                	unimp
    80008660:	0000                	unimp
    80008662:	0000                	unimp
    80008664:	0000                	unimp
    80008666:	0000                	unimp
    80008668:	0000                	unimp
    8000866a:	0000                	unimp
    8000866c:	0000                	unimp
    8000866e:	0000                	unimp
    80008670:	0000                	unimp
    80008672:	0000                	unimp
    80008674:	0000                	unimp
    80008676:	0000                	unimp
    80008678:	0000                	unimp
    8000867a:	0000                	unimp
    8000867c:	0000                	unimp
    8000867e:	0000                	unimp
    80008680:	0000                	unimp
    80008682:	0000                	unimp
    80008684:	0000                	unimp
    80008686:	0000                	unimp
    80008688:	0000                	unimp
    8000868a:	0000                	unimp
    8000868c:	0000                	unimp
    8000868e:	0000                	unimp
    80008690:	0000                	unimp
    80008692:	0000                	unimp
    80008694:	0000                	unimp
    80008696:	0000                	unimp
    80008698:	0000                	unimp
    8000869a:	0000                	unimp
    8000869c:	0000                	unimp
    8000869e:	0000                	unimp

00000000800086a0 <__malloc_av_>:
    800086a0:	0000                	unimp
    800086a2:	0000                	unimp
    800086a4:	0000                	unimp
    800086a6:	0000                	unimp
    800086a8:	0000                	unimp
    800086aa:	0000                	unimp
    800086ac:	0000                	unimp
    800086ae:	0000                	unimp
    800086b0:	86a0                	0x86a0
    800086b2:	8000                	0x8000
    800086b4:	0000                	unimp
    800086b6:	0000                	unimp
    800086b8:	86a0                	0x86a0
    800086ba:	8000                	0x8000
    800086bc:	0000                	unimp
    800086be:	0000                	unimp
    800086c0:	86b0                	0x86b0
    800086c2:	8000                	0x8000
    800086c4:	0000                	unimp
    800086c6:	0000                	unimp
    800086c8:	86b0                	0x86b0
    800086ca:	8000                	0x8000
    800086cc:	0000                	unimp
    800086ce:	0000                	unimp
    800086d0:	86c0                	0x86c0
    800086d2:	8000                	0x8000
    800086d4:	0000                	unimp
    800086d6:	0000                	unimp
    800086d8:	86c0                	0x86c0
    800086da:	8000                	0x8000
    800086dc:	0000                	unimp
    800086de:	0000                	unimp
    800086e0:	86d0                	0x86d0
    800086e2:	8000                	0x8000
    800086e4:	0000                	unimp
    800086e6:	0000                	unimp
    800086e8:	86d0                	0x86d0
    800086ea:	8000                	0x8000
    800086ec:	0000                	unimp
    800086ee:	0000                	unimp
    800086f0:	86e0                	0x86e0
    800086f2:	8000                	0x8000
    800086f4:	0000                	unimp
    800086f6:	0000                	unimp
    800086f8:	86e0                	0x86e0
    800086fa:	8000                	0x8000
    800086fc:	0000                	unimp
    800086fe:	0000                	unimp
    80008700:	86f0                	0x86f0
    80008702:	8000                	0x8000
    80008704:	0000                	unimp
    80008706:	0000                	unimp
    80008708:	86f0                	0x86f0
    8000870a:	8000                	0x8000
    8000870c:	0000                	unimp
    8000870e:	0000                	unimp
    80008710:	8700                	0x8700
    80008712:	8000                	0x8000
    80008714:	0000                	unimp
    80008716:	0000                	unimp
    80008718:	8700                	0x8700
    8000871a:	8000                	0x8000
    8000871c:	0000                	unimp
    8000871e:	0000                	unimp
    80008720:	8710                	0x8710
    80008722:	8000                	0x8000
    80008724:	0000                	unimp
    80008726:	0000                	unimp
    80008728:	8710                	0x8710
    8000872a:	8000                	0x8000
    8000872c:	0000                	unimp
    8000872e:	0000                	unimp
    80008730:	8720                	0x8720
    80008732:	8000                	0x8000
    80008734:	0000                	unimp
    80008736:	0000                	unimp
    80008738:	8720                	0x8720
    8000873a:	8000                	0x8000
    8000873c:	0000                	unimp
    8000873e:	0000                	unimp
    80008740:	8730                	0x8730
    80008742:	8000                	0x8000
    80008744:	0000                	unimp
    80008746:	0000                	unimp
    80008748:	8730                	0x8730
    8000874a:	8000                	0x8000
    8000874c:	0000                	unimp
    8000874e:	0000                	unimp
    80008750:	8740                	0x8740
    80008752:	8000                	0x8000
    80008754:	0000                	unimp
    80008756:	0000                	unimp
    80008758:	8740                	0x8740
    8000875a:	8000                	0x8000
    8000875c:	0000                	unimp
    8000875e:	0000                	unimp
    80008760:	8750                	0x8750
    80008762:	8000                	0x8000
    80008764:	0000                	unimp
    80008766:	0000                	unimp
    80008768:	8750                	0x8750
    8000876a:	8000                	0x8000
    8000876c:	0000                	unimp
    8000876e:	0000                	unimp
    80008770:	8760                	0x8760
    80008772:	8000                	0x8000
    80008774:	0000                	unimp
    80008776:	0000                	unimp
    80008778:	8760                	0x8760
    8000877a:	8000                	0x8000
    8000877c:	0000                	unimp
    8000877e:	0000                	unimp
    80008780:	8770                	0x8770
    80008782:	8000                	0x8000
    80008784:	0000                	unimp
    80008786:	0000                	unimp
    80008788:	8770                	0x8770
    8000878a:	8000                	0x8000
    8000878c:	0000                	unimp
    8000878e:	0000                	unimp
    80008790:	8780                	0x8780
    80008792:	8000                	0x8000
    80008794:	0000                	unimp
    80008796:	0000                	unimp
    80008798:	8780                	0x8780
    8000879a:	8000                	0x8000
    8000879c:	0000                	unimp
    8000879e:	0000                	unimp
    800087a0:	8790                	0x8790
    800087a2:	8000                	0x8000
    800087a4:	0000                	unimp
    800087a6:	0000                	unimp
    800087a8:	8790                	0x8790
    800087aa:	8000                	0x8000
    800087ac:	0000                	unimp
    800087ae:	0000                	unimp
    800087b0:	87a0                	0x87a0
    800087b2:	8000                	0x8000
    800087b4:	0000                	unimp
    800087b6:	0000                	unimp
    800087b8:	87a0                	0x87a0
    800087ba:	8000                	0x8000
    800087bc:	0000                	unimp
    800087be:	0000                	unimp
    800087c0:	87b0                	0x87b0
    800087c2:	8000                	0x8000
    800087c4:	0000                	unimp
    800087c6:	0000                	unimp
    800087c8:	87b0                	0x87b0
    800087ca:	8000                	0x8000
    800087cc:	0000                	unimp
    800087ce:	0000                	unimp
    800087d0:	87c0                	0x87c0
    800087d2:	8000                	0x8000
    800087d4:	0000                	unimp
    800087d6:	0000                	unimp
    800087d8:	87c0                	0x87c0
    800087da:	8000                	0x8000
    800087dc:	0000                	unimp
    800087de:	0000                	unimp
    800087e0:	87d0                	0x87d0
    800087e2:	8000                	0x8000
    800087e4:	0000                	unimp
    800087e6:	0000                	unimp
    800087e8:	87d0                	0x87d0
    800087ea:	8000                	0x8000
    800087ec:	0000                	unimp
    800087ee:	0000                	unimp
    800087f0:	87e0                	0x87e0
    800087f2:	8000                	0x8000
    800087f4:	0000                	unimp
    800087f6:	0000                	unimp
    800087f8:	87e0                	0x87e0
    800087fa:	8000                	0x8000
    800087fc:	0000                	unimp
    800087fe:	0000                	unimp
    80008800:	87f0                	0x87f0
    80008802:	8000                	0x8000
    80008804:	0000                	unimp
    80008806:	0000                	unimp
    80008808:	87f0                	0x87f0
    8000880a:	8000                	0x8000
    8000880c:	0000                	unimp
    8000880e:	0000                	unimp
    80008810:	8800                	0x8800
    80008812:	8000                	0x8000
    80008814:	0000                	unimp
    80008816:	0000                	unimp
    80008818:	8800                	0x8800
    8000881a:	8000                	0x8000
    8000881c:	0000                	unimp
    8000881e:	0000                	unimp
    80008820:	8810                	0x8810
    80008822:	8000                	0x8000
    80008824:	0000                	unimp
    80008826:	0000                	unimp
    80008828:	8810                	0x8810
    8000882a:	8000                	0x8000
    8000882c:	0000                	unimp
    8000882e:	0000                	unimp
    80008830:	8820                	0x8820
    80008832:	8000                	0x8000
    80008834:	0000                	unimp
    80008836:	0000                	unimp
    80008838:	8820                	0x8820
    8000883a:	8000                	0x8000
    8000883c:	0000                	unimp
    8000883e:	0000                	unimp
    80008840:	8830                	0x8830
    80008842:	8000                	0x8000
    80008844:	0000                	unimp
    80008846:	0000                	unimp
    80008848:	8830                	0x8830
    8000884a:	8000                	0x8000
    8000884c:	0000                	unimp
    8000884e:	0000                	unimp
    80008850:	8840                	0x8840
    80008852:	8000                	0x8000
    80008854:	0000                	unimp
    80008856:	0000                	unimp
    80008858:	8840                	0x8840
    8000885a:	8000                	0x8000
    8000885c:	0000                	unimp
    8000885e:	0000                	unimp
    80008860:	8850                	0x8850
    80008862:	8000                	0x8000
    80008864:	0000                	unimp
    80008866:	0000                	unimp
    80008868:	8850                	0x8850
    8000886a:	8000                	0x8000
    8000886c:	0000                	unimp
    8000886e:	0000                	unimp
    80008870:	8860                	0x8860
    80008872:	8000                	0x8000
    80008874:	0000                	unimp
    80008876:	0000                	unimp
    80008878:	8860                	0x8860
    8000887a:	8000                	0x8000
    8000887c:	0000                	unimp
    8000887e:	0000                	unimp
    80008880:	8870                	0x8870
    80008882:	8000                	0x8000
    80008884:	0000                	unimp
    80008886:	0000                	unimp
    80008888:	8870                	0x8870
    8000888a:	8000                	0x8000
    8000888c:	0000                	unimp
    8000888e:	0000                	unimp
    80008890:	8880                	0x8880
    80008892:	8000                	0x8000
    80008894:	0000                	unimp
    80008896:	0000                	unimp
    80008898:	8880                	0x8880
    8000889a:	8000                	0x8000
    8000889c:	0000                	unimp
    8000889e:	0000                	unimp
    800088a0:	8890                	0x8890
    800088a2:	8000                	0x8000
    800088a4:	0000                	unimp
    800088a6:	0000                	unimp
    800088a8:	8890                	0x8890
    800088aa:	8000                	0x8000
    800088ac:	0000                	unimp
    800088ae:	0000                	unimp
    800088b0:	88a0                	0x88a0
    800088b2:	8000                	0x8000
    800088b4:	0000                	unimp
    800088b6:	0000                	unimp
    800088b8:	88a0                	0x88a0
    800088ba:	8000                	0x8000
    800088bc:	0000                	unimp
    800088be:	0000                	unimp
    800088c0:	88b0                	0x88b0
    800088c2:	8000                	0x8000
    800088c4:	0000                	unimp
    800088c6:	0000                	unimp
    800088c8:	88b0                	0x88b0
    800088ca:	8000                	0x8000
    800088cc:	0000                	unimp
    800088ce:	0000                	unimp
    800088d0:	88c0                	0x88c0
    800088d2:	8000                	0x8000
    800088d4:	0000                	unimp
    800088d6:	0000                	unimp
    800088d8:	88c0                	0x88c0
    800088da:	8000                	0x8000
    800088dc:	0000                	unimp
    800088de:	0000                	unimp
    800088e0:	88d0                	0x88d0
    800088e2:	8000                	0x8000
    800088e4:	0000                	unimp
    800088e6:	0000                	unimp
    800088e8:	88d0                	0x88d0
    800088ea:	8000                	0x8000
    800088ec:	0000                	unimp
    800088ee:	0000                	unimp
    800088f0:	88e0                	0x88e0
    800088f2:	8000                	0x8000
    800088f4:	0000                	unimp
    800088f6:	0000                	unimp
    800088f8:	88e0                	0x88e0
    800088fa:	8000                	0x8000
    800088fc:	0000                	unimp
    800088fe:	0000                	unimp
    80008900:	88f0                	0x88f0
    80008902:	8000                	0x8000
    80008904:	0000                	unimp
    80008906:	0000                	unimp
    80008908:	88f0                	0x88f0
    8000890a:	8000                	0x8000
    8000890c:	0000                	unimp
    8000890e:	0000                	unimp
    80008910:	8900                	0x8900
    80008912:	8000                	0x8000
    80008914:	0000                	unimp
    80008916:	0000                	unimp
    80008918:	8900                	0x8900
    8000891a:	8000                	0x8000
    8000891c:	0000                	unimp
    8000891e:	0000                	unimp
    80008920:	8910                	0x8910
    80008922:	8000                	0x8000
    80008924:	0000                	unimp
    80008926:	0000                	unimp
    80008928:	8910                	0x8910
    8000892a:	8000                	0x8000
    8000892c:	0000                	unimp
    8000892e:	0000                	unimp
    80008930:	8920                	0x8920
    80008932:	8000                	0x8000
    80008934:	0000                	unimp
    80008936:	0000                	unimp
    80008938:	8920                	0x8920
    8000893a:	8000                	0x8000
    8000893c:	0000                	unimp
    8000893e:	0000                	unimp
    80008940:	8930                	0x8930
    80008942:	8000                	0x8000
    80008944:	0000                	unimp
    80008946:	0000                	unimp
    80008948:	8930                	0x8930
    8000894a:	8000                	0x8000
    8000894c:	0000                	unimp
    8000894e:	0000                	unimp
    80008950:	8940                	0x8940
    80008952:	8000                	0x8000
    80008954:	0000                	unimp
    80008956:	0000                	unimp
    80008958:	8940                	0x8940
    8000895a:	8000                	0x8000
    8000895c:	0000                	unimp
    8000895e:	0000                	unimp
    80008960:	8950                	0x8950
    80008962:	8000                	0x8000
    80008964:	0000                	unimp
    80008966:	0000                	unimp
    80008968:	8950                	0x8950
    8000896a:	8000                	0x8000
    8000896c:	0000                	unimp
    8000896e:	0000                	unimp
    80008970:	8960                	0x8960
    80008972:	8000                	0x8000
    80008974:	0000                	unimp
    80008976:	0000                	unimp
    80008978:	8960                	0x8960
    8000897a:	8000                	0x8000
    8000897c:	0000                	unimp
    8000897e:	0000                	unimp
    80008980:	8970                	0x8970
    80008982:	8000                	0x8000
    80008984:	0000                	unimp
    80008986:	0000                	unimp
    80008988:	8970                	0x8970
    8000898a:	8000                	0x8000
    8000898c:	0000                	unimp
    8000898e:	0000                	unimp
    80008990:	8980                	0x8980
    80008992:	8000                	0x8000
    80008994:	0000                	unimp
    80008996:	0000                	unimp
    80008998:	8980                	0x8980
    8000899a:	8000                	0x8000
    8000899c:	0000                	unimp
    8000899e:	0000                	unimp
    800089a0:	8990                	0x8990
    800089a2:	8000                	0x8000
    800089a4:	0000                	unimp
    800089a6:	0000                	unimp
    800089a8:	8990                	0x8990
    800089aa:	8000                	0x8000
    800089ac:	0000                	unimp
    800089ae:	0000                	unimp
    800089b0:	89a0                	0x89a0
    800089b2:	8000                	0x8000
    800089b4:	0000                	unimp
    800089b6:	0000                	unimp
    800089b8:	89a0                	0x89a0
    800089ba:	8000                	0x8000
    800089bc:	0000                	unimp
    800089be:	0000                	unimp
    800089c0:	89b0                	0x89b0
    800089c2:	8000                	0x8000
    800089c4:	0000                	unimp
    800089c6:	0000                	unimp
    800089c8:	89b0                	0x89b0
    800089ca:	8000                	0x8000
    800089cc:	0000                	unimp
    800089ce:	0000                	unimp
    800089d0:	89c0                	0x89c0
    800089d2:	8000                	0x8000
    800089d4:	0000                	unimp
    800089d6:	0000                	unimp
    800089d8:	89c0                	0x89c0
    800089da:	8000                	0x8000
    800089dc:	0000                	unimp
    800089de:	0000                	unimp
    800089e0:	89d0                	0x89d0
    800089e2:	8000                	0x8000
    800089e4:	0000                	unimp
    800089e6:	0000                	unimp
    800089e8:	89d0                	0x89d0
    800089ea:	8000                	0x8000
    800089ec:	0000                	unimp
    800089ee:	0000                	unimp
    800089f0:	89e0                	0x89e0
    800089f2:	8000                	0x8000
    800089f4:	0000                	unimp
    800089f6:	0000                	unimp
    800089f8:	89e0                	0x89e0
    800089fa:	8000                	0x8000
    800089fc:	0000                	unimp
    800089fe:	0000                	unimp
    80008a00:	89f0                	0x89f0
    80008a02:	8000                	0x8000
    80008a04:	0000                	unimp
    80008a06:	0000                	unimp
    80008a08:	89f0                	0x89f0
    80008a0a:	8000                	0x8000
    80008a0c:	0000                	unimp
    80008a0e:	0000                	unimp
    80008a10:	8a00                	0x8a00
    80008a12:	8000                	0x8000
    80008a14:	0000                	unimp
    80008a16:	0000                	unimp
    80008a18:	8a00                	0x8a00
    80008a1a:	8000                	0x8000
    80008a1c:	0000                	unimp
    80008a1e:	0000                	unimp
    80008a20:	8a10                	0x8a10
    80008a22:	8000                	0x8000
    80008a24:	0000                	unimp
    80008a26:	0000                	unimp
    80008a28:	8a10                	0x8a10
    80008a2a:	8000                	0x8000
    80008a2c:	0000                	unimp
    80008a2e:	0000                	unimp
    80008a30:	8a20                	0x8a20
    80008a32:	8000                	0x8000
    80008a34:	0000                	unimp
    80008a36:	0000                	unimp
    80008a38:	8a20                	0x8a20
    80008a3a:	8000                	0x8000
    80008a3c:	0000                	unimp
    80008a3e:	0000                	unimp
    80008a40:	8a30                	0x8a30
    80008a42:	8000                	0x8000
    80008a44:	0000                	unimp
    80008a46:	0000                	unimp
    80008a48:	8a30                	0x8a30
    80008a4a:	8000                	0x8000
    80008a4c:	0000                	unimp
    80008a4e:	0000                	unimp
    80008a50:	8a40                	0x8a40
    80008a52:	8000                	0x8000
    80008a54:	0000                	unimp
    80008a56:	0000                	unimp
    80008a58:	8a40                	0x8a40
    80008a5a:	8000                	0x8000
    80008a5c:	0000                	unimp
    80008a5e:	0000                	unimp
    80008a60:	8a50                	0x8a50
    80008a62:	8000                	0x8000
    80008a64:	0000                	unimp
    80008a66:	0000                	unimp
    80008a68:	8a50                	0x8a50
    80008a6a:	8000                	0x8000
    80008a6c:	0000                	unimp
    80008a6e:	0000                	unimp
    80008a70:	8a60                	0x8a60
    80008a72:	8000                	0x8000
    80008a74:	0000                	unimp
    80008a76:	0000                	unimp
    80008a78:	8a60                	0x8a60
    80008a7a:	8000                	0x8000
    80008a7c:	0000                	unimp
    80008a7e:	0000                	unimp
    80008a80:	8a70                	0x8a70
    80008a82:	8000                	0x8000
    80008a84:	0000                	unimp
    80008a86:	0000                	unimp
    80008a88:	8a70                	0x8a70
    80008a8a:	8000                	0x8000
    80008a8c:	0000                	unimp
    80008a8e:	0000                	unimp
    80008a90:	8a80                	0x8a80
    80008a92:	8000                	0x8000
    80008a94:	0000                	unimp
    80008a96:	0000                	unimp
    80008a98:	8a80                	0x8a80
    80008a9a:	8000                	0x8000
    80008a9c:	0000                	unimp
    80008a9e:	0000                	unimp
    80008aa0:	8a90                	0x8a90
    80008aa2:	8000                	0x8000
    80008aa4:	0000                	unimp
    80008aa6:	0000                	unimp
    80008aa8:	8a90                	0x8a90
    80008aaa:	8000                	0x8000
    80008aac:	0000                	unimp
    80008aae:	0000                	unimp
    80008ab0:	8aa0                	0x8aa0
    80008ab2:	8000                	0x8000
    80008ab4:	0000                	unimp
    80008ab6:	0000                	unimp
    80008ab8:	8aa0                	0x8aa0
    80008aba:	8000                	0x8000
    80008abc:	0000                	unimp
    80008abe:	0000                	unimp
    80008ac0:	8ab0                	0x8ab0
    80008ac2:	8000                	0x8000
    80008ac4:	0000                	unimp
    80008ac6:	0000                	unimp
    80008ac8:	8ab0                	0x8ab0
    80008aca:	8000                	0x8000
    80008acc:	0000                	unimp
    80008ace:	0000                	unimp
    80008ad0:	8ac0                	0x8ac0
    80008ad2:	8000                	0x8000
    80008ad4:	0000                	unimp
    80008ad6:	0000                	unimp
    80008ad8:	8ac0                	0x8ac0
    80008ada:	8000                	0x8000
    80008adc:	0000                	unimp
    80008ade:	0000                	unimp
    80008ae0:	8ad0                	0x8ad0
    80008ae2:	8000                	0x8000
    80008ae4:	0000                	unimp
    80008ae6:	0000                	unimp
    80008ae8:	8ad0                	0x8ad0
    80008aea:	8000                	0x8000
    80008aec:	0000                	unimp
    80008aee:	0000                	unimp
    80008af0:	8ae0                	0x8ae0
    80008af2:	8000                	0x8000
    80008af4:	0000                	unimp
    80008af6:	0000                	unimp
    80008af8:	8ae0                	0x8ae0
    80008afa:	8000                	0x8000
    80008afc:	0000                	unimp
    80008afe:	0000                	unimp
    80008b00:	8af0                	0x8af0
    80008b02:	8000                	0x8000
    80008b04:	0000                	unimp
    80008b06:	0000                	unimp
    80008b08:	8af0                	0x8af0
    80008b0a:	8000                	0x8000
    80008b0c:	0000                	unimp
    80008b0e:	0000                	unimp
    80008b10:	8b00                	0x8b00
    80008b12:	8000                	0x8000
    80008b14:	0000                	unimp
    80008b16:	0000                	unimp
    80008b18:	8b00                	0x8b00
    80008b1a:	8000                	0x8000
    80008b1c:	0000                	unimp
    80008b1e:	0000                	unimp
    80008b20:	8b10                	0x8b10
    80008b22:	8000                	0x8000
    80008b24:	0000                	unimp
    80008b26:	0000                	unimp
    80008b28:	8b10                	0x8b10
    80008b2a:	8000                	0x8000
    80008b2c:	0000                	unimp
    80008b2e:	0000                	unimp
    80008b30:	8b20                	0x8b20
    80008b32:	8000                	0x8000
    80008b34:	0000                	unimp
    80008b36:	0000                	unimp
    80008b38:	8b20                	0x8b20
    80008b3a:	8000                	0x8000
    80008b3c:	0000                	unimp
    80008b3e:	0000                	unimp
    80008b40:	8b30                	0x8b30
    80008b42:	8000                	0x8000
    80008b44:	0000                	unimp
    80008b46:	0000                	unimp
    80008b48:	8b30                	0x8b30
    80008b4a:	8000                	0x8000
    80008b4c:	0000                	unimp
    80008b4e:	0000                	unimp
    80008b50:	8b40                	0x8b40
    80008b52:	8000                	0x8000
    80008b54:	0000                	unimp
    80008b56:	0000                	unimp
    80008b58:	8b40                	0x8b40
    80008b5a:	8000                	0x8000
    80008b5c:	0000                	unimp
    80008b5e:	0000                	unimp
    80008b60:	8b50                	0x8b50
    80008b62:	8000                	0x8000
    80008b64:	0000                	unimp
    80008b66:	0000                	unimp
    80008b68:	8b50                	0x8b50
    80008b6a:	8000                	0x8000
    80008b6c:	0000                	unimp
    80008b6e:	0000                	unimp
    80008b70:	8b60                	0x8b60
    80008b72:	8000                	0x8000
    80008b74:	0000                	unimp
    80008b76:	0000                	unimp
    80008b78:	8b60                	0x8b60
    80008b7a:	8000                	0x8000
    80008b7c:	0000                	unimp
    80008b7e:	0000                	unimp
    80008b80:	8b70                	0x8b70
    80008b82:	8000                	0x8000
    80008b84:	0000                	unimp
    80008b86:	0000                	unimp
    80008b88:	8b70                	0x8b70
    80008b8a:	8000                	0x8000
    80008b8c:	0000                	unimp
    80008b8e:	0000                	unimp
    80008b90:	8b80                	0x8b80
    80008b92:	8000                	0x8000
    80008b94:	0000                	unimp
    80008b96:	0000                	unimp
    80008b98:	8b80                	0x8b80
    80008b9a:	8000                	0x8000
    80008b9c:	0000                	unimp
    80008b9e:	0000                	unimp
    80008ba0:	8b90                	0x8b90
    80008ba2:	8000                	0x8000
    80008ba4:	0000                	unimp
    80008ba6:	0000                	unimp
    80008ba8:	8b90                	0x8b90
    80008baa:	8000                	0x8000
    80008bac:	0000                	unimp
    80008bae:	0000                	unimp
    80008bb0:	8ba0                	0x8ba0
    80008bb2:	8000                	0x8000
    80008bb4:	0000                	unimp
    80008bb6:	0000                	unimp
    80008bb8:	8ba0                	0x8ba0
    80008bba:	8000                	0x8000
    80008bbc:	0000                	unimp
    80008bbe:	0000                	unimp
    80008bc0:	8bb0                	0x8bb0
    80008bc2:	8000                	0x8000
    80008bc4:	0000                	unimp
    80008bc6:	0000                	unimp
    80008bc8:	8bb0                	0x8bb0
    80008bca:	8000                	0x8000
    80008bcc:	0000                	unimp
    80008bce:	0000                	unimp
    80008bd0:	8bc0                	0x8bc0
    80008bd2:	8000                	0x8000
    80008bd4:	0000                	unimp
    80008bd6:	0000                	unimp
    80008bd8:	8bc0                	0x8bc0
    80008bda:	8000                	0x8000
    80008bdc:	0000                	unimp
    80008bde:	0000                	unimp
    80008be0:	8bd0                	0x8bd0
    80008be2:	8000                	0x8000
    80008be4:	0000                	unimp
    80008be6:	0000                	unimp
    80008be8:	8bd0                	0x8bd0
    80008bea:	8000                	0x8000
    80008bec:	0000                	unimp
    80008bee:	0000                	unimp
    80008bf0:	8be0                	0x8be0
    80008bf2:	8000                	0x8000
    80008bf4:	0000                	unimp
    80008bf6:	0000                	unimp
    80008bf8:	8be0                	0x8be0
    80008bfa:	8000                	0x8000
    80008bfc:	0000                	unimp
    80008bfe:	0000                	unimp
    80008c00:	8bf0                	0x8bf0
    80008c02:	8000                	0x8000
    80008c04:	0000                	unimp
    80008c06:	0000                	unimp
    80008c08:	8bf0                	0x8bf0
    80008c0a:	8000                	0x8000
    80008c0c:	0000                	unimp
    80008c0e:	0000                	unimp
    80008c10:	8c00                	0x8c00
    80008c12:	8000                	0x8000
    80008c14:	0000                	unimp
    80008c16:	0000                	unimp
    80008c18:	8c00                	0x8c00
    80008c1a:	8000                	0x8000
    80008c1c:	0000                	unimp
    80008c1e:	0000                	unimp
    80008c20:	8c10                	0x8c10
    80008c22:	8000                	0x8000
    80008c24:	0000                	unimp
    80008c26:	0000                	unimp
    80008c28:	8c10                	0x8c10
    80008c2a:	8000                	0x8000
    80008c2c:	0000                	unimp
    80008c2e:	0000                	unimp
    80008c30:	8c20                	0x8c20
    80008c32:	8000                	0x8000
    80008c34:	0000                	unimp
    80008c36:	0000                	unimp
    80008c38:	8c20                	0x8c20
    80008c3a:	8000                	0x8000
    80008c3c:	0000                	unimp
    80008c3e:	0000                	unimp
    80008c40:	8c30                	0x8c30
    80008c42:	8000                	0x8000
    80008c44:	0000                	unimp
    80008c46:	0000                	unimp
    80008c48:	8c30                	0x8c30
    80008c4a:	8000                	0x8000
    80008c4c:	0000                	unimp
    80008c4e:	0000                	unimp
    80008c50:	8c40                	0x8c40
    80008c52:	8000                	0x8000
    80008c54:	0000                	unimp
    80008c56:	0000                	unimp
    80008c58:	8c40                	0x8c40
    80008c5a:	8000                	0x8000
    80008c5c:	0000                	unimp
    80008c5e:	0000                	unimp
    80008c60:	8c50                	0x8c50
    80008c62:	8000                	0x8000
    80008c64:	0000                	unimp
    80008c66:	0000                	unimp
    80008c68:	8c50                	0x8c50
    80008c6a:	8000                	0x8000
    80008c6c:	0000                	unimp
    80008c6e:	0000                	unimp
    80008c70:	8c60                	0x8c60
    80008c72:	8000                	0x8000
    80008c74:	0000                	unimp
    80008c76:	0000                	unimp
    80008c78:	8c60                	0x8c60
    80008c7a:	8000                	0x8000
    80008c7c:	0000                	unimp
    80008c7e:	0000                	unimp
    80008c80:	8c70                	0x8c70
    80008c82:	8000                	0x8000
    80008c84:	0000                	unimp
    80008c86:	0000                	unimp
    80008c88:	8c70                	0x8c70
    80008c8a:	8000                	0x8000
    80008c8c:	0000                	unimp
    80008c8e:	0000                	unimp
    80008c90:	8c80                	0x8c80
    80008c92:	8000                	0x8000
    80008c94:	0000                	unimp
    80008c96:	0000                	unimp
    80008c98:	8c80                	0x8c80
    80008c9a:	8000                	0x8000
    80008c9c:	0000                	unimp
    80008c9e:	0000                	unimp
    80008ca0:	8c90                	0x8c90
    80008ca2:	8000                	0x8000
    80008ca4:	0000                	unimp
    80008ca6:	0000                	unimp
    80008ca8:	8c90                	0x8c90
    80008caa:	8000                	0x8000
    80008cac:	0000                	unimp
    80008cae:	0000                	unimp
    80008cb0:	8ca0                	0x8ca0
    80008cb2:	8000                	0x8000
    80008cb4:	0000                	unimp
    80008cb6:	0000                	unimp
    80008cb8:	8ca0                	0x8ca0
    80008cba:	8000                	0x8000
    80008cbc:	0000                	unimp
    80008cbe:	0000                	unimp
    80008cc0:	8cb0                	0x8cb0
    80008cc2:	8000                	0x8000
    80008cc4:	0000                	unimp
    80008cc6:	0000                	unimp
    80008cc8:	8cb0                	0x8cb0
    80008cca:	8000                	0x8000
    80008ccc:	0000                	unimp
    80008cce:	0000                	unimp
    80008cd0:	8cc0                	0x8cc0
    80008cd2:	8000                	0x8000
    80008cd4:	0000                	unimp
    80008cd6:	0000                	unimp
    80008cd8:	8cc0                	0x8cc0
    80008cda:	8000                	0x8000
    80008cdc:	0000                	unimp
    80008cde:	0000                	unimp
    80008ce0:	8cd0                	0x8cd0
    80008ce2:	8000                	0x8000
    80008ce4:	0000                	unimp
    80008ce6:	0000                	unimp
    80008ce8:	8cd0                	0x8cd0
    80008cea:	8000                	0x8000
    80008cec:	0000                	unimp
    80008cee:	0000                	unimp
    80008cf0:	8ce0                	0x8ce0
    80008cf2:	8000                	0x8000
    80008cf4:	0000                	unimp
    80008cf6:	0000                	unimp
    80008cf8:	8ce0                	0x8ce0
    80008cfa:	8000                	0x8000
    80008cfc:	0000                	unimp
    80008cfe:	0000                	unimp
    80008d00:	8cf0                	0x8cf0
    80008d02:	8000                	0x8000
    80008d04:	0000                	unimp
    80008d06:	0000                	unimp
    80008d08:	8cf0                	0x8cf0
    80008d0a:	8000                	0x8000
    80008d0c:	0000                	unimp
    80008d0e:	0000                	unimp
    80008d10:	8d00                	0x8d00
    80008d12:	8000                	0x8000
    80008d14:	0000                	unimp
    80008d16:	0000                	unimp
    80008d18:	8d00                	0x8d00
    80008d1a:	8000                	0x8000
    80008d1c:	0000                	unimp
    80008d1e:	0000                	unimp
    80008d20:	8d10                	0x8d10
    80008d22:	8000                	0x8000
    80008d24:	0000                	unimp
    80008d26:	0000                	unimp
    80008d28:	8d10                	0x8d10
    80008d2a:	8000                	0x8000
    80008d2c:	0000                	unimp
    80008d2e:	0000                	unimp
    80008d30:	8d20                	0x8d20
    80008d32:	8000                	0x8000
    80008d34:	0000                	unimp
    80008d36:	0000                	unimp
    80008d38:	8d20                	0x8d20
    80008d3a:	8000                	0x8000
    80008d3c:	0000                	unimp
    80008d3e:	0000                	unimp
    80008d40:	8d30                	0x8d30
    80008d42:	8000                	0x8000
    80008d44:	0000                	unimp
    80008d46:	0000                	unimp
    80008d48:	8d30                	0x8d30
    80008d4a:	8000                	0x8000
    80008d4c:	0000                	unimp
    80008d4e:	0000                	unimp
    80008d50:	8d40                	0x8d40
    80008d52:	8000                	0x8000
    80008d54:	0000                	unimp
    80008d56:	0000                	unimp
    80008d58:	8d40                	0x8d40
    80008d5a:	8000                	0x8000
    80008d5c:	0000                	unimp
    80008d5e:	0000                	unimp
    80008d60:	8d50                	0x8d50
    80008d62:	8000                	0x8000
    80008d64:	0000                	unimp
    80008d66:	0000                	unimp
    80008d68:	8d50                	0x8d50
    80008d6a:	8000                	0x8000
    80008d6c:	0000                	unimp
    80008d6e:	0000                	unimp
    80008d70:	8d60                	0x8d60
    80008d72:	8000                	0x8000
    80008d74:	0000                	unimp
    80008d76:	0000                	unimp
    80008d78:	8d60                	0x8d60
    80008d7a:	8000                	0x8000
    80008d7c:	0000                	unimp
    80008d7e:	0000                	unimp
    80008d80:	8d70                	0x8d70
    80008d82:	8000                	0x8000
    80008d84:	0000                	unimp
    80008d86:	0000                	unimp
    80008d88:	8d70                	0x8d70
    80008d8a:	8000                	0x8000
    80008d8c:	0000                	unimp
    80008d8e:	0000                	unimp
    80008d90:	8d80                	0x8d80
    80008d92:	8000                	0x8000
    80008d94:	0000                	unimp
    80008d96:	0000                	unimp
    80008d98:	8d80                	0x8d80
    80008d9a:	8000                	0x8000
    80008d9c:	0000                	unimp
    80008d9e:	0000                	unimp
    80008da0:	8d90                	0x8d90
    80008da2:	8000                	0x8000
    80008da4:	0000                	unimp
    80008da6:	0000                	unimp
    80008da8:	8d90                	0x8d90
    80008daa:	8000                	0x8000
    80008dac:	0000                	unimp
    80008dae:	0000                	unimp
    80008db0:	8da0                	0x8da0
    80008db2:	8000                	0x8000
    80008db4:	0000                	unimp
    80008db6:	0000                	unimp
    80008db8:	8da0                	0x8da0
    80008dba:	8000                	0x8000
    80008dbc:	0000                	unimp
    80008dbe:	0000                	unimp
    80008dc0:	8db0                	0x8db0
    80008dc2:	8000                	0x8000
    80008dc4:	0000                	unimp
    80008dc6:	0000                	unimp
    80008dc8:	8db0                	0x8db0
    80008dca:	8000                	0x8000
    80008dcc:	0000                	unimp
    80008dce:	0000                	unimp
    80008dd0:	8dc0                	0x8dc0
    80008dd2:	8000                	0x8000
    80008dd4:	0000                	unimp
    80008dd6:	0000                	unimp
    80008dd8:	8dc0                	0x8dc0
    80008dda:	8000                	0x8000
    80008ddc:	0000                	unimp
    80008dde:	0000                	unimp
    80008de0:	8dd0                	0x8dd0
    80008de2:	8000                	0x8000
    80008de4:	0000                	unimp
    80008de6:	0000                	unimp
    80008de8:	8dd0                	0x8dd0
    80008dea:	8000                	0x8000
    80008dec:	0000                	unimp
    80008dee:	0000                	unimp
    80008df0:	8de0                	0x8de0
    80008df2:	8000                	0x8000
    80008df4:	0000                	unimp
    80008df6:	0000                	unimp
    80008df8:	8de0                	0x8de0
    80008dfa:	8000                	0x8000
    80008dfc:	0000                	unimp
    80008dfe:	0000                	unimp
    80008e00:	8df0                	0x8df0
    80008e02:	8000                	0x8000
    80008e04:	0000                	unimp
    80008e06:	0000                	unimp
    80008e08:	8df0                	0x8df0
    80008e0a:	8000                	0x8000
    80008e0c:	0000                	unimp
    80008e0e:	0000                	unimp
    80008e10:	8e00                	0x8e00
    80008e12:	8000                	0x8000
    80008e14:	0000                	unimp
    80008e16:	0000                	unimp
    80008e18:	8e00                	0x8e00
    80008e1a:	8000                	0x8000
    80008e1c:	0000                	unimp
    80008e1e:	0000                	unimp
    80008e20:	8e10                	0x8e10
    80008e22:	8000                	0x8000
    80008e24:	0000                	unimp
    80008e26:	0000                	unimp
    80008e28:	8e10                	0x8e10
    80008e2a:	8000                	0x8000
    80008e2c:	0000                	unimp
    80008e2e:	0000                	unimp
    80008e30:	8e20                	0x8e20
    80008e32:	8000                	0x8000
    80008e34:	0000                	unimp
    80008e36:	0000                	unimp
    80008e38:	8e20                	0x8e20
    80008e3a:	8000                	0x8000
    80008e3c:	0000                	unimp
    80008e3e:	0000                	unimp
    80008e40:	8e30                	0x8e30
    80008e42:	8000                	0x8000
    80008e44:	0000                	unimp
    80008e46:	0000                	unimp
    80008e48:	8e30                	0x8e30
    80008e4a:	8000                	0x8000
    80008e4c:	0000                	unimp
    80008e4e:	0000                	unimp
    80008e50:	8e40                	0x8e40
    80008e52:	8000                	0x8000
    80008e54:	0000                	unimp
    80008e56:	0000                	unimp
    80008e58:	8e40                	0x8e40
    80008e5a:	8000                	0x8000
    80008e5c:	0000                	unimp
    80008e5e:	0000                	unimp
    80008e60:	8e50                	0x8e50
    80008e62:	8000                	0x8000
    80008e64:	0000                	unimp
    80008e66:	0000                	unimp
    80008e68:	8e50                	0x8e50
    80008e6a:	8000                	0x8000
    80008e6c:	0000                	unimp
    80008e6e:	0000                	unimp
    80008e70:	8e60                	0x8e60
    80008e72:	8000                	0x8000
    80008e74:	0000                	unimp
    80008e76:	0000                	unimp
    80008e78:	8e60                	0x8e60
    80008e7a:	8000                	0x8000
    80008e7c:	0000                	unimp
    80008e7e:	0000                	unimp
    80008e80:	8e70                	0x8e70
    80008e82:	8000                	0x8000
    80008e84:	0000                	unimp
    80008e86:	0000                	unimp
    80008e88:	8e70                	0x8e70
    80008e8a:	8000                	0x8000
    80008e8c:	0000                	unimp
    80008e8e:	0000                	unimp
    80008e90:	8e80                	0x8e80
    80008e92:	8000                	0x8000
    80008e94:	0000                	unimp
    80008e96:	0000                	unimp
    80008e98:	8e80                	0x8e80
    80008e9a:	8000                	0x8000
    80008e9c:	0000                	unimp
    80008e9e:	0000                	unimp
    80008ea0:	8e90                	0x8e90
    80008ea2:	8000                	0x8000
    80008ea4:	0000                	unimp
    80008ea6:	0000                	unimp
    80008ea8:	8e90                	0x8e90
    80008eaa:	8000                	0x8000
    80008eac:	0000                	unimp
    80008eae:	0000                	unimp
    80008eb0:	6975                	lui	s2,0x1d
    80008eb2:	2070                	fld	fa2,192(s0)
    80008eb4:	7574                	ld	a3,232(a0)
    80008eb6:	2f6e                	fld	ft10,216(sp)
    80008eb8:	6174                	ld	a3,192(a0)
    80008eba:	2070                	fld	fa2,192(s0)
    80008ebc:	6574                	ld	a3,200(a0)
    80008ebe:	0a0d7473          	csrrci	s0,0xa0,26
    80008ec2:	0000                	unimp
    80008ec4:	0000                	unimp
    80008ec6:	0000                	unimp
    80008ec8:	6975                	lui	s2,0x1d
    80008eca:	5f70                	lw	a2,124(a4)
    80008ecc:	6e69                	lui	t3,0x1a
    80008ece:	7469                	lui	s0,0xffffa
    80008ed0:	0a0d                	addi	s4,s4,3
    80008ed2:	0000                	unimp
    80008ed4:	0000                	unimp
    80008ed6:	0000                	unimp
    80008ed8:	6864                	ld	s1,208(s0)
    80008eda:	5f637063          	bgeu	t1,s6,800094ba <uip_buf+0x52>
    80008ede:	6e69                	lui	t3,0x1a
    80008ee0:	7469                	lui	s0,0xffffa
    80008ee2:	0a0d                	addi	s4,s4,3
    80008ee4:	0000                	unimp
    80008ee6:	0000                	unimp
    80008ee8:	6864                	ld	s1,208(s0)
    80008eea:	5f637063          	bgeu	t1,s6,800094ca <uip_buf+0x62>
    80008eee:	6572                	ld	a0,280(sp)
    80008ef0:	7571                	lui	a0,0xffffc
    80008ef2:	7365                	lui	t1,0xffff9
    80008ef4:	0d74                	addi	a3,sp,668
    80008ef6:	000a                	c.slli	zero,0x2
    80008ef8:	20746f47          	fmsub.s	ft10,fs0,ft7,ft4,unknown
    80008efc:	5049                	c.li	zero,-14
    80008efe:	6120                	ld	s0,64(a0)
    80008f00:	6464                	ld	s1,200(s0)
    80008f02:	6572                	ld	a0,280(sp)
    80008f04:	25207373          	csrrci	t1,0x252,0
    80008f08:	2e64                	fld	fs1,216(a2)
    80008f0a:	6425                	lui	s0,0x9
    80008f0c:	252e                	fld	fa0,200(sp)
    80008f0e:	2e64                	fld	fs1,216(a2)
    80008f10:	6425                	lui	s0,0x9
    80008f12:	000a                	c.slli	zero,0x2
    80008f14:	0000                	unimp
    80008f16:	0000                	unimp
    80008f18:	20746f47          	fmsub.s	ft10,fs0,ft7,ft4,unknown
    80008f1c:	656e                	ld	a0,216(sp)
    80008f1e:	6d74                	ld	a3,216(a0)
    80008f20:	7361                	lui	t1,0xffff8
    80008f22:	6425206b          	0x6425206b
    80008f26:	252e                	fld	fa0,200(sp)
    80008f28:	2e64                	fld	fs1,216(a2)
    80008f2a:	6425                	lui	s0,0x9
    80008f2c:	252e                	fld	fa0,200(sp)
    80008f2e:	0a64                	addi	s1,sp,284
    80008f30:	0000                	unimp
    80008f32:	0000                	unimp
    80008f34:	0000                	unimp
    80008f36:	0000                	unimp
    80008f38:	20746f47          	fmsub.s	ft10,fs0,ft7,ft4,unknown
    80008f3c:	4e44                	lw	s1,28(a2)
    80008f3e:	65732053          	0x65732053
    80008f42:	7672                	ld	a2,312(sp)
    80008f44:	7265                	lui	tp,0xffff9
    80008f46:	2520                	fld	fs0,72(a0)
    80008f48:	2e64                	fld	fs1,216(a2)
    80008f4a:	6425                	lui	s0,0x9
    80008f4c:	252e                	fld	fa0,200(sp)
    80008f4e:	2e64                	fld	fs1,216(a2)
    80008f50:	6425                	lui	s0,0x9
    80008f52:	000a                	c.slli	zero,0x2
    80008f54:	0000                	unimp
    80008f56:	0000                	unimp
    80008f58:	20746f47          	fmsub.s	ft10,fs0,ft7,ft4,unknown
    80008f5c:	6564                	ld	s1,200(a0)
    80008f5e:	6166                	ld	sp,88(sp)
    80008f60:	6c75                	lui	s8,0x1d
    80008f62:	2074                	fld	fa3,192(s0)
    80008f64:	6f72                	ld	t5,280(sp)
    80008f66:	7475                	lui	s0,0xffffd
    80008f68:	7265                	lui	tp,0xffff9
    80008f6a:	2520                	fld	fs0,72(a0)
    80008f6c:	2e64                	fld	fs1,216(a2)
    80008f6e:	6425                	lui	s0,0x9
    80008f70:	252e                	fld	fa0,200(sp)
    80008f72:	2e64                	fld	fs1,216(a2)
    80008f74:	6425                	lui	s0,0x9
    80008f76:	000a                	c.slli	zero,0x2
    80008f78:	654c                	ld	a1,136(a0)
    80008f7a:	7361                	lui	t1,0xffff8
    80008f7c:	2065                	0x2065
    80008f7e:	7865                	lui	a6,0xffff9
    80008f80:	6970                	ld	a2,208(a0)
    80008f82:	6572                	ld	a0,280(sp)
    80008f84:	6e692073          	csrs	0x6e6,s2
    80008f88:	2520                	fld	fs0,72(a0)
    80008f8a:	646c                	ld	a1,200(s0)
    80008f8c:	7320                	ld	s0,96(a4)
    80008f8e:	6365                	lui	t1,0x19
    80008f90:	73646e6f          	jal	t3,8004f6c6 <heap_end.0+0x45286>
    80008f94:	000a                	c.slli	zero,0x2
    80008f96:	0000                	unimp
    80008f98:	6e66                	ld	t3,88(sp)
    80008f9a:	2b69                	addiw	s6,s6,26
    80008f9c:	0000                	unimp
    80008f9e:	0000                	unimp
    80008fa0:	6e66                	ld	t3,88(sp)
    80008fa2:	0069                	c.nop	26
    80008fa4:	0000                	unimp
    80008fa6:	0000                	unimp
    80008fa8:	616e                	ld	sp,216(sp)
    80008faa:	006e                	c.slli	zero,0x1b
    80008fac:	0000                	unimp
    80008fae:	0000                	unimp
    80008fb0:	6e66                	ld	t3,88(sp)
    80008fb2:	2d69                	addiw	s10,s10,26
    80008fb4:	0000                	unimp
    80008fb6:	0000                	unimp
    80008fb8:	86b8                	0x86b8
    80008fba:	ffff                	0xffff
    80008fbc:	8390                	0x8390
    80008fbe:	ffff                	0xffff
    80008fc0:	8390                	0x8390
    80008fc2:	ffff                	0xffff
    80008fc4:	8390                	0x8390
    80008fc6:	ffff                	0xffff
    80008fc8:	8390                	0x8390
    80008fca:	ffff                	0xffff
    80008fcc:	8390                	0x8390
    80008fce:	ffff                	0xffff
    80008fd0:	8390                	0x8390
    80008fd2:	ffff                	0xffff
    80008fd4:	8390                	0x8390
    80008fd6:	ffff                	0xffff
    80008fd8:	8390                	0x8390
    80008fda:	ffff                	0xffff
    80008fdc:	8390                	0x8390
    80008fde:	ffff                	0xffff
    80008fe0:	86b8                	0x86b8
    80008fe2:	ffff                	0xffff
    80008fe4:	8900                	0x8900
    80008fe6:	ffff                	0xffff
    80008fe8:	86b8                	0x86b8
    80008fea:	ffff                	0xffff
    80008fec:	85f0                	0x85f0
    80008fee:	ffff                	0xffff
    80008ff0:	88dc                	0x88dc
    80008ff2:	ffff                	0xffff
    80008ff4:	85f0                	0x85f0
    80008ff6:	ffff                	0xffff

0000000080008ff8 <pow10.0>:
    80008ff8:	0000                	unimp
    80008ffa:	0000                	unimp
    80008ffc:	0000                	unimp
    80008ffe:	3ff0                	fld	fa2,248(a5)
    80009000:	0000                	unimp
    80009002:	0000                	unimp
    80009004:	0000                	unimp
    80009006:	4024                	lw	s1,64(s0)
    80009008:	0000                	unimp
    8000900a:	0000                	unimp
    8000900c:	0000                	unimp
    8000900e:	4059                	c.li	zero,22
    80009010:	0000                	unimp
    80009012:	0000                	unimp
    80009014:	4000                	lw	s0,0(s0)
    80009016:	0000408f          	0x408f
    8000901a:	0000                	unimp
    8000901c:	8800                	0x8800
    8000901e:	000040c3          	fmadd.s	ft1,ft0,ft0,ft0,rmm
    80009022:	0000                	unimp
    80009024:	6a00                	ld	s0,16(a2)
    80009026:	40f8                	lw	a4,68(s1)
    80009028:	0000                	unimp
    8000902a:	0000                	unimp
    8000902c:	8480                	0x8480
    8000902e:	412e                	lw	sp,200(sp)
    80009030:	0000                	unimp
    80009032:	0000                	unimp
    80009034:	12d0                	addi	a2,sp,356
    80009036:	00004163          	bltz	zero,80009038 <pow10.0+0x40>
    8000903a:	0000                	unimp
    8000903c:	d784                	sw	s1,40(a5)
    8000903e:	00004197          	auipc	gp,0x4
    80009042:	0000                	unimp
    80009044:	cd65                	beqz	a0,8000913c <pow10.0+0x144>
    80009046:	41cd                	li	gp,19
    80009048:	74696157          	0x74696157
    8000904c:	6465                	lui	s0,0x19
    8000904e:	6620                	ld	s0,72(a2)
    80009050:	6e20726f          	jal	tp,80010732 <heap_end.0+0x62f2>
    80009054:	7765                	lui	a4,0xffff9
    80009056:	6164                	ld	s1,192(a0)
    80009058:	6174                	ld	a3,192(a0)
    8000905a:	000a                	c.slli	zero,0x2
    8000905c:	0000                	unimp
    8000905e:	0000                	unimp
    80009060:	6441                	lui	s0,0x10
    80009062:	6964                	ld	s1,208(a0)
    80009064:	676e                	ld	a4,216(sp)
    80009066:	6e20                	ld	s0,88(a2)
    80009068:	6965                	lui	s2,0x19
    8000906a:	6f626867          	0x6f626867
    8000906e:	2072                	fld	ft0,280(sp)
    80009070:	68746977          	0x68746977
    80009074:	6c20                	ld	s0,88(s0)
    80009076:	6e69                	lui	t3,0x1a
    80009078:	6461206b          	0x6461206b
    8000907c:	7264                	ld	s1,224(a2)
    8000907e:	7365                	lui	t1,0xffff9
    80009080:	30252073          	csrs	medeleg,a0
    80009084:	7832                	ld	a6,296(sp)
    80009086:	253a                	fld	fa0,392(sp)
    80009088:	3230                	fld	fa2,96(a2)
    8000908a:	3a78                	fld	fa4,240(a2)
    8000908c:	3025                	0x3025
    8000908e:	7832                	ld	a6,296(sp)
    80009090:	253a                	fld	fa0,392(sp)
    80009092:	3230                	fld	fa2,96(a2)
    80009094:	3a78                	fld	fa4,240(a2)
    80009096:	3025                	0x3025
    80009098:	7832                	ld	a6,296(sp)
    8000909a:	253a                	fld	fa0,392(sp)
    8000909c:	3230                	fld	fa2,96(a2)
    8000909e:	0a78                	addi	a4,sp,284
    800090a0:	0000                	unimp
    800090a2:	0000                	unimp
    800090a4:	0000                	unimp
    800090a6:	0000                	unimp
    800090a8:	7069                	c.lui	zero,0xffffa
    800090aa:	203a                	fld	ft0,392(sp)
    800090ac:	6e69                	lui	t3,0x1a
    800090ae:	6176                	ld	sp,344(sp)
    800090b0:	696c                	ld	a1,208(a0)
    800090b2:	2064                	fld	fs1,192(s0)
    800090b4:	6576                	ld	a0,344(sp)
    800090b6:	7372                	ld	t1,312(sp)
    800090b8:	6f69                	lui	t5,0x1a
    800090ba:	206e                	fld	ft0,216(sp)
    800090bc:	6820726f          	jal	tp,8001073e <heap_end.0+0x62fe>
    800090c0:	6165                	addi	sp,sp,112
    800090c2:	6564                	ld	s1,200(a0)
    800090c4:	2072                	fld	ft0,280(sp)
    800090c6:	656c                	ld	a1,200(a0)
    800090c8:	676e                	ld	a4,216(sp)
    800090ca:	6874                	ld	a3,208(s0)
    800090cc:	002e                	c.slli	zero,0xb
    800090ce:	0000                	unimp
    800090d0:	7069                	c.lui	zero,0xffffa
    800090d2:	203a                	fld	ft0,392(sp)
    800090d4:	6170                	ld	a2,192(a0)
    800090d6:	74656b63          	bltu	a0,t1,8000982c <uip_buf+0x3c4>
    800090da:	7320                	ld	s0,96(a4)
    800090dc:	6f68                	ld	a0,216(a4)
    800090de:	7472                	ld	s0,312(sp)
    800090e0:	7265                	lui	tp,0xffff9
    800090e2:	7420                	ld	s0,104(s0)
    800090e4:	6168                	ld	a0,192(a0)
    800090e6:	206e                	fld	ft0,216(sp)
    800090e8:	6572                	ld	a0,280(sp)
    800090ea:	6f70                	ld	a2,216(a4)
    800090ec:	7472                	ld	s0,312(sp)
    800090ee:	6465                	lui	s0,0x19
    800090f0:	6920                	ld	s0,80(a0)
    800090f2:	206e                	fld	ft0,216(sp)
    800090f4:	5049                	c.li	zero,-14
    800090f6:	6820                	ld	s0,80(s0)
    800090f8:	6165                	addi	sp,sp,112
    800090fa:	6564                	ld	s1,200(a0)
    800090fc:	2e72                	fld	ft8,280(sp)
    800090fe:	0000                	unimp
    80009100:	7069                	c.lui	zero,0xffffa
    80009102:	203a                	fld	ft0,392(sp)
    80009104:	7266                	ld	tp,120(sp)
    80009106:	6761                	lui	a4,0x18
    80009108:	656d                	lui	a0,0x1b
    8000910a:	746e                	ld	s0,248(sp)
    8000910c:	6420                	ld	s0,72(s0)
    8000910e:	6f72                	ld	t5,280(sp)
    80009110:	7070                	ld	a2,224(s0)
    80009112:	6465                	lui	s0,0x19
    80009114:	002e                	c.slli	zero,0xb
    80009116:	0000                	unimp
    80009118:	7069                	c.lui	zero,0xffffa
    8000911a:	203a                	fld	ft0,392(sp)
    8000911c:	6162                	ld	sp,24(sp)
    8000911e:	2064                	fld	fs1,192(s0)
    80009120:	63656863          	bltu	a0,s6,80009750 <uip_buf+0x2e8>
    80009124:	6d75736b          	0x6d75736b
    80009128:	002e                	c.slli	zero,0xb
    8000912a:	0000                	unimp
    8000912c:	0000                	unimp
    8000912e:	0000                	unimp
    80009130:	7069                	c.lui	zero,0xffffa
    80009132:	203a                	fld	ft0,392(sp)
    80009134:	656e                	ld	a0,216(sp)
    80009136:	7469                	lui	s0,0xffffa
    80009138:	6568                	ld	a0,200(a0)
    8000913a:	2072                	fld	ft0,280(sp)
    8000913c:	6374                	ld	a3,192(a4)
    8000913e:	2070                	fld	fa2,192(s0)
    80009140:	6f6e                	ld	t5,216(sp)
    80009142:	2072                	fld	ft0,280(sp)
    80009144:	6369                	lui	t1,0x1a
    80009146:	706d                	c.lui	zero,0xffffb
    80009148:	002e                	c.slli	zero,0xb
    8000914a:	0000                	unimp
    8000914c:	0000                	unimp
    8000914e:	0000                	unimp
    80009150:	6369                	lui	t1,0x1a
    80009152:	706d                	c.lui	zero,0xffffb
    80009154:	203a                	fld	ft0,392(sp)
    80009156:	6f6e                	ld	t5,216(sp)
    80009158:	2074                	fld	fa3,192(s0)
    8000915a:	6369                	lui	t1,0x1a
    8000915c:	706d                	c.lui	zero,0xffffb
    8000915e:	6520                	ld	s0,72(a0)
    80009160:	2e6f6863          	bltu	t5,t1,80009450 <entries+0x48>
    80009164:	0000                	unimp
    80009166:	0000                	unimp
    80009168:	6475                	lui	s0,0x1d
    8000916a:	3a70                	fld	fa2,240(a2)
    8000916c:	6220                	ld	s0,64(a2)
    8000916e:	6461                	lui	s0,0x18
    80009170:	6320                	ld	s0,64(a4)
    80009172:	6568                	ld	a0,200(a0)
    80009174:	75736b63          	bltu	t1,s7,800098ca <uip_buf+0x462>
    80009178:	2e6d                	addiw	t3,t3,27
    8000917a:	0000                	unimp
    8000917c:	0000                	unimp
    8000917e:	0000                	unimp
    80009180:	6475                	lui	s0,0x1d
    80009182:	3a70                	fld	fa2,240(a2)
    80009184:	6e20                	ld	s0,88(a2)
    80009186:	616d206f          	j	800db79c <heap_end.0+0xd135c>
    8000918a:	6374                	ld	a3,192(a4)
    8000918c:	6968                	ld	a0,208(a0)
    8000918e:	676e                	ld	a4,216(sp)
    80009190:	6320                	ld	s0,64(a4)
    80009192:	656e6e6f          	jal	t3,800ef7e8 <heap_end.0+0xe53a8>
    80009196:	6f697463          	bgeu	s2,s6,8000987e <uip_buf+0x416>
    8000919a:	206e                	fld	ft0,216(sp)
    8000919c:	6f66                	ld	t5,88(sp)
    8000919e:	6e75                	lui	t3,0x1d
    800091a0:	0064                	addi	s1,sp,12
    800091a2:	0000                	unimp
    800091a4:	0000                	unimp
    800091a6:	0000                	unimp
    800091a8:	6374                	ld	a3,192(a4)
    800091aa:	3a70                	fld	fa2,240(a2)
    800091ac:	6220                	ld	s0,64(a2)
    800091ae:	6461                	lui	s0,0x18
    800091b0:	6320                	ld	s0,64(a4)
    800091b2:	6568                	ld	a0,200(a0)
    800091b4:	75736b63          	bltu	t1,s7,8000990a <uip_buf+0x4a2>
    800091b8:	2e6d                	addiw	t3,t3,27
    800091ba:	0000                	unimp
    800091bc:	0000                	unimp
    800091be:	0000                	unimp
    800091c0:	6374                	ld	a3,192(a4)
    800091c2:	3a70                	fld	fa2,240(a2)
    800091c4:	6620                	ld	s0,72(a2)
    800091c6:	646e756f          	jal	a0,800f080c <heap_end.0+0xe63cc>
    800091ca:	6e20                	ld	s0,88(a2)
    800091cc:	6e75206f          	j	8005c0b2 <heap_end.0+0x51c72>
    800091d0:	7375                	lui	t1,0xffffd
    800091d2:	6465                	lui	s0,0x19
    800091d4:	6320                	ld	s0,64(a4)
    800091d6:	656e6e6f          	jal	t3,800ef82c <heap_end.0+0xe53ec>
    800091da:	6f697463          	bgeu	s2,s6,800098c2 <uip_buf+0x45a>
    800091de:	736e                	ld	t1,248(sp)
    800091e0:	002e                	c.slli	zero,0xb
    800091e2:	0000                	unimp
    800091e4:	0000                	unimp
    800091e6:	0000                	unimp
    800091e8:	6374                	ld	a3,192(a4)
    800091ea:	3a70                	fld	fa2,240(a2)
    800091ec:	6720                	ld	s0,72(a4)
    800091ee:	7220746f          	jal	s0,80010910 <heap_end.0+0x64d0>
    800091f2:	7365                	lui	t1,0xffff9
    800091f4:	7465                	lui	s0,0xffff9
    800091f6:	202c                	fld	fa1,64(s0)
    800091f8:	6261                	lui	tp,0x18
    800091fa:	6974726f          	jal	tp,80051090 <heap_end.0+0x46c50>
    800091fe:	676e                	ld	a4,216(sp)
    80009200:	6320                	ld	s0,64(a4)
    80009202:	656e6e6f          	jal	t3,800ef858 <heap_end.0+0xe5418>
    80009206:	6f697463          	bgeu	s2,s6,800098ee <uip_buf+0x486>
    8000920a:	2e6e                	fld	ft8,216(sp)
    8000920c:	0000                	unimp
    8000920e:	0000                	unimp
    80009210:	ac18                	fsd	fa4,24(s0)
    80009212:	ffff                	0xffff
    80009214:	ac1c                	fsd	fa5,24(s0)
    80009216:	ffff                	0xffff
    80009218:	a28c                	fsd	fa1,0(a3)
    8000921a:	ffff                	0xffff
    8000921c:	b064                	fsd	fs1,224(s0)
    8000921e:	ffff                	0xffff
    80009220:	a1c0                	fsd	fs0,128(a1)
    80009222:	ffff                	0xffff
    80009224:	b064                	fsd	fs1,224(s0)
    80009226:	ffff                	0xffff
    80009228:	a1c0                	fsd	fs0,128(a1)
    8000922a:	ffff                	0xffff
    8000922c:	b064                	fsd	fs1,224(s0)
    8000922e:	ffff                	0xffff
    80009230:	ae4c                	fsd	fa1,152(a2)
    80009232:	ffff                	0xffff
    80009234:	ae8c                	fsd	fa1,24(a3)
    80009236:	ffff                	0xffff
    80009238:	afe0                	fsd	fs0,216(a5)
    8000923a:	ffff                	0xffff
    8000923c:	b1ac                	fsd	fa1,96(a1)
    8000923e:	ffff                	0xffff
    80009240:	b21c                	fsd	fa5,32(a2)
    80009242:	ffff                	0xffff
    80009244:	b250                	fsd	fa2,160(a2)
    80009246:	ffff                	0xffff
    80009248:	b1f4                	fsd	fa3,224(a1)
    8000924a:	ffff                	0xffff
    8000924c:	b190                	fsd	fa2,32(a1)
    8000924e:	ffff                	0xffff
    80009250:	c004                	sw	s1,0(s0)
    80009252:	ffff                	0xffff
    80009254:	c09c                	sw	a5,0(s1)
    80009256:	ffff                	0xffff
    80009258:	c010                	sw	a2,0(s0)
    8000925a:	ffff                	0xffff
    8000925c:	c09c                	sw	a5,0(s1)
    8000925e:	ffff                	0xffff
    80009260:	c088                	sw	a0,0(s1)
    80009262:	ffff                	0xffff
    80009264:	c09c                	sw	a5,0(s1)
    80009266:	ffff                	0xffff
    80009268:	c010                	sw	a2,0(s0)
    8000926a:	ffff                	0xffff
    8000926c:	c004                	sw	s1,0(s0)
    8000926e:	ffff                	0xffff
    80009270:	c004                	sw	s1,0(s0)
    80009272:	ffff                	0xffff
    80009274:	c088                	sw	a0,0(s1)
    80009276:	ffff                	0xffff
    80009278:	c010                	sw	a2,0(s0)
    8000927a:	ffff                	0xffff
    8000927c:	bfe0                	fsd	fs0,248(a5)
    8000927e:	ffff                	0xffff
    80009280:	bfe0                	fsd	fs0,248(a5)
    80009282:	ffff                	0xffff
    80009284:	bfe0                	fsd	fs0,248(a5)
    80009286:	ffff                	0xffff
    80009288:	c018                	sw	a4,0(s0)
    8000928a:	ffff                	0xffff
    8000928c:	0000                	unimp
    8000928e:	0000                	unimp

0000000080009290 <__clz_tab>:
    80009290:	0100                	addi	s0,sp,128
    80009292:	0202                	c.slli64	tp
    80009294:	03030303          	lb	t1,48(t1) # ffffffffffff9030 <__stack_end+0xffffffff7fef9030>
    80009298:	0404                	addi	s1,sp,512
    8000929a:	0404                	addi	s1,sp,512
    8000929c:	0404                	addi	s1,sp,512
    8000929e:	0404                	addi	s1,sp,512
    800092a0:	0505                	addi	a0,a0,1
    800092a2:	0505                	addi	a0,a0,1
    800092a4:	0505                	addi	a0,a0,1
    800092a6:	0505                	addi	a0,a0,1
    800092a8:	0505                	addi	a0,a0,1
    800092aa:	0505                	addi	a0,a0,1
    800092ac:	0505                	addi	a0,a0,1
    800092ae:	0505                	addi	a0,a0,1
    800092b0:	0606                	slli	a2,a2,0x1
    800092b2:	0606                	slli	a2,a2,0x1
    800092b4:	0606                	slli	a2,a2,0x1
    800092b6:	0606                	slli	a2,a2,0x1
    800092b8:	0606                	slli	a2,a2,0x1
    800092ba:	0606                	slli	a2,a2,0x1
    800092bc:	0606                	slli	a2,a2,0x1
    800092be:	0606                	slli	a2,a2,0x1
    800092c0:	0606                	slli	a2,a2,0x1
    800092c2:	0606                	slli	a2,a2,0x1
    800092c4:	0606                	slli	a2,a2,0x1
    800092c6:	0606                	slli	a2,a2,0x1
    800092c8:	0606                	slli	a2,a2,0x1
    800092ca:	0606                	slli	a2,a2,0x1
    800092cc:	0606                	slli	a2,a2,0x1
    800092ce:	0606                	slli	a2,a2,0x1
    800092d0:	07070707          	0x7070707
    800092d4:	07070707          	0x7070707
    800092d8:	07070707          	0x7070707
    800092dc:	07070707          	0x7070707
    800092e0:	07070707          	0x7070707
    800092e4:	07070707          	0x7070707
    800092e8:	07070707          	0x7070707
    800092ec:	07070707          	0x7070707
    800092f0:	07070707          	0x7070707
    800092f4:	07070707          	0x7070707
    800092f8:	07070707          	0x7070707
    800092fc:	07070707          	0x7070707
    80009300:	07070707          	0x7070707
    80009304:	07070707          	0x7070707
    80009308:	07070707          	0x7070707
    8000930c:	07070707          	0x7070707
    80009310:	0808                	addi	a0,sp,16
    80009312:	0808                	addi	a0,sp,16
    80009314:	0808                	addi	a0,sp,16
    80009316:	0808                	addi	a0,sp,16
    80009318:	0808                	addi	a0,sp,16
    8000931a:	0808                	addi	a0,sp,16
    8000931c:	0808                	addi	a0,sp,16
    8000931e:	0808                	addi	a0,sp,16
    80009320:	0808                	addi	a0,sp,16
    80009322:	0808                	addi	a0,sp,16
    80009324:	0808                	addi	a0,sp,16
    80009326:	0808                	addi	a0,sp,16
    80009328:	0808                	addi	a0,sp,16
    8000932a:	0808                	addi	a0,sp,16
    8000932c:	0808                	addi	a0,sp,16
    8000932e:	0808                	addi	a0,sp,16
    80009330:	0808                	addi	a0,sp,16
    80009332:	0808                	addi	a0,sp,16
    80009334:	0808                	addi	a0,sp,16
    80009336:	0808                	addi	a0,sp,16
    80009338:	0808                	addi	a0,sp,16
    8000933a:	0808                	addi	a0,sp,16
    8000933c:	0808                	addi	a0,sp,16
    8000933e:	0808                	addi	a0,sp,16
    80009340:	0808                	addi	a0,sp,16
    80009342:	0808                	addi	a0,sp,16
    80009344:	0808                	addi	a0,sp,16
    80009346:	0808                	addi	a0,sp,16
    80009348:	0808                	addi	a0,sp,16
    8000934a:	0808                	addi	a0,sp,16
    8000934c:	0808                	addi	a0,sp,16
    8000934e:	0808                	addi	a0,sp,16
    80009350:	0808                	addi	a0,sp,16
    80009352:	0808                	addi	a0,sp,16
    80009354:	0808                	addi	a0,sp,16
    80009356:	0808                	addi	a0,sp,16
    80009358:	0808                	addi	a0,sp,16
    8000935a:	0808                	addi	a0,sp,16
    8000935c:	0808                	addi	a0,sp,16
    8000935e:	0808                	addi	a0,sp,16
    80009360:	0808                	addi	a0,sp,16
    80009362:	0808                	addi	a0,sp,16
    80009364:	0808                	addi	a0,sp,16
    80009366:	0808                	addi	a0,sp,16
    80009368:	0808                	addi	a0,sp,16
    8000936a:	0808                	addi	a0,sp,16
    8000936c:	0808                	addi	a0,sp,16
    8000936e:	0808                	addi	a0,sp,16
    80009370:	0808                	addi	a0,sp,16
    80009372:	0808                	addi	a0,sp,16
    80009374:	0808                	addi	a0,sp,16
    80009376:	0808                	addi	a0,sp,16
    80009378:	0808                	addi	a0,sp,16
    8000937a:	0808                	addi	a0,sp,16
    8000937c:	0808                	addi	a0,sp,16
    8000937e:	0808                	addi	a0,sp,16
    80009380:	0808                	addi	a0,sp,16
    80009382:	0808                	addi	a0,sp,16
    80009384:	0808                	addi	a0,sp,16
    80009386:	0808                	addi	a0,sp,16
    80009388:	0808                	addi	a0,sp,16
    8000938a:	0808                	addi	a0,sp,16
    8000938c:	0808                	addi	a0,sp,16
    8000938e:	0808                	addi	a0,sp,16
